
lwIP_NIOS_II_Example.elf:     file format elf32-littlenios2
lwIP_NIOS_II_Example.elf
architecture: nios2, flags 0x00000112:
EXEC_P, HAS_SYMS, D_PAGED
start address 0x00000020

Program Header:
    LOAD off    0x00001020 vaddr 0x00000020 paddr 0x00000020 align 2**12
         filesz 0x0003340c memsz 0x0003340c flags r-x
    LOAD off    0x0003442c vaddr 0x0003342c paddr 0x0003564c align 2**12
         filesz 0x00002220 memsz 0x00002220 flags rw-
    LOAD off    0x0003686c vaddr 0x0003786c paddr 0x0003786c align 2**12
         filesz 0x00000000 memsz 0x000499ac flags rw-
    LOAD off    0x00037000 vaddr 0x05000000 paddr 0x05000000 align 2**12
         filesz 0x00000020 memsz 0x00000020 flags r-x

Sections:
Idx Name          Size      VMA       LMA       File off  Algn
  0 .entry        00000020  05000000  05000000  00037000  2**5
                  CONTENTS, ALLOC, LOAD, READONLY, CODE
  1 .text         0002e2dc  00000020  00000020  00001020  2**2
                  CONTENTS, ALLOC, LOAD, READONLY, CODE
  2 .rodata       00005130  0002e2fc  0002e2fc  0002f2fc  2**2
                  CONTENTS, ALLOC, LOAD, READONLY, DATA
  3 .rwdata       00002220  0003342c  0003564c  0003442c  2**2
                  CONTENTS, ALLOC, LOAD, DATA, SMALL_DATA
  4 .bss          000499ac  0003786c  0003786c  0003686c  2**2
                  ALLOC, SMALL_DATA
  5 .comment      00000023  00000000  00000000  00037020  2**0
                  CONTENTS, READONLY
  6 .debug_aranges 00001690  00000000  00000000  00037048  2**3
                  CONTENTS, READONLY, DEBUGGING
  7 .debug_info   0003f1e5  00000000  00000000  000386d8  2**0
                  CONTENTS, READONLY, DEBUGGING
  8 .debug_abbrev 0000dc8c  00000000  00000000  000778bd  2**0
                  CONTENTS, READONLY, DEBUGGING
  9 .debug_line   00012a0c  00000000  00000000  00085549  2**0
                  CONTENTS, READONLY, DEBUGGING
 10 .debug_frame  000041d4  00000000  00000000  00097f58  2**2
                  CONTENTS, READONLY, DEBUGGING
 11 .debug_str    00008401  00000000  00000000  0009c12c  2**0
                  CONTENTS, READONLY, DEBUGGING
 12 .debug_loc    00014845  00000000  00000000  000a452d  2**0
                  CONTENTS, READONLY, DEBUGGING
 13 .debug_alt_sim_info 00000050  00000000  00000000  000b8d74  2**2
                  CONTENTS, READONLY, DEBUGGING
 14 .debug_ranges 00000a98  00000000  00000000  000b8dc8  2**3
                  CONTENTS, READONLY, DEBUGGING
 15 .thread_model 00000003  00000000  00000000  000c0b75  2**0
                  CONTENTS, READONLY
 16 .cpu          00000003  00000000  00000000  000c0b78  2**0
                  CONTENTS, READONLY
 17 .qsys         00000001  00000000  00000000  000c0b7b  2**0
                  CONTENTS, READONLY
 18 .simulation_enabled 00000001  00000000  00000000  000c0b7c  2**0
                  CONTENTS, READONLY
 19 .sysid_hash   00000004  00000000  00000000  000c0b7d  2**0
                  CONTENTS, READONLY
 20 .sysid_base   00000004  00000000  00000000  000c0b81  2**0
                  CONTENTS, READONLY
 21 .sysid_time   00000004  00000000  00000000  000c0b85  2**0
                  CONTENTS, READONLY
 22 .stderr_dev   00000009  00000000  00000000  000c0b89  2**0
                  CONTENTS, READONLY
 23 .stdin_dev    00000009  00000000  00000000  000c0b92  2**0
                  CONTENTS, READONLY
 24 .stdout_dev   00000009  00000000  00000000  000c0b9b  2**0
                  CONTENTS, READONLY
 25 .sopc_system_name 0000000c  00000000  00000000  000c0ba4  2**0
                  CONTENTS, READONLY
 26 .quartus_project_dir 0000002e  00000000  00000000  000c0bb0  2**0
                  CONTENTS, READONLY
 27 .jdi          00005066  00000000  00000000  000c0bde  2**0
                  CONTENTS, READONLY
 28 .sopcinfo     001a200d  00000000  00000000  000c5c44  2**0
                  CONTENTS, READONLY
SYMBOL TABLE:
05000000 l    d  .entry	00000000 .entry
00000020 l    d  .text	00000000 .text
0002e2fc l    d  .rodata	00000000 .rodata
0003342c l    d  .rwdata	00000000 .rwdata
0003786c l    d  .bss	00000000 .bss
00000000 l    d  .comment	00000000 .comment
00000000 l    d  .debug_aranges	00000000 .debug_aranges
00000000 l    d  .debug_info	00000000 .debug_info
00000000 l    d  .debug_abbrev	00000000 .debug_abbrev
00000000 l    d  .debug_line	00000000 .debug_line
00000000 l    d  .debug_frame	00000000 .debug_frame
00000000 l    d  .debug_str	00000000 .debug_str
00000000 l    d  .debug_loc	00000000 .debug_loc
00000000 l    d  .debug_alt_sim_info	00000000 .debug_alt_sim_info
00000000 l    d  .debug_ranges	00000000 .debug_ranges
00000000 l    df *ABS*	00000000 ../lwIP_NIOS_II_Example_bsp/obj/HAL/src/crt0.o
00000098 l       .text	00000000 alt_after_alt_main
00000000 l    df *ABS*	00000000 alteraTseEthernetif.c
0000009c l     F .text	00000064 low_level_init
00000100 l     F .text	00000234 low_level_input
00000000 l    df *ABS*	00000000 fs.c
0002e3b0 l     O .rodata	00000345 data_img_sics_gif
0002e6f5 l     O .rodata	00000298 data_404_html
0002e98d l     O .rodata	00000671 data_index_html
00000000 l    df *ABS*	00000000 fsdata.c
00000000 l    df *ABS*	00000000 httpd.c
00000624 l     F .text	00000040 conn_err
00000664 l     F .text	00000060 close_conn
000006c4 l     F .text	000000f4 send_data
000007b8 l     F .text	000000c4 http_poll
0000087c l     F .text	00000070 http_sent
000008ec l     F .text	0000024c http_recv
00000b38 l     F .text	00000100 http_accept
00000000 l    df *ABS*	00000000 lwip_tse_mac.c
00000000 l    df *ABS*	00000000 tse_my_system.c
00000000 l    df *ABS*	00000000 echo.c
00000000 l    df *ABS*	00000000 histogram.c
00000000 l    df *ABS*	00000000 api_lib.c
00000000 l    df *ABS*	00000000 api_msg.c
00000000 l    df *ABS*	00000000 err.c
00000000 l    df *ABS*	00000000 netbuf.c
00000000 l    df *ABS*	00000000 netdb.c
00000000 l    df *ABS*	00000000 netifapi.c
00000000 l    df *ABS*	00000000 sockets.c
00000000 l    df *ABS*	00000000 tcpip.c
00000000 l    df *ABS*	00000000 def.c
00000000 l    df *ABS*	00000000 dhcp.c
00001f80 l     F .text	00000080 dhcp_handle_nak
00003c80 l     F .text	00000058 dhcp_set_state
00003190 l     F .text	000001a0 dhcp_discover
00002000 l     F .text	00000098 dhcp_check
00002098 l     F .text	000000d0 dhcp_handle_offer
00002168 l     F .text	00000254 dhcp_select
00004cac l     F .text	000004d4 dhcp_create_msg
00003cd8 l     F .text	000000e4 dhcp_option
00003e58 l     F .text	000000d8 dhcp_option_short
00003f30 l     F .text	0000014c dhcp_option_long
00003dbc l     F .text	0000009c dhcp_option_byte
00005260 l     F .text	00000160 dhcp_option_trailer
00005180 l     F .text	000000e0 dhcp_delete_msg
00002738 l     F .text	00000078 dhcp_t2_timeout
000026c0 l     F .text	00000078 dhcp_t1_timeout
0000252c l     F .text	00000194 dhcp_timeout
00003330 l     F .text	00000280 dhcp_bind
00003700 l     F .text	00000150 dhcp_rebind
00003850 l     F .text	000001a4 dhcp_reboot
000027b0 l     F .text	000001fc dhcp_handle_ack
00004988 l     F .text	00000324 dhcp_recv
0000302c l     F .text	00000164 dhcp_decline
0000407c l     F .text	0000090c dhcp_parse_reply
000355cc l     O .rwdata	00000004 xid.3565
00000000 l    df *ABS*	00000000 dns.c
00000000 l    df *ABS*	00000000 init.c
00000000 l    df *ABS*	00000000 autoip.c
00000000 l    df *ABS*	00000000 icmp.c
000059f0 l     F .text	0000017c icmp_send_response
00000000 l    df *ABS*	00000000 igmp.c
00000000 l    df *ABS*	00000000 inet.c
00000000 l    df *ABS*	00000000 inet_chksum.c
00005b6c l     F .text	0000014c lwip_standard_chksum
00000000 l    df *ABS*	00000000 ip.c
00037878 l     O .bss	00000002 ip_id
00000000 l    df *ABS*	00000000 ip_addr.c
000388f0 l     O .bss	00000010 str.3022
00000000 l    df *ABS*	00000000 ip_frag.c
0003788c l     O .bss	00000004 reassdatagrams
00037890 l     O .bss	00000002 ip_reass_pbufcount
00007628 l     F .text	00000264 ip_reass_free_complete_datagram
00007abc l     F .text	00000090 ip_reass_dequeue_datagram
0000788c l     F .text	00000154 ip_reass_remove_oldest_datagram
000079e0 l     F .text	000000dc ip_reass_enqueue_new_datagram
00007b4c l     F .text	0000055c ip_reass_chain_frag_into_datagram_and_validate
00038900 l     O .bss	000005e0 buf
00000000 l    df *ABS*	00000000 mem.c
00037894 l     O .bss	00000004 ram
00037898 l     O .bss	00000004 ram_end
0003789c l     O .bss	00000004 lfree
00008864 l     F .text	000001f8 plug_holes
00000000 l    df *ABS*	00000000 memp.c
00038ee0 l     O .bss	00000024 memp_tab
0002fd80 l     O .rodata	00000012 memp_sizes
0002fd92 l     O .rodata	00000012 memp_num
00038f04 l     O .bss	0000cdcf memp_memory
00000000 l    df *ABS*	00000000 netif.c
000378a0 l     O .bss	00000001 netif_num
00000000 l    df *ABS*	00000000 pbuf.c
0000a050 l     F .text	00000024 pbuf_pool_is_empty
00000000 l    df *ABS*	00000000 raw.c
000378b0 l     O .bss	00000004 raw_pcbs
00000000 l    df *ABS*	00000000 asn1_dec.c
00000000 l    df *ABS*	00000000 asn1_enc.c
00000000 l    df *ABS*	00000000 mib2.c
00000000 l    df *ABS*	00000000 mib_structs.c
00000000 l    df *ABS*	00000000 msg_in.c
00000000 l    df *ABS*	00000000 msg_out.c
00000000 l    df *ABS*	00000000 stats.c
00000000 l    df *ABS*	00000000 sys.c
00000000 l    df *ABS*	00000000 tcp.c
000355d8 l     O .rwdata	00000002 tcp_port
000378b4 l     O .bss	00000001 tcp_timer
000378b5 l     O .bss	00000001 tcp_timer_ctr
0000bebc l     F .text	00000390 tcp_close_shutdown
0000cb30 l     F .text	000000e8 tcp_new_port
0000c6e8 l     F .text	00000030 tcp_accept_null
0000db78 l     F .text	000000d4 tcp_kill_prio
0000dc4c l     F .text	00000090 tcp_kill_timewait
000355e4 l     O .rwdata	00000004 iss.3697
00000000 l    df *ABS*	00000000 tcp_in.c
00045cd4 l     O .bss	00000010 inseg
000378d0 l     O .bss	00000004 tcphdr
000378d4 l     O .bss	00000004 iphdr
000378d8 l     O .bss	00000004 seqno
000378dc l     O .bss	00000004 ackno
000378e0 l     O .bss	00000001 flags
000378e2 l     O .bss	00000002 tcplen
000378e4 l     O .bss	00000001 recv_flags
000378e8 l     O .bss	00000004 recv_data
0000f434 l     F .text	00000138 tcp_timewait_input
0000f1a4 l     F .text	00000290 tcp_listen_input
0000f56c l     F .text	00000be8 tcp_process
00012154 l     F .text	000001f8 tcp_parseopt
00010328 l     F .text	00001e2c tcp_receive
00010154 l     F .text	000001d4 tcp_oos_insert_segment
00000000 l    df *ABS*	00000000 tcp_out.c
0001234c l     F .text	00000254 tcp_output_alloc_header
00012680 l     F .text	00000264 tcp_create_segment
000128e4 l     F .text	00000154 tcp_pbuf_prealloc
00012a38 l     F .text	000001b8 tcp_write_checks
00014298 l     F .text	000003d0 tcp_output_segment
00000000 l    df *ABS*	00000000 timers.c
00000000 l    df *ABS*	00000000 udp.c
000355e8 l     O .rwdata	00000002 udp_port
00015010 l     F .text	000000ac udp_new_port
00000000 l    df *ABS*	00000000 etharp.c
00045ce4 l     O .bss	000000c8 arp_table
000378f4 l     O .bss	00000001 etharp_cached_entry
00015e5c l     F .text	000000ec free_etharp_q
00015f48 l     F .text	00000098 etharp_free_entry
00016154 l     F .text	00000438 etharp_find_entry
0001658c l     F .text	000000c8 etharp_send_ip
00016654 l     F .text	00000224 etharp_update_arp_entry
00016a0c l     F .text	000000c8 etharp_ip_input
00016ad4 l     F .text	000003a4 etharp_arp_input
00016e78 l     F .text	00000158 etharp_output_to_arp_index
0001779c l     F .text	00000270 etharp_raw
00000000 l    df *ABS*	00000000 ethernetif.c
00000000 l    df *ABS*	00000000 auth.c
00000000 l    df *ABS*	00000000 chap.c
00000000 l    df *ABS*	00000000 chpms.c
00000000 l    df *ABS*	00000000 fsm.c
00000000 l    df *ABS*	00000000 ipcp.c
00000000 l    df *ABS*	00000000 lcp.c
00000000 l    df *ABS*	00000000 magic.c
00000000 l    df *ABS*	00000000 md5.c
00000000 l    df *ABS*	00000000 pap.c
00000000 l    df *ABS*	00000000 ppp.c
00000000 l    df *ABS*	00000000 ppp_oe.c
00000000 l    df *ABS*	00000000 randm.c
00000000 l    df *ABS*	00000000 vj.c
00000000 l    df *ABS*	00000000 slipif.c
00000000 l    df *ABS*	00000000 main.c
00045dac l     O .bss	00000018 lwipAlarm
000378f8 l     O .bss	00000004 lwipProcessTimerFlag
000378fc l     O .bss	00000004 lwipTicksPer250mS
00037900 l     O .bss	00000004 lwip250mStimer
00037904 l     O .bss	00000004 ip_zero.3932
00000000 l    df *ABS*	00000000 libgcc2.c
00000000 l    df *ABS*	00000000 fp-bit.c
000180f4 l     F .text	00000354 _fpadd_parts
00000000 l    df *ABS*	00000000 fp-bit.c
00000000 l    df *ABS*	00000000 fp-bit.c
00000000 l    df *ABS*	00000000 fp-bit.c
00000000 l    df *ABS*	00000000 fp-bit.c
00000000 l    df *ABS*	00000000 fp-bit.c
00000000 l    df *ABS*	00000000 fp-bit.c
00000000 l    df *ABS*	00000000 libgcc2.c
00000000 l    df *ABS*	00000000 libgcc2.c
00000000 l    df *ABS*	00000000 fp-bit.c
00000000 l    df *ABS*	00000000 fp-bit.c
00000000 l    df *ABS*	00000000 fp-bit.c
00000000 l    df *ABS*	00000000 libgcc2.c
00000000 l    df *ABS*	00000000 libgcc2.c
00000000 l    df *ABS*	00000000 libgcc2.c
00000000 l    df *ABS*	00000000 impure.c
0003366c l     O .rwdata	00000400 impure_data
00000000 l    df *ABS*	00000000 memcmp.c
00000000 l    df *ABS*	00000000 memcpy.c
00000000 l    df *ABS*	00000000 memset.c
00000000 l    df *ABS*	00000000 printf.c
00000000 l    df *ABS*	00000000 putc.c
00000000 l    df *ABS*	00000000 puts.c
00000000 l    df *ABS*	00000000 strcmp.c
00000000 l    df *ABS*	00000000 strlen.c
00000000 l    df *ABS*	00000000 strncmp.c
00000000 l    df *ABS*	00000000 vfprintf.c
0001989c l     F .text	00000034 __sprint_r
00031382 l     O .rodata	00000010 blanks.3515
00031392 l     O .rodata	00000010 zeroes.3516
00000000 l    df *ABS*	00000000 wbuf.c
00000000 l    df *ABS*	00000000 wsetup.c
00000000 l    df *ABS*	00000000 dtoa.c
0001b9b8 l     F .text	00000208 quorem
00000000 l    df *ABS*	00000000 fflush.c
00000000 l    df *ABS*	00000000 findfp.c
0001d3f4 l     F .text	00000008 __fp_lock
0001d3fc l     F .text	00000008 __fp_unlock
00000000 l    df *ABS*	00000000 mallocr.c
00000000 l    df *ABS*	00000000 fvwrite.c
00000000 l    df *ABS*	00000000 fwalk.c
00000000 l    df *ABS*	00000000 locale.c
000313c4 l     O .rodata	00000030 lconv
00000000 l    df *ABS*	00000000 makebuf.c
00000000 l    df *ABS*	00000000 mallocr.c
00000000 l    df *ABS*	00000000 memchr.c
00000000 l    df *ABS*	00000000 memmove.c
00000000 l    df *ABS*	00000000 mprec.c
0003150c l     O .rodata	0000000c p05.2435
00000000 l    df *ABS*	00000000 mallocr.c
00000000 l    df *ABS*	00000000 s_isinfd.c
00000000 l    df *ABS*	00000000 s_isnand.c
00000000 l    df *ABS*	00000000 sbrkr.c
00000000 l    df *ABS*	00000000 stdio.c
00000000 l    df *ABS*	00000000 writer.c
00000000 l    df *ABS*	00000000 mallocr.c
00000000 l    df *ABS*	00000000 closer.c
00000000 l    df *ABS*	00000000 fclose.c
00000000 l    df *ABS*	00000000 fstatr.c
00000000 l    df *ABS*	00000000 int_errno.c
00000000 l    df *ABS*	00000000 isattyr.c
00000000 l    df *ABS*	00000000 lseekr.c
00000000 l    df *ABS*	00000000 readr.c
00000000 l    df *ABS*	00000000 libgcc2.c
00000000 l    df *ABS*	00000000 libgcc2.c
00000000 l    df *ABS*	00000000 fp-bit.c
00000000 l    df *ABS*	00000000 fp-bit.c
00000000 l    df *ABS*	00000000 fp-bit.c
00000000 l    df *ABS*	00000000 fp-bit.c
00000000 l    df *ABS*	00000000 fp-bit.c
00000000 l    df *ABS*	00000000 lib2-divmod.c
00021710 l     F .text	00000074 udivmodsi4
00000000 l    df *ABS*	00000000 alt_alarm_start.c
00000000 l    df *ABS*	00000000 alt_close.c
000219ac l     F .text	00000050 alt_get_errno
00000000 l    df *ABS*	00000000 alt_dev.c
00021ac4 l     F .text	0000002c alt_dev_null_write
00000000 l    df *ABS*	00000000 alt_errno.c
00000000 l    df *ABS*	00000000 alt_fstat.c
00021af0 l     F .text	00000050 alt_get_errno
00000000 l    df *ABS*	00000000 alt_isatty.c
00021bec l     F .text	00000050 alt_get_errno
00000000 l    df *ABS*	00000000 alt_load.c
00021cdc l     F .text	0000006c alt_load_section
00000000 l    df *ABS*	00000000 alt_lseek.c
00021dc8 l     F .text	00000050 alt_get_errno
00000000 l    df *ABS*	00000000 alt_main.c
00000000 l    df *ABS*	00000000 alt_malloc_lock.c
00000000 l    df *ABS*	00000000 alt_read.c
00021fa0 l     F .text	00000050 alt_get_errno
00000000 l    df *ABS*	00000000 alt_release_fd.c
00000000 l    df *ABS*	00000000 alt_remap_uncached.c
00000000 l    df *ABS*	00000000 alt_sbrk.c
00035624 l     O .rwdata	00000004 heap_end
00000000 l    df *ABS*	00000000 alt_tick.c
00000000 l    df *ABS*	00000000 alt_uncached_malloc.c
00000000 l    df *ABS*	00000000 alt_usleep.c
00000000 l    df *ABS*	00000000 alt_write.c
000224d8 l     F .text	00000050 alt_get_errno
00000000 l    df *ABS*	00000000 alt_sys_init.c
00022614 l     F .text	00000038 alt_dev_reg
00034028 l     O .rwdata	0000009c vic_0
000340c4 l     O .rwdata	000000d8 ext_flash
0003419c l     O .rwdata	00001060 jtag_uart
000351fc l     O .rwdata	00000120 lcd
0003531c l     O .rwdata	00000030 sgdma_rx
0003534c l     O .rwdata	00000030 sgdma_tx
0003537c l     O .rwdata	000000c4 rs232
00035440 l     O .rwdata	000000c4 uart_0
00035504 l     O .rwdata	000000c4 uart_1
00000000 l    df *ABS*	00000000 altera_avalon_cfi_flash.c
000227c4 l     F .text	00000038 alt_flash_device_register
00000000 l    df *ABS*	00000000 altera_avalon_cfi_flash_table.c
000235fc l     F .text	00000080 alt_read_16bit_query_entry
00000000 l    df *ABS*	00000000 altera_avalon_jtag_uart_fd.c
00000000 l    df *ABS*	00000000 altera_avalon_jtag_uart_init.c
000246ac l     F .text	00000204 altera_avalon_jtag_uart_irq
000248b0 l     F .text	000000a4 altera_avalon_jtag_uart_timeout
00000000 l    df *ABS*	00000000 altera_avalon_jtag_uart_ioctl.c
00000000 l    df *ABS*	00000000 altera_avalon_jtag_uart_read.c
00000000 l    df *ABS*	00000000 altera_avalon_jtag_uart_write.c
00000000 l    df *ABS*	00000000 altera_avalon_lcd_16207.c
00035630 l     O .rwdata	00000004 colstart
00024f44 l     F .text	000000b4 lcd_write_command
00024ff8 l     F .text	000000d0 lcd_write_data
000250c8 l     F .text	000000cc lcd_clear_screen
00025194 l     F .text	000001ec lcd_repaint_screen
00025380 l     F .text	000000cc lcd_scroll_up
0002544c l     F .text	000002bc lcd_handle_escape
00025bec l     F .text	000000ac alt_lcd_16207_timeout
00000000 l    df *ABS*	00000000 altera_avalon_lcd_16207_fd.c
00000000 l    df *ABS*	00000000 altera_avalon_sgdma.c
00025e30 l     F .text	00000050 alt_get_errno
000269d4 l     F .text	000000e4 alt_avalon_sgdma_irq
00000000 l    df *ABS*	00000000 altera_avalon_timer_sc.c
00026b5c l     F .text	000000a0 alt_avalon_timer_sc_irq
00000000 l    df *ABS*	00000000 altera_avalon_timer_ts.c
00000000 l    df *ABS*	00000000 altera_avalon_timer_vars.c
00000000 l    df *ABS*	00000000 altera_avalon_tse.c
00037947 l     O .bss	00000001 tse_system_count.3776
00037946 l     O .bss	00000001 is_init.3858
00000000 l    df *ABS*	00000000 altera_avalon_uart_fd.c
00000000 l    df *ABS*	00000000 altera_avalon_uart_init.c
0002bf24 l     F .text	00000098 altera_avalon_uart_irq
0002bfbc l     F .text	000000d8 altera_avalon_uart_rxirq
0002c094 l     F .text	0000013c altera_avalon_uart_txirq
00000000 l    df *ABS*	00000000 altera_avalon_uart_read.c
0002c224 l     F .text	00000050 alt_get_errno
00000000 l    df *ABS*	00000000 altera_avalon_uart_write.c
0002c4d0 l     F .text	00000050 alt_get_errno
00000000 l    df *ABS*	00000000 altera_vic_irq_init.c
00033188 l     O .rodata	00000020 VEC_SIZE_ARRAY.1688
00000000 l    df *ABS*	00000000 altera_vic_isr_register.c
00000000 l    df *ABS*	00000000 alt_busy_sleep.c
00000000 l    df *ABS*	00000000 alt_dcache_flush.c
00000000 l    df *ABS*	00000000 alt_dcache_flush_all.c
00000000 l    df *ABS*	00000000 alt_dev_llist_insert.c
0002cd34 l     F .text	00000050 alt_get_errno
00000000 l    df *ABS*	00000000 alt_do_ctors.c
00000000 l    df *ABS*	00000000 alt_do_dtors.c
00000000 l    df *ABS*	00000000 alt_find_dev.c
00000000 l    df *ABS*	00000000 alt_flash_dev.c
00000000 l    df *ABS*	00000000 alt_icache_flush_all.c
00000000 l    df *ABS*	00000000 alt_io_redirect.c
0002d054 l     F .text	000000c0 alt_open_fd
00000000 l    df *ABS*	00000000 alt_open.c
0002d18c l     F .text	00000050 alt_get_errno
0002d1dc l     F .text	000000cc alt_file_locked
00000000 l    df *ABS*	00000000 altera_avalon_cfi_flash_amd.c
0002d790 l     F .text	000000cc alt_write_word_amd
0002d674 l     F .text	0000011c alt_wait_for_command_to_complete_amd
00000000 l    df *ABS*	00000000 altera_avalon_cfi_flash_intel.c
0002da44 l     F .text	0000017c alt_unlock_block_intel
0002dbc0 l     F .text	000000d4 alt_write_word_intel
00000000 l    df *ABS*	00000000 alt_find_file.c
00000000 l    df *ABS*	00000000 alt_get_fd.c
00000000 l    df *ABS*	00000000 alt_icache_flush.c
00000000 l    df *ABS*	00000000 atexit.c
00000000 l    df *ABS*	00000000 ctype_.c
000332a9 l     O .rodata	00000180 _ctype_b
00000000 l    df *ABS*	00000000 exit.c
00000000 l    df *ABS*	00000000 malloc.c
00000000 l    df *ABS*	00000000 strcpy.c
00000000 l    df *ABS*	00000000 __atexit.c
00000000 l    df *ABS*	00000000 __call_atexit.c
00000000 l    df *ABS*	00000000 alt_exit.c
00000000 l    df *ABS*	00000000 
0003787c g     O .bss	00000004 current_iphdr_src
00006110 g     F .text	00000044 inet_chksum
0000ba84 g     F .text	00000048 raw_bind
0001fb78 g     F .text	00000074 _mprec_log10
000080a8 g     F .text	000004b8 ip_reass
0002802c g     F .text	000000d8 alt_tse_get_mac_info
0000a5b8 g     F .text	00000284 pbuf_realloc
0001fc68 g     F .text	00000084 __any_on
00020834 g     F .text	00000064 _isatty_r
000313f4 g     O .rodata	00000028 __mprec_tinytens
00021ee8 g     F .text	00000078 alt_main
0002df5c g     F .text	00000094 strcpy
0000e39c g     F .text	00000030 tcp_next_iss
00019130 g     F .text	00000044 __ashldi3
000195d8 g     F .text	00000084 _puts_r
000230d4 g     F .text	00000040 alt_read_query_entry_32bit
00009fd8 g     F .text	00000078 pbuf_free_ooseq
0000c8f0 g     F .text	00000128 tcp_update_rcv_ann_wnd
00020898 g     F .text	0000006c _lseek_r
000378a4 g     O .bss	00000004 netif_list
0002288c g     F .text	000002ac alt_flash_cfi_write
00002a7c g     F .text	00000078 dhcp_cleanup
0002f020 g     O .rodata	00000010 file_index_html
0003564c g       *ABS*	00000000 __flash_rwdata_start
0002bc04 g     F .text	000000f0 marvell_cfg_rgmii
000214c4 g     F .text	0000005c __eqdf2
00014668 g     F .text	00000250 tcp_rst
0000b7e0 g     F .text	000000c8 pbuf_memfind
00029214 g     F .text	00000210 alt_tse_phy_print_profile
00081218 g       *ABS*	00000000 __alt_heap_start
0002b9a4 g     F .text	00000098 marvell_phy_cfg
00017a0c g     F .text	00000074 etharp_request
000193f0 g     F .text	0000003c printf
00002af4 g     F .text	00000248 dhcp_start
00025fa4 g     F .text	00000110 alt_avalon_sgdma_do_sync_transfer
0000dffc g     F .text	0000006c tcp_err
000355d0 g     O .rwdata	00000004 ip_addr_any
00005cb8 g     F .text	000001f8 inet_chksum_pseudo
00002ee8 g     F .text	000000a8 dhcp_network_changed
05000000 g       *ABS*	00000000 __alt_mem_sram
0002048c g     F .text	0000005c __sseek
0001d484 g     F .text	0000010c __sinit
00015d68 g     F .text	0000009c udp_remove
0001b6ec g     F .text	0000013c __swbuf_r
00006854 g     F .text	00000468 ip_output_if
0001e11c g     F .text	0000009c _setlocale_r
0001d410 g     F .text	00000064 __sfmoreglue
000097d4 g     F .text	000000f8 memp_free
00021f80 g     F .text	00000020 __malloc_unlock
0000aa34 g     F .text	000001cc pbuf_free
0000df24 g     F .text	0000006c tcp_recv
00028270 g     F .text	00000a74 getPHYSpeed
0000ac8c g     F .text	00000140 pbuf_cat
00081014 g     O .bss	00000034 alteraTseNetif
00026690 g     F .text	00000344 alt_avalon_sgdma_construct_descriptor_burst
00037940 g     O .bss	00000004 altera_avalon_timer_ts_freq
0001ec1c g     F .text	00000128 memmove
00006cbc g     F .text	000000ec ip_output
00016878 g     F .text	000000a0 etharp_cleanup_netif
000156f4 g     F .text	00000094 udp_sendto
0001d474 g     F .text	00000010 _cleanup
0001ed44 g     F .text	000000a8 _Balloc
00006f38 g     F .text	00000044 ipaddr_addr
00014c78 g     F .text	00000144 tcp_keepalive
00015fe0 g     F .text	00000174 etharp_tmr
0002ac18 g     F .text	000001bc alt_tse_phy_set_adv_1000
0003563c g     O .rwdata	00000001 max_mac_system
0000dcdc g     F .text	000001ec tcp_alloc
000272e4 g     F .text	000009fc alt_tse_system_add_sys
0002157c g     F .text	00000064 __gtdf2
00000000  w      *UND*	00000000 __errno
00015788 g     F .text	000002ec udp_sendto_if
00023260 g     F .text	0000004c alt_write_flash_command_32bit_device_16bit_mode
05000000 g     F .entry	0000001c __reset
0000def4 g     F .text	00000030 tcp_arg
0000196c g     F .text	000000d0 udpecho_recv
000378b6 g     O .bss	00000001 tcp_active_pcbs_changed
000378b8 g     O .bss	00000004 tcp_active_pcbs
00026200 g     F .text	00000074 alt_avalon_sgdma_construct_stream_to_mem_desc_burst
00000020 g       *ABS*	00000000 __flash_exceptions_start
000207cc g     F .text	00000068 _fstat_r
000378f0 g     O .bss	00000004 udp_pcbs
0003342c g     O .rwdata	00000240 tse_mac_device
00022d80 g     F .text	000002d8 alt_flash_program_block
00037924 g     O .bss	00000004 errno
00017a80 g     F .text	000002b0 ethernet_input
0000c2a8 g     F .text	000000f0 tcp_shutdown
0002b4ec g     F .text	000004b8 alt_tse_phy_set_common_speed
0000ac4c g     F .text	00000040 pbuf_ref
00081048 g     O .bss	00000020 pmac_groups
00009d74 g     F .text	00000044 netif_set_netmask
0003792c g     O .bss	00000004 alt_argv
0003d5c8 g       *ABS*	00000000 _gp
0000dafc g     F .text	0000007c tcp_recv_null
000224a8 g     F .text	00000030 usleep
00037880 g     O .bss	00000004 current_netif
00013510 g     F .text	0000041c tcp_enqueue_flags
0000c24c g     F .text	0000005c tcp_close
0000ca18 g     F .text	00000118 tcp_recved
00022450 g     F .text	00000058 alt_uncached_malloc
0000e118 g     F .text	000000dc tcp_pcb_purge
00026df0 g     F .text	00000060 tse_mac_initTransInfo2
00033ea8 g     O .rwdata	00000180 alt_fd_list
000073a0 g     F .text	0000003c ipaddr_ntoa
000355da g     O .rwdata	00000007 tcp_persist_backoff
0002c720 g       .text	00000000 VIC_0_VECTOR_TABLE
0002cedc g     F .text	00000090 alt_find_dev
000191f0 g     F .text	000000f8 memcpy
00008afc g     F .text	00000180 mem_free
0002705c g     F .text	00000054 tse_mac_setMIImode
000378bc g     O .bss	00000004 tcp_ticks
000378c0 g     O .bss	00000004 tcp_listen_pcbs
00028ce4 g     F .text	00000048 alt_tse_phy_rd_mdio_addr
000148b8 g     F .text	000000b4 tcp_rexmit_rto
0001d404 g     F .text	0000000c _cleanup_r
0002163c g     F .text	000000d4 __floatsidf
00026e50 g     F .text	000000e0 tse_mac_sTxWrite
0002d114 g     F .text	00000078 alt_io_redirect
0000dec8 g     F .text	0000002c tcp_new
000215e0 g     F .text	0000005c __ltdf2
00015cdc g     F .text	0000004c udp_disconnect
0000b204 g     F .text	0000019c pbuf_copy_partial
0002e2fc g       *ABS*	00000000 __DTOR_END__
0001965c g     F .text	00000014 puts
000039f4 g     F .text	000001a8 dhcp_release
0001fad4 g     F .text	000000a4 __ratio
000303f4 g     O .rodata	0000002c tcp_state_str
0000bcdc g     F .text	00000044 raw_send
00006154 g     F .text	0000010c inet_chksum_pbuf
0000b3a0 g     F .text	000001b8 pbuf_take
000262f0 g     F .text	00000088 alt_avalon_sgdma_construct_mem_to_stream_desc_burst
00024ab0 g     F .text	00000244 altera_avalon_jtag_uart_read
0002df34 g     F .text	00000014 malloc
000193c4 g     F .text	0000002c _printf_r
00037884 g     O .bss	00000004 current_iphdr_dest
00021830 g     F .text	00000008 __udivsi3
00045dec g     O .bss	00000100 tse
00021c3c g     F .text	000000a0 isatty
00027ce0 g     F .text	00000164 alt_tse_sys_enable_mdio_sharing
000053fc g     F .text	0000056c icmp_input
00031444 g     O .rodata	000000c8 __mprec_tens
00027fac g     F .text	00000080 alt_tse_get_mac_info_index
00045eec g     O .bss	0003a980 histcb_table
000098e8 g     F .text	00000104 netif_add
0001e1b8 g     F .text	0000000c __locale_charset
00018070 g     F .text	00000084 __fixunsdfsi
0000d9b8 g     F .text	00000050 tcp_segs_free
0002de5c g     F .text	0000008c alt_icache_flush
00037920 g     O .bss	00000004 __malloc_top_pad
00000590 g     F .text	00000094 fs_open
00035600 g     O .rwdata	00000004 __mb_cur_max
0001e1c4 g     F .text	0000000c _localeconv_r
00009bfc g     F .text	00000134 netif_set_ipaddr
0001f144 g     F .text	0000003c __i2b
0001dad8 g     F .text	000004e4 __sfvwrite_r
0002641c g     F .text	00000058 alt_avalon_sgdma_stop
00028d84 g     F .text	0000012c alt_tse_phy_wr_mdio_reg
0002034c g     F .text	00000064 _sbrk_r
0002d85c g     F .text	00000080 alt_program_intel
00029424 g     F .text	0000069c alt_tse_mac_group_init
00001b14 g     F .text	000000d8 init_hist
00012bf0 g     F .text	00000920 tcp_write
00000ca4 g     F .text	00000868 tse_mac_init
00016918 g     F .text	000000f4 etharp_find_addr
00020904 g     F .text	0000006c _read_r
0002ccf4 g     F .text	00000024 alt_dcache_flush
00001ae0 g     F .text	00000034 get_utm
00033a6c g     O .rwdata	0000000c __lc_ctype
0003561c g     O .rwdata	00000004 alt_max_fd
00023058 g     F .text	0000003c alt_read_query_entry_8bit
00018f18 g     F .text	00000104 __unpack_d
0002067c g     F .text	0000013c _fclose_r
0002d8dc g     F .text	00000168 alt_erase_block_intel
0000c55c g     F .text	0000018c tcp_bind
0001d3c4 g     F .text	00000030 fflush
0003791c g     O .bss	00000004 __malloc_max_sbrked_mem
000059ac g     F .text	00000044 icmp_time_exceeded
0000c528 g     F .text	00000034 tcp_abort
00001a3c g     F .text	000000a4 udpecho_init
00008560 g     F .text	00000304 ip_frag
00018448 g     F .text	00000054 __adddf3
0002f000 g     O .rodata	00000010 file_img_sics_gif
0001f848 g     F .text	00000148 __b2d
00020f38 g     F .text	0000058c __umoddi3
00021e18 g     F .text	000000d0 lseek
0000bb54 g     F .text	00000188 raw_sendto
00028f7c g     F .text	00000298 alt_tse_phy_add_profile_default
0002a680 g     F .text	00000598 alt_tse_phy_get_cap
000355f8 g     O .rwdata	00000004 _global_impure_ptr
0001fcec g     F .text	000005fc _realloc_r
00081218 g       *ABS*	00000000 __bss_end
00025e80 g     F .text	00000124 alt_avalon_sgdma_do_async_transfer
0002234c g     F .text	00000104 alt_tick
00020970 g     F .text	000005c8 __udivdi3
00003b9c g     F .text	000000e4 dhcp_stop
0002a520 g     F .text	00000160 alt_tse_phy_check_link
0003141c g     O .rodata	00000028 __mprec_bigtens
0001ef28 g     F .text	00000104 __s2b
00018acc g     F .text	0000011c __floatunsidf
0002bb20 g     F .text	000000e4 marvell_cfg_sgmii
0000af38 g     F .text	000002cc pbuf_copy
0002a35c g     F .text	000001c4 alt_tse_phy_restart_an
0001f5e8 g     F .text	00000058 __mcmp
0001496c g     F .text	000001e8 tcp_rexmit
0002be7c g     F .text	000000a8 altera_avalon_uart_init
00035648 g     O .rwdata	00000004 __ctype_ptr
0001d69c g     F .text	00000018 __fp_lock_all
00081068 g     O .bss	00000020 pphy_profiles
00009de0 g     F .text	00000090 netif_set_up
00022288 g     F .text	000000c4 alt_alarm_stop
02001000 g       *ABS*	00000000 __alt_mem_descriptor_memory
00030430 g     O .rodata	00000010 tcp_pcb_lists
00033e80 g     O .rwdata	00000028 alt_dev_null
00006e74 g     F .text	000000c4 ip4_addr_netmask_valid
000378c4 g     O .bss	00000004 tcp_tmp_pcb
0002a244 g     F .text	00000118 alt_tse_phy_init
00017d30 g     F .text	0000002c lwipAlarmCallback
00023560 g     F .text	0000009c alt_set_flash_algorithm_func
00026474 g     F .text	00000064 alt_avalon_sgdma_check_descriptor_status
0002cd18 g     F .text	0000001c alt_dcache_flush_all
0001f02c g     F .text	00000068 __hi0bits
000189f8 g     F .text	000000d4 __fixdfsi
00001658 g     F .text	00000170 tse_mac_raw_send
00008a5c g     F .text	000000a0 mem_init
0002c920 g       .text	00000000 alt_shadow_non_preemptive_interrupt
00023114 g     F .text	00000044 alt_write_flash_command_8bit_device_8bit_mode
000125a0 g     F .text	000000e0 tcp_send_fin
0003564c g       *ABS*	00000000 __ram_rwdata_end
00013a74 g     F .text	00000824 tcp_output
00035614 g     O .rwdata	00000008 alt_dev_list
00022528 g     F .text	000000ec write
00008c7c g     F .text	00000350 mem_trim
000265b0 g     F .text	00000080 alt_avalon_sgdma_enable_desc_poll
0001942c g     F .text	000000bc _putc_r
00026d9c g     F .text	00000028 alt_timestamp_freq
0003342c g       *ABS*	00000000 __ram_rodata_end
00021b40 g     F .text	000000ac fstat
000190ec g     F .text	00000044 __lshrdi3
000378ec g     O .bss	00000004 tcp_input_pcb
0000b94c g     F .text	00000138 raw_input
0002bcf4 g     F .text	00000078 DP83848C_link_status_read
0001392c g     F .text	00000148 tcp_send_empty_ack
000243b4 g     F .text	000000d4 alt_check_primary_table
00014b54 g     F .text	00000124 tcp_rexmit_fast
0001f360 g     F .text	0000012c __pow5mult
00037914 g     O .bss	00000004 __nlocale_changed
00021838 g     F .text	00000008 __umodsi3
00022bc4 g     F .text	00000064 alt_flash_cfi_read
000232f8 g     F .text	00000038 alt_write_native_8bit
00006f7c g     F .text	00000424 ipaddr_aton
00006da8 g     F .text	000000cc ip4_addr_isbroadcast
00009db8 g     F .text	00000028 netif_set_default
00015d28 g     F .text	00000040 udp_recv
00026274 g     F .text	0000007c alt_avalon_sgdma_construct_mem_to_stream_desc
00026378 g     F .text	00000050 alt_avalon_sgdma_register_callback
00081218 g       *ABS*	00000000 end
00023158 g     F .text	00000074 alt_write_flash_command_16bit_device_8bit_mode
00025708 g     F .text	000004e4 altera_avalon_lcd_16207_write
00000c38 g     F .text	0000006c httpd_init
00009e70 g     F .text	00000074 netif_set_down
0000a074 g     F .text	00000544 pbuf_alloc
00009ee4 g     F .text	000000a4 netif_set_link_up
0002c520 g     F .text	00000200 altera_avalon_uart_write
00027100 g     F .text	000001e4 alt_tse_phy_add_profile
0002367c g     F .text	000005c8 alt_read_cfi_table
000245ec g     F .text	000000c0 altera_avalon_jtag_uart_init
0002e2fc g       *ABS*	00000000 __CTOR_LIST__
02000000 g       *ABS*	00000000 __alt_stack_pointer
00026630 g     F .text	00000060 alt_avalon_sgdma_disable_desc_poll
00026bfc g     F .text	00000088 alt_avalon_timer_sc_init
0002bdcc g     F .text	00000060 altera_avalon_uart_write_fd
00018c48 g     F .text	000000ac __clzsi2
0002be2c g     F .text	00000050 altera_avalon_uart_close_fd
00024cf4 g     F .text	00000250 altera_avalon_jtag_uart_write
000260b4 g     F .text	00000070 alt_avalon_sgdma_construct_mem_to_mem_desc
000227fc g     F .text	00000090 alt_flash_cfi_init
0001d68c g     F .text	00000004 __sfp_lock_acquire
0001eb24 g     F .text	000000f8 memchr
000355d4 g     O .rwdata	00000004 ip_addr_broadcast
000198d0 g     F .text	00001df8 ___vfprintf_internal_r
0000758c g     F .text	0000009c ip_reass_tmr
000261a4 g     F .text	0000005c alt_avalon_sgdma_construct_stream_to_mem_desc
0002f010 g     O .rodata	00000010 file_404_html
0001d808 g     F .text	000002d0 _free_r
00015bd4 g     F .text	00000108 udp_connect
0002e120 g     F .text	000001a0 __call_exitprocs
00001e30 g     F .text	00000150 print_hist
00037888 g     O .bss	00000004 current_header
000015c4 g     F .text	00000094 tse_sgdmaRx_isr
00017fac g     F .text	000000c4 lwipProcessTimers
00037910 g     O .bss	00000004 __mlocale_changed
000017c8 g     F .text	000001a4 tse_mac_rcv
000099ec g     F .text	00000058 netif_set_addr
00002f90 g     F .text	0000009c dhcp_arp_reply
00035604 g     O .rwdata	00000004 __malloc_sbrk_base
00000020 g     F .text	0000007c _start
00037934 g     O .bss	00000004 _alt_tick_rate
0000b8a8 g     F .text	000000a4 pbuf_strstr
000264d8 g     F .text	00000050 alt_avalon_sgdma_open
000095f8 g     F .text	000001dc memp_malloc
0001f48c g     F .text	0000015c __lshift
00014dbc g     F .text	0000021c tcp_zero_window_probe
00037938 g     O .bss	00000004 _alt_nticks
00028eb0 g     F .text	000000cc alt_tse_phy_rd_mdio_reg
00021ff0 g     F .text	000000f0 read
0002268c g     F .text	00000138 alt_sys_init
00002470 g     F .text	000000bc dhcp_fine_tmr
0008086c g     O .bss	0000000a dhcp_rx_options_given
0002dff0 g     F .text	00000130 __register_exitproc
00037944 g     O .bss	00000001 phy_profile_count
000197a0 g     F .text	000000fc strncmp
00027f38 g     F .text	00000074 alt_tse_get_mac_group_index
00023094 g     F .text	00000040 alt_read_query_entry_16bit
00022140 g     F .text	00000040 alt_remap_uncached
000073dc g     F .text	000001b0 ipaddr_ntoa_r
0001f180 g     F .text	000001e0 __multiply
00024954 g     F .text	00000068 altera_avalon_jtag_uart_close
0003342c g       *ABS*	00000000 __ram_rwdata_start
0002e2fc g       *ABS*	00000000 __ram_rodata_start
00045dc4 g     O .bss	00000028 __malloc_current_mallinfo
000378c8 g     O .bss	00000004 tcp_bound_pcbs
0002339c g     F .text	000001c4 alt_set_flash_width_func
0001f990 g     F .text	00000144 __d2b
0000da08 g     F .text	00000058 tcp_seg_free
0000b6c0 g     F .text	00000120 pbuf_memcmp
00028d2c g     F .text	00000058 alt_tse_phy_wr_mdio_addr
00024488 g     F .text	00000060 altera_avalon_jtag_uart_read_fd
0002dda8 g     F .text	000000b4 alt_get_fd
0002cbcc g     F .text	00000128 alt_busy_sleep
0001901c g     F .text	000000d0 __fpcmp_parts_d
0000be58 g     F .text	0000001c tcp_init
0000cc18 g     F .text	000002ac tcp_connect
00005eb0 g     F .text	00000260 inet_chksum_pseudo_partial
00020618 g     F .text	00000064 _close_r
00008fcc g     F .text	000003f8 mem_malloc
0002b1c4 g     F .text	00000328 alt_tse_phy_get_common_speed
0002d464 g     F .text	00000210 alt_erase_block_amd
00019174 g     F .text	0000007c memcmp
00024548 g     F .text	00000050 altera_avalon_jtag_uart_close_fd
00081218 g       *ABS*	00000000 __alt_stack_base
00024598 g     F .text	00000054 altera_avalon_jtag_uart_ioctl_fd
00037945 g     O .bss	00000001 mac_group_count
00009f88 g     F .text	00000050 netif_set_link_down
000035b0 g     F .text	00000150 dhcp_renew
0001b844 g     F .text	00000174 __swsetup_r
00023c44 g     F .text	00000770 alt_read_cfi_width
0000150c g     F .text	000000b8 tse_sgdma_read_init
000187e0 g     F .text	000001b4 __divdf3
0001d590 g     F .text	000000fc __sfp
0001fbec g     F .text	0000007c __copybits
0000e3cc g     F .text	00000084 tcp_eff_send_mss
00033a78 g     O .rwdata	00000408 __malloc_av_
0001d698 g     F .text	00000004 __sinit_lock_release
000184fc g     F .text	000002e4 __muldf3
000203b0 g     F .text	00000054 __sread
00029ac0 g     F .text	0000041c alt_tse_mac_get_phy
0002dc94 g     F .text	00000114 alt_find_file
0002cd84 g     F .text	000000a0 alt_dev_llist_insert
00021f60 g     F .text	00000020 __malloc_lock
00022180 g     F .text	00000108 sbrk
000263c8 g     F .text	00000054 alt_avalon_sgdma_start
00002d3c g     F .text	000001ac dhcp_inform
0001d1dc g     F .text	000001e8 _fflush_r
000281e4 g     F .text	0000008c alt_tse_mac_set_duplex
0002055c g     F .text	000000bc _calloc_r
0000bacc g     F .text	00000048 raw_connect
00035640 g     O .rwdata	00000008 alt_flash_dev_list
00023218 g     F .text	00000048 alt_write_flash_command_16bit_device_16bit_mode
0003786c g       *ABS*	00000000 __bss_start
000192e8 g     F .text	000000dc memset
00017d5c g     F .text	00000250 main
00037930 g     O .bss	00000004 alt_envp
00037918 g     O .bss	00000004 __malloc_max_total_mem
000244e8 g     F .text	00000060 altera_avalon_jtag_uart_write_fd
0001b828 g     F .text	0000001c __swbuf
00005968 g     F .text	00000044 icmp_dest_unreach
00025c98 g     F .text	00000138 altera_avalon_lcd_16207_init
00035634 g     O .rwdata	00000008 alt_sgdma_list
0000df90 g     F .text	0000006c tcp_sent
000204e8 g     F .text	00000008 __sclose
0000b610 g     F .text	000000b0 pbuf_get_at
02000000 g       *ABS*	00000000 __alt_heap_limit
000207b8 g     F .text	00000014 fclose
00037870 g     O .bss	00000004 printed_flg
00026c84 g     F .text	00000088 alt_timestamp_start
00081088 g     O .bss	00000190 _atexit0
0001bbc0 g     F .text	0000161c _dtoa_r
0001e3a0 g     F .text	00000784 _malloc_r
0000bdbc g     F .text	00000080 raw_new
00026fd4 g     F .text	00000088 tse_mac_SwReset
00000334 g     F .text	000000e4 ethernetif_input
00035620 g     O .rwdata	00000004 alt_errno
000232ac g     F .text	0000004c alt_write_flash_command_32bit_device_32bit_mode
0001dfbc g     F .text	000000a8 _fwalk
00022c28 g     F .text	00000158 alt_write_value_to_flash
00023330 g     F .text	00000038 alt_write_native_16bit
000194e8 g     F .text	000000f0 putc
00021784 g     F .text	00000050 __divsi3
00027e84 g     F .text	00000048 alt_tse_mac_set_common_speed
0000bd20 g     F .text	0000009c raw_remove
00031224 g     O .rodata	00000014 __thenan_df
0001d6cc g     F .text	0000013c _malloc_trim_r
0002e2fc g       *ABS*	00000000 __CTOR_END__
000378ac g     O .bss	00000001 pbuf_free_ooseq_pending
00015a74 g     F .text	00000160 udp_bind
00037948 g     O .bss	00000004 alt_vic_dev_list
0000be74 g     F .text	00000048 tcp_tmr
00017310 g     F .text	0000048c etharp_query
00019670 g     F .text	000000a4 strcmp
000053c0 g     F .text	0000003c lwip_init
0002e2fc g       *ABS*	00000000 __flash_rodata_start
0002e2fc g       *ABS*	00000000 __DTOR_LIST__
00016fd0 g     F .text	00000340 etharp_output
0003786c g     O .bss	00000004 measuring_flg
00021520 g     F .text	0000005c __nedf2
0002264c g     F .text	00000040 alt_irq_init
00027e44 g     F .text	00000040 alt_tse_mac_get_common_speed
000220e0 g     F .text	00000060 alt_release_fd
00009d30 g     F .text	00000044 netif_set_gw
00031238 g     O .rodata	00000100 __clz_tab
0000ac00 g     F .text	0000004c pbuf_clen
0003790c g     O .bss	00000004 _PathLocale
0002dee8 g     F .text	00000014 atexit
000204f0 g     F .text	0000006c _write_r
0000da60 g     F .text	00000034 tcp_setprio
000156a0 g     F .text	00000054 udp_send
0001e1d0 g     F .text	0000001c setlocale
0000b558 g     F .text	000000b8 pbuf_coalesce
0000bb14 g     F .text	00000040 raw_recv
00009a44 g     F .text	000000d8 netif_remove
000355fc g     O .rwdata	00000004 _impure_ptr
00037928 g     O .bss	00000004 alt_argc
0000cec4 g     F .text	000008ac tcp_slowtmr
0003793c g     O .bss	00000004 altera_avalon_timer_ts_base
0002ce80 g     F .text	0000005c _do_dtors
0002c938 g     F .text	0000013c alt_vic_irq_init
0001f7e8 g     F .text	00000060 __ulp
000202e8 g     F .text	00000038 __isinfd
0000e068 g     F .text	00000030 tcp_accept
0001d6b4 g     F .text	00000018 __fp_unlock_all
00025dd0 g     F .text	00000060 altera_avalon_lcd_16207_write_fd
00000418 g     F .text	00000178 ethernetif_init
0003560c g     O .rwdata	00000008 alt_fs_list
000231cc g     F .text	0000004c alt_write_flash_command_32bit_device_8bit_mode
00000020 g       *ABS*	00000000 __ram_exceptions_start
0001e1ec g     F .text	0000000c localeconv
00026d0c g     F .text	00000090 alt_timestamp
0a000000 g       *ABS*	00000000 __alt_mem_onchip_memory2
000355c8 g     O .rwdata	00000004 histid
000378cc g     O .bss	00000004 tcp_tw_pcbs
0002b01c g     F .text	000001a8 alt_tse_phy_set_adv_10
0002ca74 g     F .text	00000158 alt_ic_isr_register
000150bc g     F .text	000005e4 udp_input
0003564c g       *ABS*	00000000 _edata
0002bd6c g     F .text	00000060 altera_avalon_uart_read_fd
00081218 g       *ABS*	00000000 _end
0002cf6c g     F .text	00000068 alt_flash_open_dev
00029edc g     F .text	00000240 alt_tse_mac_associate_phy
000098cc g     F .text	0000001c netif_init
00001bec g     F .text	000000ac begin_measure
00000020 g       *ABS*	00000000 __ram_exceptions_end
000249bc g     F .text	000000f4 altera_avalon_jtag_uart_ioctl
00006260 g     F .text	000000e8 ip_route
0003794c g     O .bss	00000fa4 histarea
0000c718 g     F .text	000001d8 tcp_listen_with_backlog
00080ef4 g     O .bss	0000011e lwip_stats
0000a83c g     F .text	000001f8 pbuf_header
000378a8 g     O .bss	00000004 netif_default
0000e1f4 g     F .text	000001a8 tcp_pcb_remove
00037908 g     O .bss	00000004 lwipStaticIp
00026528 g     F .text	00000088 alt_avalon_sgdma_construct_descriptor
00020404 g     F .text	00000088 __swrite
00035608 g     O .rwdata	00000004 __malloc_trim_threshold
0000adcc g     F .text	00000040 pbuf_chain
0002defc g     F .text	00000038 exit
0000c398 g     F .text	00000190 tcp_abandon
0000e450 g     F .text	0000003c tcp_debug_state_str
00014fd8 g     F .text	0000001c tcp_timer_needed
0001e064 g     F .text	000000b8 _fwalk_reent
0000943c g     F .text	000001bc memp_init
000029ac g     F .text	000000d0 dhcp_set_struct
0001f640 g     F .text	000001a8 __mdiff
000093c4 g     F .text	00000078 mem_calloc
0000d770 g     F .text	000000f8 tcp_fasttmr
0002cfd4 g     F .text	00000050 alt_flash_close_dev
000217d4 g     F .text	0000005c __modsi3
0000d868 g     F .text	00000150 tcp_process_refused_data
000270b0 g     F .text	00000050 tse_mac_setGMIImode
0002ba3c g     F .text	000000e4 marvell_cfg_gmii
02000000 g       *ABS*	00000000 __alt_data_end
0001d690 g     F .text	00000004 __sfp_lock_release
00000000 g       *ABS*	00000000 __alt_mem_sdram
0002a11c g     F .text	00000128 alt_tse_phy_cfg_pcs
00080878 g     O .bss	00000028 dhcp_rx_options_val
000331a8 g     O .rodata	00000101 _ctype_
04000000 g       *ABS*	00000000 __alt_mem_ext_flash
0002c1d0 g     F .text	00000054 altera_avalon_uart_close
0002e2c0 g     F .text	0000003c _exit
00020320 g     F .text	0000002c __isnand
000023bc g     F .text	000000b4 dhcp_coarse_tmr
00021840 g     F .text	0000016c alt_alarm_start
0000da94 g     F .text	00000068 tcp_seg_copy
00018be8 g     F .text	00000060 __muldi3
0001e1f8 g     F .text	000001a8 __smakebuf_r
00023368 g     F .text	00000034 alt_write_native_32bit
0000e098 g     F .text	00000080 tcp_poll
00019714 g     F .text	0000008c strlen
0002d2a8 g     F .text	00000154 open
00014ff4 g     F .text	0000001c udp_init
000808a0 g     O .bss	00000654 ram_heap
00018994 g     F .text	00000064 __gedf2
00015e04 g     F .text	00000058 udp_new
00022b38 g     F .text	0000008c alt_flash_cfi_get_info
0002d024 g     F .text	00000030 alt_icache_flush_all
00026f30 g     F .text	000000a4 tse_mac_aRxRead
000355ea g     O .rwdata	00000006 ethbroadcast
00030420 g     O .rodata	0000000d tcp_backoff
0001b6c8 g     F .text	00000024 __vfprintf_internal
0002c274 g     F .text	0000025c altera_avalon_uart_read
00037874 g     O .bss	00000004 timestamp_freq
00028104 g     F .text	000000e0 alt_tse_mac_set_speed
00026124 g     F .text	00000080 alt_avalon_sgdma_construct_mem_to_mem_desc_burst
0001849c g     F .text	00000060 __subdf3
0001f094 g     F .text	000000b0 __lo0bits
00035628 g     O .rwdata	00000008 alt_alarm_list
0002ce24 g     F .text	0000005c _do_ctors
0002add4 g     F .text	00000248 alt_tse_phy_set_adv_100
0000e48c g     F .text	00000d18 tcp_input
000219fc g     F .text	000000c8 close
0002d3fc g     F .text	00000068 alt_program_amd
00006348 g     F .text	0000050c ip_input
00021d48 g     F .text	00000080 alt_load
000355f0 g     O .rwdata	00000006 ethzero
00018cf4 g     F .text	00000224 __pack_d
0000be3c g     F .text	0000001c stats_init
00027ecc g     F .text	0000006c alt_tse_get_system_index
00026ab8 g     F .text	000000a4 alt_avalon_sgdma_init
0002df48 g     F .text	00000014 free
00009b1c g     F .text	000000e0 netif_find
0001d694 g     F .text	00000004 __sinit_lock_acquire
0001ee14 g     F .text	00000114 __multadd
0001edec g     F .text	00000028 _Bfree
00026dc4 g     F .text	0000002c no_printf
00001c98 g     F .text	00000198 end_measure
0000ae0c g     F .text	0000012c pbuf_dechain



Disassembly of section .entry:

05000000 <__reset>:
#if NIOS2_ICACHE_SIZE > 0 && defined(ALT_ALLOW_CODE_AT_RESET) && !defined(ALT_SIM_OPTIMIZE)
    /* Assume the instruction cache size is always a power of two. */
#if NIOS2_ICACHE_SIZE > 0x8000
    movhi r2, %hi(NIOS2_ICACHE_SIZE)
#else
    movui r2, NIOS2_ICACHE_SIZE
 5000000:	00840014 	movui	r2,4096
#endif

0:
    initi r2
 5000004:	1001483a 	initi	r2
    addi r2, r2, -NIOS2_ICACHE_LINE_SIZE
 5000008:	10bff804 	addi	r2,r2,-32
    bgt r2, zero, 0b
 500000c:	00bffd16 	blt	zero,r2,5000004 <__reset+0x4>
 * Jump to the _start entry point in the .text section if reset code
 * is allowed or if optimizing for RTL simulation.
 */
#if defined(ALT_ALLOW_CODE_AT_RESET) || defined(ALT_SIM_OPTIMIZE)
    /* Jump to the _start entry point in the .text section. */
    movhi r1, %hi(_start)
 5000010:	00400034 	movhi	at,0
    ori r1, r1, %lo(_start)
 5000014:	08400814 	ori	at,at,32
    jmp r1
 5000018:	0800683a 	jmp	at
 500001c:	00000000 	call	0 <__alt_mem_sdram>

Disassembly of section .text:

00000020 <_start>:
     * writing zero to SSTATUS register and executing an ERET instruction
     * to set STATUS.CRS to 0.
     */
    
    /* Get the current register set number (STATUS.CRS). */
    rdctl r2, status
      20:	0005303a 	rdctl	r2,status
    andi r2, r2, NIOS2_STATUS_CRS_MSK
      24:	10bf000c 	andi	r2,r2,64512
    
    /* Skip switching register set if STATUS.CRS is 0.  */
    beq r2, zero, 0f
      28:	10000426 	beq	r2,zero,3c <_start+0x1c>

    /* Set SSTATUS to 0 to get to set SSTATUS.PRS to 0. */
    .set nobreak
    movui sstatus, 0
      2c:	07800014 	movui	ba,0
    .set break

    /* Switch to register set 0 and jump to label. */
    movhi ea, %hi(0f)
      30:	07400034 	movhi	ea,0
    ori ea, ea, %lo(0f)
      34:	ef400f14 	ori	ea,ea,60
    eret
      38:	ef80083a 	eret

    /*
     * Now that the caches are initialized, set up the stack pointer and global pointer.
     * The values provided by the linker are assumed to be correctly aligned.
     */
    movhi sp, %hi(__alt_stack_pointer)
      3c:	06c08034 	movhi	sp,512
    ori sp, sp, %lo(__alt_stack_pointer)
      40:	dec00014 	ori	sp,sp,0
    movhi gp, %hi(_gp)
      44:	068000f4 	movhi	gp,3
    ori gp, gp, %lo(_gp)
      48:	d6b57214 	ori	gp,gp,54728
    /* 
     * Setup registers in shadow register sets
     * from 1 to NIOS2_NUM_OF_SHADOW_REG_SETS.
     */

    movui r2, 0     /* Contains value written into STATUS */
      4c:	00800014 	movui	r2,0
    movui r3, NIOS2_NUM_OF_SHADOW_REG_SETS  /* counter */
      50:	00c00054 	movui	r3,1
    movhi r4, 1     /* Constant to increment STATUS.PRS */
      54:	01000074 	movhi	r4,1
    
.Linitialize_shadow_registers:
    /* Increment STATUS.PRS */
    add r2, r2, r4
      58:	1105883a 	add	r2,r2,r4
    wrctl status, r2
      5c:	1001703a 	wrctl	status,r2

    /* Clear r0 in the shadow register set (not done by hardware) */
    wrprs r0, r0
      60:	0000a03a 	wrprs	zero,zero

    /* Write the GP in previous register set */
    wrprs gp, gp
      64:	d034a03a 	wrprs	gp,gp
    wrprs r30, r0    /* ba */
    wrprs r31, r0    /* ra */
#endif /* NIOS2_ECC_PRESENT */

    /* Decrement shadow register set counter */
    addi r3, r3, -1
      68:	18ffffc4 	addi	r3,r3,-1

    /* Done if index is 0. */
    bne r3, zero, .Linitialize_shadow_registers
      6c:	183ffa1e 	bne	r3,zero,58 <_start+0x38>
 */
#ifndef ALT_SIM_OPTIMIZE
    /* Log that the BSS is about to be cleared. */
    ALT_LOG_PUTS(alt_log_msg_bss)

    movhi r2, %hi(__bss_start)
      70:	008000f4 	movhi	r2,3
    ori r2, r2, %lo(__bss_start)
      74:	109e1b14 	ori	r2,r2,30828

    movhi r3, %hi(__bss_end)
      78:	00c00234 	movhi	r3,8
    ori r3, r3, %lo(__bss_end)
      7c:	18c48614 	ori	r3,r3,4632

    beq r2, r3, 1f
      80:	10c00326 	beq	r2,r3,90 <_start+0x70>

0:
    stw zero, (r2)
      84:	10000015 	stw	zero,0(r2)
    addi r2, r2, 4
      88:	10800104 	addi	r2,r2,4
    bltu r2, r3, 0b
      8c:	10fffd36 	bltu	r2,r3,84 <_start+0x64>
     * section aren't defined until alt_load() has been called).
     */
    mov   et, zero
#endif

    call alt_load
      90:	0021d480 	call	21d48 <alt_load>

    /* Log that alt_main is about to be called. */
    ALT_LOG_PUTS(alt_log_msg_alt_main)

    /* Call the C entry point. It should never return. */
    call alt_main
      94:	0021ee80 	call	21ee8 <alt_main>

00000098 <alt_after_alt_main>:

    /* Wait in infinite loop in case alt_main does return. */
alt_after_alt_main:
    br alt_after_alt_main
      98:	003fff06 	br	98 <alt_after_alt_main>

0000009c <low_level_init>:
 * @param netif the already initialized lwip network interface structure
 *        for this ethernetif
 */
static void
low_level_init(struct netif *netif)
{
      9c:	defffc04 	addi	sp,sp,-16
      a0:	dfc00315 	stw	ra,12(sp)
      a4:	df000215 	stw	fp,8(sp)
      a8:	df000204 	addi	fp,sp,8
      ac:	e13fff15 	stw	r4,-4(fp)
  struct ethernetif *ethernetif = netif->state;
      b0:	e0bfff17 	ldw	r2,-4(fp)
      b4:	10800717 	ldw	r2,28(r2)
      b8:	e0bffe15 	stw	r2,-8(fp)
  
  /* set MAC hardware address length */
  netif->hwaddr_len = ETHARP_HWADDR_LEN;
      bc:	e0bfff17 	ldw	r2,-4(fp)
      c0:	00c00184 	movi	r3,6
      c4:	10c00985 	stb	r3,38(r2)

  /* maximum transfer unit */
  netif->mtu = 1500;
      c8:	e0bfff17 	ldw	r2,-4(fp)
      cc:	00c17704 	movi	r3,1500
      d0:	10c0090d 	sth	r3,36(r2)
  
  /* device capabilities */
  /* don't set NETIF_FLAG_ETHARP if this device is not an ethernet one */
  netif->flags = NETIF_FLAG_BROADCAST | NETIF_FLAG_ETHARP | NETIF_FLAG_LINK_UP;
      d4:	e0bfff17 	ldw	r2,-4(fp)
      d8:	00c00c84 	movi	r3,50
      dc:	10c00b45 	stb	r3,45(r2)
  
  tse_mac_init(0, ethernetif) != 0;
      e0:	0009883a 	mov	r4,zero
      e4:	e17ffe17 	ldw	r5,-8(fp)
      e8:	0000ca40 	call	ca4 <tse_mac_init>
}
      ec:	e037883a 	mov	sp,fp
      f0:	dfc00117 	ldw	ra,4(sp)
      f4:	df000017 	ldw	fp,0(sp)
      f8:	dec00204 	addi	sp,sp,8
      fc:	f800283a 	ret

00000100 <low_level_input>:
 * @return a pbuf filled with the received packet (including MAC header)
 *         NULL on memory error
 */
static struct pbuf *
low_level_input(struct netif *netif)
{
     100:	defff604 	addi	sp,sp,-40
     104:	dfc00915 	stw	ra,36(sp)
     108:	df000815 	stw	fp,32(sp)
     10c:	df000804 	addi	fp,sp,32
     110:	e13fff15 	stw	r4,-4(fp)
  struct ethernetif *ethernetif = netif->state;
     114:	e0bfff17 	ldw	r2,-4(fp)
     118:	10800717 	ldw	r2,28(r2)
     11c:	e0bff915 	stw	r2,-28(fp)
  struct pbuf *p, *nextPkt;
  u32_t cpu_sr;

    if(ethernetif->lwipRxCount == 0)
     120:	e0bff917 	ldw	r2,-28(fp)
     124:	10801517 	ldw	r2,84(r2)
     128:	1000021e 	bne	r2,zero,134 <low_level_input+0x34>
        return NULL;
     12c:	0005883a 	mov	r2,zero
     130:	00007b06 	br	320 <low_level_input+0x220>
    //  Dump current packet if there is no memory for the next packet.
    //  The lwipRxPbuf must contain pointers to pbufs at all times.
    nextPkt = pbuf_alloc(PBUF_RAW,  PBUF_POOL_BUFSIZE, PBUF_POOL);
     134:	010000c4 	movi	r4,3
     138:	01417b04 	movi	r5,1516
     13c:	018000c4 	movi	r6,3
     140:	000a0740 	call	a074 <pbuf_alloc>
     144:	e0bffa15 	stw	r2,-24(fp)
    if(nextPkt == NULL)
     148:	e0bffa17 	ldw	r2,-24(fp)
     14c:	1000121e 	bne	r2,zero,198 <low_level_input+0x98>
        {
        LINK_STATS_INC(link.memerr);
     150:	00800234 	movhi	r2,8
     154:	1083bd04 	addi	r2,r2,3828
     158:	1080030b 	ldhu	r2,12(r2)
     15c:	10800044 	addi	r2,r2,1
     160:	1007883a 	mov	r3,r2
     164:	00800234 	movhi	r2,8
     168:	1083bd04 	addi	r2,r2,3828
     16c:	10c0030d 	sth	r3,12(r2)
        LINK_STATS_INC(link.drop);
     170:	00800234 	movhi	r2,8
     174:	1083bd04 	addi	r2,r2,3828
     178:	1080018b 	ldhu	r2,6(r2)
     17c:	10800044 	addi	r2,r2,1
     180:	1007883a 	mov	r3,r2
     184:	00800234 	movhi	r2,8
     188:	1083bd04 	addi	r2,r2,3828
     18c:	10c0018d 	sth	r3,6(r2)
        return NULL;
     190:	0005883a 	mov	r2,zero
     194:	00006206 	br	320 <low_level_input+0x220>
        }
    nextPkt = (void *) alt_remap_uncached(nextPkt,sizeof *nextPkt);
     198:	e13ffa17 	ldw	r4,-24(fp)
     19c:	01400404 	movi	r5,16
     1a0:	00221400 	call	22140 <alt_remap_uncached>
     1a4:	e0bffa15 	stw	r2,-24(fp)
    nextPkt->payload = (void *) alt_remap_uncached(nextPkt->payload, PBUF_POOL_BUFSIZE);
     1a8:	e0bffa17 	ldw	r2,-24(fp)
     1ac:	10800117 	ldw	r2,4(r2)
     1b0:	1009883a 	mov	r4,r2
     1b4:	01417b04 	movi	r5,1516
     1b8:	00221400 	call	22140 <alt_remap_uncached>
     1bc:	e0fffa17 	ldw	r3,-24(fp)
     1c0:	18800115 	stw	r2,4(r3)
static ALT_INLINE alt_irq_context ALT_ALWAYS_INLINE 
       alt_irq_disable_all (void)
{
  alt_irq_context context;

  NIOS2_READ_STATUS (context);
     1c4:	0005303a 	rdctl	r2,status
     1c8:	e0bffc15 	stw	r2,-16(fp)

  NIOS2_WRITE_STATUS (context & ~NIOS2_STATUS_PIE_MSK);
     1cc:	e0fffc17 	ldw	r3,-16(fp)
     1d0:	00bfff84 	movi	r2,-2
     1d4:	1884703a 	and	r2,r3,r2
     1d8:	1001703a 	wrctl	status,r2
  
  return context;
     1dc:	e0bffc17 	ldw	r2,-16(fp)
    cpu_sr = alt_irq_disable_all();
     1e0:	e0bffb15 	stw	r2,-20(fp)
    --ethernetif->lwipRxCount;
     1e4:	e0bff917 	ldw	r2,-28(fp)
     1e8:	10801517 	ldw	r2,84(r2)
     1ec:	10ffffc4 	addi	r3,r2,-1
     1f0:	e0bff917 	ldw	r2,-28(fp)
     1f4:	10c01515 	stw	r3,84(r2)
    alt_irq_enable_all(cpu_sr);
     1f8:	e0bffb17 	ldw	r2,-20(fp)
     1fc:	e0bffd15 	stw	r2,-12(fp)
{
#if (NIOS2_NUM_OF_SHADOW_REG_SETS > 0) || (defined NIOS2_EIC_PRESENT) || \
    (defined NIOS2_MMU_PRESENT) || (defined NIOS2_MPU_PRESENT)
  alt_irq_context status;
  
  NIOS2_READ_STATUS (status);
     200:	0005303a 	rdctl	r2,status
     204:	e0bffe15 	stw	r2,-8(fp)
  
  status &= ~NIOS2_STATUS_PIE_MSK;
     208:	e0fffe17 	ldw	r3,-8(fp)
     20c:	00bfff84 	movi	r2,-2
     210:	1884703a 	and	r2,r3,r2
     214:	e0bffe15 	stw	r2,-8(fp)
  status |= (context & NIOS2_STATUS_PIE_MSK);
     218:	e0bffd17 	ldw	r2,-12(fp)
     21c:	1080004c 	andi	r2,r2,1
     220:	e0fffe17 	ldw	r3,-8(fp)
     224:	1884b03a 	or	r2,r3,r2
     228:	e0bffe15 	stw	r2,-8(fp)
  
  NIOS2_WRITE_STATUS (status);
     22c:	e0bffe17 	ldw	r2,-8(fp)
     230:	1001703a 	wrctl	status,r2
    p = ethernetif->lwipRxPbuf[ ethernetif->lwipRxIndex ];
     234:	e0bff917 	ldw	r2,-28(fp)
     238:	10801417 	ldw	r2,80(r2)
     23c:	e0fff917 	ldw	r3,-28(fp)
     240:	108001c4 	addi	r2,r2,7
     244:	1085883a 	add	r2,r2,r2
     248:	1085883a 	add	r2,r2,r2
     24c:	1885883a 	add	r2,r3,r2
     250:	10800017 	ldw	r2,0(r2)
     254:	e0bff815 	stw	r2,-32(fp)
    ethernetif->lwipRxPbuf[ ethernetif->lwipRxIndex ] = nextPkt;
     258:	e0bff917 	ldw	r2,-28(fp)
     25c:	10801417 	ldw	r2,80(r2)
     260:	e0fff917 	ldw	r3,-28(fp)
     264:	108001c4 	addi	r2,r2,7
     268:	1085883a 	add	r2,r2,r2
     26c:	1085883a 	add	r2,r2,r2
     270:	1885883a 	add	r2,r3,r2
     274:	e0fffa17 	ldw	r3,-24(fp)
     278:	10c00015 	stw	r3,0(r2)
    if(++ethernetif->lwipRxIndex >= LWIP_RX_ETH_BUFFER)
     27c:	e0bff917 	ldw	r2,-28(fp)
     280:	10801417 	ldw	r2,80(r2)
     284:	10c00044 	addi	r3,r2,1
     288:	e0bff917 	ldw	r2,-28(fp)
     28c:	10c01415 	stw	r3,80(r2)
     290:	e0bff917 	ldw	r2,-28(fp)
     294:	10801417 	ldw	r2,80(r2)
     298:	10800310 	cmplti	r2,r2,12
     29c:	1000021e 	bne	r2,zero,2a8 <low_level_input+0x1a8>
        ethernetif->lwipRxIndex = 0;
     2a0:	e0bff917 	ldw	r2,-28(fp)
     2a4:	10001415 	stw	zero,80(r2)
    LWIP_ASSERT("low_level_input: pbuf in rx buffer is NULL", p != NULL );
     2a8:	e0bff817 	ldw	r2,-32(fp)
     2ac:	1000091e 	bne	r2,zero,2d4 <low_level_input+0x1d4>
     2b0:	010000f4 	movhi	r4,3
     2b4:	2138bf04 	addi	r4,r4,-7428
     2b8:	014000f4 	movhi	r5,3
     2bc:	2978c904 	addi	r5,r5,-7388
     2c0:	01801e44 	movi	r6,121
     2c4:	01c000f4 	movhi	r7,3
     2c8:	39f8d404 	addi	r7,r7,-7344
     2cc:	00193f00 	call	193f0 <printf>
     2d0:	003fff06 	br	2d0 <low_level_input+0x1d0>
    LWIP_ASSERT("low_level_input: pbuf->len in rx buffer is 0", p->len != 0 );
     2d4:	e0bff817 	ldw	r2,-32(fp)
     2d8:	1080028b 	ldhu	r2,10(r2)
     2dc:	10bfffcc 	andi	r2,r2,65535
     2e0:	1000091e 	bne	r2,zero,308 <low_level_input+0x208>
     2e4:	010000f4 	movhi	r4,3
     2e8:	2138bf04 	addi	r4,r4,-7428
     2ec:	014000f4 	movhi	r5,3
     2f0:	2978dc04 	addi	r5,r5,-7312
     2f4:	01801e84 	movi	r6,122
     2f8:	01c000f4 	movhi	r7,3
     2fc:	39f8d404 	addi	r7,r7,-7344
     300:	00193f00 	call	193f0 <printf>
     304:	003fff06 	br	304 <low_level_input+0x204>
    if( p->len == 0 )
     308:	e0bff817 	ldw	r2,-32(fp)
     30c:	1080028b 	ldhu	r2,10(r2)
     310:	10bfffcc 	andi	r2,r2,65535
     314:	1000011e 	bne	r2,zero,31c <low_level_input+0x21c>
        p = NULL;
     318:	e03ff815 	stw	zero,-32(fp)
    return p;  
     31c:	e0bff817 	ldw	r2,-32(fp)
}
     320:	e037883a 	mov	sp,fp
     324:	dfc00117 	ldw	ra,4(sp)
     328:	df000017 	ldw	fp,0(sp)
     32c:	dec00204 	addi	sp,sp,8
     330:	f800283a 	ret

00000334 <ethernetif_input>:
 *
 * @param netif the lwip network interface structure for this ethernetif
 */
void
ethernetif_input(struct netif *netif)
{
     334:	defffa04 	addi	sp,sp,-24
     338:	dfc00515 	stw	ra,20(sp)
     33c:	df000415 	stw	fp,16(sp)
     340:	df000404 	addi	fp,sp,16
     344:	e13fff15 	stw	r4,-4(fp)
  struct ethernetif *ethernetif;
  struct eth_hdr *ethhdr;
  struct pbuf *p;

  ethernetif = netif->state;
     348:	e0bfff17 	ldw	r2,-4(fp)
     34c:	10800717 	ldw	r2,28(r2)
     350:	e0bffc15 	stw	r2,-16(fp)

  /* move received packet into a new pbuf */
  p = low_level_input(netif);
     354:	e13fff17 	ldw	r4,-4(fp)
     358:	00001000 	call	100 <low_level_input>
     35c:	e0bffd15 	stw	r2,-12(fp)
  /* no packet could be read, silently ignore this */
  if (p == NULL) return;
     360:	e0bffd17 	ldw	r2,-12(fp)
     364:	10002426 	beq	r2,zero,3f8 <ethernetif_input+0xc4>
  /* points to packet payload, which starts with an Ethernet header */
  ethhdr = p->payload;
     368:	e0bffd17 	ldw	r2,-12(fp)
     36c:	10800117 	ldw	r2,4(r2)
     370:	e0bffe15 	stw	r2,-8(fp)

  switch (htons(ethhdr->type)) {
     374:	e0bffe17 	ldw	r2,-8(fp)
     378:	1080038b 	ldhu	r2,14(r2)
     37c:	10bfffcc 	andi	r2,r2,65535
     380:	1004d23a 	srli	r2,r2,8
     384:	10ffffcc 	andi	r3,r2,65535
     388:	e0bffe17 	ldw	r2,-8(fp)
     38c:	1080038b 	ldhu	r2,14(r2)
     390:	10bfffcc 	andi	r2,r2,65535
     394:	1004923a 	slli	r2,r2,8
     398:	10bfffcc 	andi	r2,r2,65535
     39c:	1884b03a 	or	r2,r3,r2
     3a0:	10c20020 	cmpeqi	r3,r2,2048
     3a4:	1800021e 	bne	r3,zero,3b0 <ethernetif_input+0x7c>
     3a8:	108201a0 	cmpeqi	r2,r2,2054
     3ac:	10000d26 	beq	r2,zero,3e4 <ethernetif_input+0xb0>
  /* PPPoE packet? */
  case ETHTYPE_PPPOEDISC:
  case ETHTYPE_PPPOE:
#endif /* PPPOE_SUPPORT */
    /* full packet send to tcpip_thread to process */
    if (netif->input(p, netif)!=ERR_OK)
     3b0:	e0bfff17 	ldw	r2,-4(fp)
     3b4:	10800417 	ldw	r2,16(r2)
     3b8:	e13ffd17 	ldw	r4,-12(fp)
     3bc:	e17fff17 	ldw	r5,-4(fp)
     3c0:	103ee83a 	callr	r2
     3c4:	10803fcc 	andi	r2,r2,255
     3c8:	1080201c 	xori	r2,r2,128
     3cc:	10bfe004 	addi	r2,r2,-128
     3d0:	10000b26 	beq	r2,zero,400 <ethernetif_input+0xcc>
     { LWIP_DEBUGF(NETIF_DEBUG, ("ethernetif_input: IP input error\n"));
       pbuf_free(p);
     3d4:	e13ffd17 	ldw	r4,-12(fp)
     3d8:	000aa340 	call	aa34 <pbuf_free>
       p = NULL;
     3dc:	e03ffd15 	stw	zero,-12(fp)
     }
    break;
     3e0:	00000706 	br	400 <ethernetif_input+0xcc>

  default:
    pbuf_free(p);
     3e4:	e13ffd17 	ldw	r4,-12(fp)
     3e8:	000aa340 	call	aa34 <pbuf_free>
    p = NULL;
     3ec:	e03ffd15 	stw	zero,-12(fp)
    break;
     3f0:	0001883a 	nop
     3f4:	00000306 	br	404 <ethernetif_input+0xd0>
  ethernetif = netif->state;

  /* move received packet into a new pbuf */
  p = low_level_input(netif);
  /* no packet could be read, silently ignore this */
  if (p == NULL) return;
     3f8:	0001883a 	nop
     3fc:	00000106 	br	404 <ethernetif_input+0xd0>
    if (netif->input(p, netif)!=ERR_OK)
     { LWIP_DEBUGF(NETIF_DEBUG, ("ethernetif_input: IP input error\n"));
       pbuf_free(p);
       p = NULL;
     }
    break;
     400:	0001883a 	nop
  default:
    pbuf_free(p);
    p = NULL;
    break;
  }
}
     404:	e037883a 	mov	sp,fp
     408:	dfc00117 	ldw	ra,4(sp)
     40c:	df000017 	ldw	fp,0(sp)
     410:	dec00204 	addi	sp,sp,8
     414:	f800283a 	ret

00000418 <ethernetif_init>:
 *         ERR_MEM if private data couldn't be allocated
 *         any other err_t on error
 */
err_t
ethernetif_init(struct netif *netif)
{
     418:	defffa04 	addi	sp,sp,-24
     41c:	dfc00515 	stw	ra,20(sp)
     420:	df000415 	stw	fp,16(sp)
     424:	df000404 	addi	fp,sp,16
     428:	e13fff15 	stw	r4,-4(fp)
  int idx;
  struct pbuf *p;
  struct ethernetif *ethernetif;
  err_t tse_mac_raw_send(struct netif *netif, struct pbuf *p);  

  LWIP_ASSERT("netif != NULL", (netif != NULL));
     42c:	e0bfff17 	ldw	r2,-4(fp)
     430:	1000091e 	bne	r2,zero,458 <ethernetif_init+0x40>
     434:	010000f4 	movhi	r4,3
     438:	2138bf04 	addi	r4,r4,-7428
     43c:	014000f4 	movhi	r5,3
     440:	2978e804 	addi	r5,r5,-7264
     444:	01803144 	movi	r6,197
     448:	01c000f4 	movhi	r7,3
     44c:	39f8d404 	addi	r7,r7,-7344
     450:	00193f00 	call	193f0 <printf>
     454:	003fff06 	br	454 <ethernetif_init+0x3c>
    
  ethernetif = mem_malloc(sizeof(struct ethernetif));
     458:	01001704 	movi	r4,92
     45c:	0008fcc0 	call	8fcc <mem_malloc>
     460:	e0bffd15 	stw	r2,-12(fp)
  if (ethernetif == NULL) {
     464:	e0bffd17 	ldw	r2,-12(fp)
     468:	1000021e 	bne	r2,zero,474 <ethernetif_init+0x5c>
    LWIP_DEBUGF(NETIF_DEBUG, ("ethernetif_init: out of memory\n"));
    return ERR_MEM;
     46c:	00bfffc4 	movi	r2,-1
     470:	00004206 	br	57c <ethernetif_init+0x164>
   * The last argument should be replaced with your link speed, in units
   * of bits per second.
   */
  NETIF_INIT_SNMP(netif, snmp_ifType_ethernet_csmacd, LINK_SPEED_OF_YOUR_NETIF_IN_BPS);

  netif->state = ethernetif;
     474:	e0bfff17 	ldw	r2,-4(fp)
     478:	e0fffd17 	ldw	r3,-12(fp)
     47c:	10c00715 	stw	r3,28(r2)
  netif->name[0] = IFNAME0;
     480:	e0bfff17 	ldw	r2,-4(fp)
     484:	00c01944 	movi	r3,101
     488:	10c00b85 	stb	r3,46(r2)
  netif->name[1] = IFNAME1;
     48c:	e0bfff17 	ldw	r2,-4(fp)
     490:	00c01b84 	movi	r3,110
     494:	10c00bc5 	stb	r3,47(r2)
  /* We directly use etharp_output() here to save a function call.
   * You can instead declare your own function an call etharp_output()
   * from it if you have to do some checks before sending (e.g. if link
   * is available...) */
  netif->output = etharp_output;
     498:	e0bfff17 	ldw	r2,-4(fp)
     49c:	00c00074 	movhi	r3,1
     4a0:	18dbf404 	addi	r3,r3,28624
     4a4:	10c00515 	stw	r3,20(r2)
  netif->linkoutput = tse_mac_raw_send;
     4a8:	e0bfff17 	ldw	r2,-4(fp)
     4ac:	00c00034 	movhi	r3,0
     4b0:	18c59604 	addi	r3,r3,5720
     4b4:	10c00615 	stw	r3,24(r2)
  
  ethernetif->ethaddr = (struct eth_addr *)&(netif->hwaddr[0]);
     4b8:	e0bfff17 	ldw	r2,-4(fp)
     4bc:	10c009c4 	addi	r3,r2,39
     4c0:	e0bffd17 	ldw	r2,-12(fp)
     4c4:	10c00015 	stw	r3,0(r2)
  
  /* initialize the rx buffer for access by the TSE ISR */
  for(idx = 0; idx < LWIP_RX_ETH_BUFFER; ++idx)
     4c8:	e03ffc15 	stw	zero,-16(fp)
     4cc:	00001f06 	br	54c <ethernetif_init+0x134>
    {
    p = pbuf_alloc(PBUF_RAW, PBUF_POOL_BUFSIZE, PBUF_POOL);
     4d0:	010000c4 	movi	r4,3
     4d4:	01417b04 	movi	r5,1516
     4d8:	018000c4 	movi	r6,3
     4dc:	000a0740 	call	a074 <pbuf_alloc>
     4e0:	e0bffe15 	stw	r2,-8(fp)
    if (p == NULL)
     4e4:	e0bffe17 	ldw	r2,-8(fp)
     4e8:	1000021e 	bne	r2,zero,4f4 <ethernetif_init+0xdc>
      return ERR_MEM;
     4ec:	00bfffc4 	movi	r2,-1
     4f0:	00002206 	br	57c <ethernetif_init+0x164>
    p = (void *) alt_remap_uncached(p,sizeof *p);
     4f4:	e13ffe17 	ldw	r4,-8(fp)
     4f8:	01400404 	movi	r5,16
     4fc:	00221400 	call	22140 <alt_remap_uncached>
     500:	e0bffe15 	stw	r2,-8(fp)
    p->payload = (void *) alt_remap_uncached(p->payload,PBUF_POOL_BUFSIZE);
     504:	e0bffe17 	ldw	r2,-8(fp)
     508:	10800117 	ldw	r2,4(r2)
     50c:	1009883a 	mov	r4,r2
     510:	01417b04 	movi	r5,1516
     514:	00221400 	call	22140 <alt_remap_uncached>
     518:	e0fffe17 	ldw	r3,-8(fp)
     51c:	18800115 	stw	r2,4(r3)
    ethernetif->lwipRxPbuf[idx] = p;
     520:	e0fffd17 	ldw	r3,-12(fp)
     524:	e0bffc17 	ldw	r2,-16(fp)
     528:	108001c4 	addi	r2,r2,7
     52c:	1085883a 	add	r2,r2,r2
     530:	1085883a 	add	r2,r2,r2
     534:	1885883a 	add	r2,r3,r2
     538:	e0fffe17 	ldw	r3,-8(fp)
     53c:	10c00015 	stw	r3,0(r2)
  netif->linkoutput = tse_mac_raw_send;
  
  ethernetif->ethaddr = (struct eth_addr *)&(netif->hwaddr[0]);
  
  /* initialize the rx buffer for access by the TSE ISR */
  for(idx = 0; idx < LWIP_RX_ETH_BUFFER; ++idx)
     540:	e0bffc17 	ldw	r2,-16(fp)
     544:	10800044 	addi	r2,r2,1
     548:	e0bffc15 	stw	r2,-16(fp)
     54c:	e0bffc17 	ldw	r2,-16(fp)
     550:	10800310 	cmplti	r2,r2,12
     554:	103fde1e 	bne	r2,zero,4d0 <ethernetif_init+0xb8>
      return ERR_MEM;
    p = (void *) alt_remap_uncached(p,sizeof *p);
    p->payload = (void *) alt_remap_uncached(p->payload,PBUF_POOL_BUFSIZE);
    ethernetif->lwipRxPbuf[idx] = p;
    }
  ethernetif->lwipRxCount = 0;
     558:	e0bffd17 	ldw	r2,-12(fp)
     55c:	10001515 	stw	zero,84(r2)
  ethernetif->lwipRxIndex = 0;
     560:	e0bffd17 	ldw	r2,-12(fp)
     564:	10001415 	stw	zero,80(r2)
  ethernetif->lwipRxIndexIsr = 0;
     568:	e0bffd17 	ldw	r2,-12(fp)
     56c:	10001315 	stw	zero,76(r2)
                  
  /* initialize the low level hardware */
  low_level_init(netif);
     570:	e13fff17 	ldw	r4,-4(fp)
     574:	000009c0 	call	9c <low_level_init>
  return ERR_OK;
     578:	0005883a 	mov	r2,zero
}
     57c:	e037883a 	mov	sp,fp
     580:	dfc00117 	ldw	ra,4(sp)
     584:	df000017 	ldw	fp,0(sp)
     588:	dec00204 	addi	sp,sp,8
     58c:	f800283a 	ret

00000590 <fs_open>:


/*-----------------------------------------------------------------------------------*/
int
fs_open(const char *name, struct fs_file *file)
{
     590:	defffb04 	addi	sp,sp,-20
     594:	dfc00415 	stw	ra,16(sp)
     598:	df000315 	stw	fp,12(sp)
     59c:	df000304 	addi	fp,sp,12
     5a0:	e13ffe15 	stw	r4,-8(fp)
     5a4:	e17fff15 	stw	r5,-4(fp)
  const struct fsdata_file *f;

  for(f = FS_ROOT;
     5a8:	008000f4 	movhi	r2,3
     5ac:	10bc0804 	addi	r2,r2,-4064
     5b0:	e0bffd15 	stw	r2,-12(fp)
     5b4:	00001306 	br	604 <fs_open+0x74>
      f != NULL;
      f = f->next) {
    if (!strcmp(name, (const char*)f->name)) {
     5b8:	e0bffd17 	ldw	r2,-12(fp)
     5bc:	10800117 	ldw	r2,4(r2)
     5c0:	e13ffe17 	ldw	r4,-8(fp)
     5c4:	100b883a 	mov	r5,r2
     5c8:	00196700 	call	19670 <strcmp>
     5cc:	10000a1e 	bne	r2,zero,5f8 <fs_open+0x68>
      file->data = f->data;
     5d0:	e0bffd17 	ldw	r2,-12(fp)
     5d4:	10c00217 	ldw	r3,8(r2)
     5d8:	e0bfff17 	ldw	r2,-4(fp)
     5dc:	10c00015 	stw	r3,0(r2)
      file->len = f->len;
     5e0:	e0bffd17 	ldw	r2,-12(fp)
     5e4:	10c00317 	ldw	r3,12(r2)
     5e8:	e0bfff17 	ldw	r2,-4(fp)
     5ec:	10c00115 	stw	r3,4(r2)
      return 1;
     5f0:	00800044 	movi	r2,1
     5f4:	00000606 	br	610 <fs_open+0x80>
{
  const struct fsdata_file *f;

  for(f = FS_ROOT;
      f != NULL;
      f = f->next) {
     5f8:	e0bffd17 	ldw	r2,-12(fp)
     5fc:	10800017 	ldw	r2,0(r2)
     600:	e0bffd15 	stw	r2,-12(fp)
int
fs_open(const char *name, struct fs_file *file)
{
  const struct fsdata_file *f;

  for(f = FS_ROOT;
     604:	e0bffd17 	ldw	r2,-12(fp)
     608:	103feb1e 	bne	r2,zero,5b8 <fs_open+0x28>
      file->data = f->data;
      file->len = f->len;
      return 1;
    }
  }
  return 0;
     60c:	0005883a 	mov	r2,zero
}
     610:	e037883a 	mov	sp,fp
     614:	dfc00117 	ldw	ra,4(sp)
     618:	df000017 	ldw	fp,0(sp)
     61c:	dec00204 	addi	sp,sp,8
     620:	f800283a 	ret

00000624 <conn_err>:
};

/*-----------------------------------------------------------------------------------*/
static void
conn_err(void *arg, err_t err)
{
     624:	defffb04 	addi	sp,sp,-20
     628:	dfc00415 	stw	ra,16(sp)
     62c:	df000315 	stw	fp,12(sp)
     630:	df000304 	addi	fp,sp,12
     634:	e13ffe15 	stw	r4,-8(fp)
     638:	2805883a 	mov	r2,r5
     63c:	e0bfff05 	stb	r2,-4(fp)
  struct http_state *hs;

  LWIP_UNUSED_ARG(err);

  hs = arg;
     640:	e0bffe17 	ldw	r2,-8(fp)
     644:	e0bffd15 	stw	r2,-12(fp)
  mem_free(hs);
     648:	e13ffd17 	ldw	r4,-12(fp)
     64c:	0008afc0 	call	8afc <mem_free>
}
     650:	e037883a 	mov	sp,fp
     654:	dfc00117 	ldw	ra,4(sp)
     658:	df000017 	ldw	fp,0(sp)
     65c:	dec00204 	addi	sp,sp,8
     660:	f800283a 	ret

00000664 <close_conn>:
/*-----------------------------------------------------------------------------------*/
static void
close_conn(struct tcp_pcb *pcb, struct http_state *hs)
{
     664:	defffc04 	addi	sp,sp,-16
     668:	dfc00315 	stw	ra,12(sp)
     66c:	df000215 	stw	fp,8(sp)
     670:	df000204 	addi	fp,sp,8
     674:	e13ffe15 	stw	r4,-8(fp)
     678:	e17fff15 	stw	r5,-4(fp)
  tcp_arg(pcb, NULL);
     67c:	e13ffe17 	ldw	r4,-8(fp)
     680:	000b883a 	mov	r5,zero
     684:	000def40 	call	def4 <tcp_arg>
  tcp_sent(pcb, NULL);
     688:	e13ffe17 	ldw	r4,-8(fp)
     68c:	000b883a 	mov	r5,zero
     690:	000df900 	call	df90 <tcp_sent>
  tcp_recv(pcb, NULL);
     694:	e13ffe17 	ldw	r4,-8(fp)
     698:	000b883a 	mov	r5,zero
     69c:	000df240 	call	df24 <tcp_recv>
  mem_free(hs);
     6a0:	e13fff17 	ldw	r4,-4(fp)
     6a4:	0008afc0 	call	8afc <mem_free>
  tcp_close(pcb);
     6a8:	e13ffe17 	ldw	r4,-8(fp)
     6ac:	000c24c0 	call	c24c <tcp_close>
}
     6b0:	e037883a 	mov	sp,fp
     6b4:	dfc00117 	ldw	ra,4(sp)
     6b8:	df000017 	ldw	fp,0(sp)
     6bc:	dec00204 	addi	sp,sp,8
     6c0:	f800283a 	ret

000006c4 <send_data>:
/*-----------------------------------------------------------------------------------*/
static void
send_data(struct tcp_pcb *pcb, struct http_state *hs)
{
     6c4:	defffa04 	addi	sp,sp,-24
     6c8:	dfc00515 	stw	ra,20(sp)
     6cc:	df000415 	stw	fp,16(sp)
     6d0:	df000404 	addi	fp,sp,16
     6d4:	e13ffe15 	stw	r4,-8(fp)
     6d8:	e17fff15 	stw	r5,-4(fp)
  err_t err;
  u32_t len;

  /* We cannot send more data than space available in the send
     buffer. */     
  if (tcp_sndbuf(pcb) < hs->left) {
     6dc:	e0bffe17 	ldw	r2,-8(fp)
     6e0:	10801a8b 	ldhu	r2,106(r2)
     6e4:	10ffffcc 	andi	r3,r2,65535
     6e8:	e0bfff17 	ldw	r2,-4(fp)
     6ec:	10800017 	ldw	r2,0(r2)
     6f0:	1880052e 	bgeu	r3,r2,708 <send_data+0x44>
    len = tcp_sndbuf(pcb);
     6f4:	e0bffe17 	ldw	r2,-8(fp)
     6f8:	10801a8b 	ldhu	r2,106(r2)
     6fc:	10bfffcc 	andi	r2,r2,65535
     700:	e0bffc15 	stw	r2,-16(fp)
     704:	00000306 	br	714 <send_data+0x50>
  } else {
    len = hs->left;
     708:	e0bfff17 	ldw	r2,-4(fp)
     70c:	10800017 	ldw	r2,0(r2)
     710:	e0bffc15 	stw	r2,-16(fp)
    LWIP_ASSERT((len == hs->left), "hs->left did not fit into u16_t!");
  }

  do {
    err = tcp_write(pcb, hs->file, len, 0);
     714:	e0bfff17 	ldw	r2,-4(fp)
     718:	10c00117 	ldw	r3,4(r2)
     71c:	e0bffc17 	ldw	r2,-16(fp)
     720:	10bfffcc 	andi	r2,r2,65535
     724:	e13ffe17 	ldw	r4,-8(fp)
     728:	180b883a 	mov	r5,r3
     72c:	100d883a 	mov	r6,r2
     730:	000f883a 	mov	r7,zero
     734:	0012bf00 	call	12bf0 <tcp_write>
     738:	e0bffd05 	stb	r2,-12(fp)
    if (err == ERR_MEM) {
     73c:	e0bffd07 	ldb	r2,-12(fp)
     740:	10bfffd8 	cmpnei	r2,r2,-1
     744:	1000031e 	bne	r2,zero,754 <send_data+0x90>
      len /= 2;
     748:	e0bffc17 	ldw	r2,-16(fp)
     74c:	1004d07a 	srli	r2,r2,1
     750:	e0bffc15 	stw	r2,-16(fp)
    }
  } while (err == ERR_MEM && len > 1);  
     754:	e0bffd07 	ldb	r2,-12(fp)
     758:	10bfffd8 	cmpnei	r2,r2,-1
     75c:	1000031e 	bne	r2,zero,76c <send_data+0xa8>
     760:	e0bffc17 	ldw	r2,-16(fp)
     764:	108000a8 	cmpgeui	r2,r2,2
     768:	103fea1e 	bne	r2,zero,714 <send_data+0x50>
  
  if (err == ERR_OK) {
     76c:	e0bffd07 	ldb	r2,-12(fp)
     770:	10000c1e 	bne	r2,zero,7a4 <send_data+0xe0>
    hs->file += len;
     774:	e0bfff17 	ldw	r2,-4(fp)
     778:	10c00117 	ldw	r3,4(r2)
     77c:	e0bffc17 	ldw	r2,-16(fp)
     780:	1887883a 	add	r3,r3,r2
     784:	e0bfff17 	ldw	r2,-4(fp)
     788:	10c00115 	stw	r3,4(r2)
    hs->left -= len;
     78c:	e0bfff17 	ldw	r2,-4(fp)
     790:	10c00017 	ldw	r3,0(r2)
     794:	e0bffc17 	ldw	r2,-16(fp)
     798:	1887c83a 	sub	r3,r3,r2
     79c:	e0bfff17 	ldw	r2,-4(fp)
     7a0:	10c00015 	stw	r3,0(r2)
    /*  } else {
    printf("send_data: error %s len %d %d\n", lwip_strerr(err), len, tcp_sndbuf(pcb));*/
  }
}
     7a4:	e037883a 	mov	sp,fp
     7a8:	dfc00117 	ldw	ra,4(sp)
     7ac:	df000017 	ldw	fp,0(sp)
     7b0:	dec00204 	addi	sp,sp,8
     7b4:	f800283a 	ret

000007b8 <http_poll>:
/*-----------------------------------------------------------------------------------*/
static err_t
http_poll(void *arg, struct tcp_pcb *pcb)
{
     7b8:	defffb04 	addi	sp,sp,-20
     7bc:	dfc00415 	stw	ra,16(sp)
     7c0:	df000315 	stw	fp,12(sp)
     7c4:	df000304 	addi	fp,sp,12
     7c8:	e13ffe15 	stw	r4,-8(fp)
     7cc:	e17fff15 	stw	r5,-4(fp)
  struct http_state *hs;

  hs = arg;
     7d0:	e0bffe17 	ldw	r2,-8(fp)
     7d4:	e0bffd15 	stw	r2,-12(fp)
  
  /*  printf("Polll\n");*/
  if ((hs == NULL) && (pcb->state == ESTABLISHED)) {
     7d8:	e0bffd17 	ldw	r2,-12(fp)
     7dc:	1000081e 	bne	r2,zero,800 <http_poll+0x48>
     7e0:	e0bfff17 	ldw	r2,-4(fp)
     7e4:	10800617 	ldw	r2,24(r2)
     7e8:	10800118 	cmpnei	r2,r2,4
     7ec:	1000041e 	bne	r2,zero,800 <http_poll+0x48>
    /*    printf("Null, close\n");*/
    tcp_abort(pcb);
     7f0:	e13fff17 	ldw	r4,-4(fp)
     7f4:	000c5280 	call	c528 <tcp_abort>
    return ERR_ABRT;
     7f8:	00bffd84 	movi	r2,-10
     7fc:	00001a06 	br	868 <http_poll+0xb0>
  } else if (hs != NULL) {
     800:	e0bffd17 	ldw	r2,-12(fp)
     804:	10001726 	beq	r2,zero,864 <http_poll+0xac>
    ++hs->retries;
     808:	e0bffd17 	ldw	r2,-12(fp)
     80c:	10800203 	ldbu	r2,8(r2)
     810:	10800044 	addi	r2,r2,1
     814:	1007883a 	mov	r3,r2
     818:	e0bffd17 	ldw	r2,-12(fp)
     81c:	10c00205 	stb	r3,8(r2)
    if (hs->retries == 4) {
     820:	e0bffd17 	ldw	r2,-12(fp)
     824:	10800203 	ldbu	r2,8(r2)
     828:	10803fcc 	andi	r2,r2,255
     82c:	10800118 	cmpnei	r2,r2,4
     830:	1000091e 	bne	r2,zero,858 <http_poll+0xa0>
      tcp_arg(pcb, NULL);
     834:	e13fff17 	ldw	r4,-4(fp)
     838:	000b883a 	mov	r5,zero
     83c:	000def40 	call	def4 <tcp_arg>
      mem_free(hs);
     840:	e13ffd17 	ldw	r4,-12(fp)
     844:	0008afc0 	call	8afc <mem_free>
      tcp_abort(pcb);
     848:	e13fff17 	ldw	r4,-4(fp)
     84c:	000c5280 	call	c528 <tcp_abort>
      return ERR_ABRT;
     850:	00bffd84 	movi	r2,-10
     854:	00000406 	br	868 <http_poll+0xb0>
    }
    send_data(pcb, hs);
     858:	e13fff17 	ldw	r4,-4(fp)
     85c:	e17ffd17 	ldw	r5,-12(fp)
     860:	00006c40 	call	6c4 <send_data>
  }

  return ERR_OK;
     864:	0005883a 	mov	r2,zero
}
     868:	e037883a 	mov	sp,fp
     86c:	dfc00117 	ldw	ra,4(sp)
     870:	df000017 	ldw	fp,0(sp)
     874:	dec00204 	addi	sp,sp,8
     878:	f800283a 	ret

0000087c <http_sent>:
/*-----------------------------------------------------------------------------------*/
static err_t
http_sent(void *arg, struct tcp_pcb *pcb, u16_t len)
{
     87c:	defffa04 	addi	sp,sp,-24
     880:	dfc00515 	stw	ra,20(sp)
     884:	df000415 	stw	fp,16(sp)
     888:	df000404 	addi	fp,sp,16
     88c:	e13ffd15 	stw	r4,-12(fp)
     890:	e17ffe15 	stw	r5,-8(fp)
     894:	3005883a 	mov	r2,r6
     898:	e0bfff0d 	sth	r2,-4(fp)
  struct http_state *hs;

  LWIP_UNUSED_ARG(len);

  hs = arg;
     89c:	e0bffd17 	ldw	r2,-12(fp)
     8a0:	e0bffc15 	stw	r2,-16(fp)

  hs->retries = 0;
     8a4:	e0bffc17 	ldw	r2,-16(fp)
     8a8:	10000205 	stb	zero,8(r2)
  
  if (hs->left > 0) {    
     8ac:	e0bffc17 	ldw	r2,-16(fp)
     8b0:	10800017 	ldw	r2,0(r2)
     8b4:	10000426 	beq	r2,zero,8c8 <http_sent+0x4c>
    send_data(pcb, hs);
     8b8:	e13ffe17 	ldw	r4,-8(fp)
     8bc:	e17ffc17 	ldw	r5,-16(fp)
     8c0:	00006c40 	call	6c4 <send_data>
     8c4:	00000306 	br	8d4 <http_sent+0x58>
  } else {
    close_conn(pcb, hs);
     8c8:	e13ffe17 	ldw	r4,-8(fp)
     8cc:	e17ffc17 	ldw	r5,-16(fp)
     8d0:	00006640 	call	664 <close_conn>
  }

  return ERR_OK;
     8d4:	0005883a 	mov	r2,zero
}
     8d8:	e037883a 	mov	sp,fp
     8dc:	dfc00117 	ldw	ra,4(sp)
     8e0:	df000017 	ldw	fp,0(sp)
     8e4:	dec00204 	addi	sp,sp,8
     8e8:	f800283a 	ret

000008ec <http_recv>:
/*-----------------------------------------------------------------------------------*/
static err_t
http_recv(void *arg, struct tcp_pcb *pcb, struct pbuf *p, err_t err)
{
     8ec:	defff504 	addi	sp,sp,-44
     8f0:	dfc00a15 	stw	ra,40(sp)
     8f4:	df000915 	stw	fp,36(sp)
     8f8:	df000904 	addi	fp,sp,36
     8fc:	e13ffc15 	stw	r4,-16(fp)
     900:	e17ffd15 	stw	r5,-12(fp)
     904:	e1bffe15 	stw	r6,-8(fp)
     908:	3805883a 	mov	r2,r7
     90c:	e0bfff05 	stb	r2,-4(fp)
  int i;
  char *data;
  struct fs_file file;
  struct http_state *hs;

  hs = arg;
     910:	e0bffc17 	ldw	r2,-16(fp)
     914:	e0bff815 	stw	r2,-32(fp)

  if (err == ERR_OK && p != NULL) {
     918:	e0bfff07 	ldb	r2,-4(fp)
     91c:	1000791e 	bne	r2,zero,b04 <http_recv+0x218>
     920:	e0bffe17 	ldw	r2,-8(fp)
     924:	10007726 	beq	r2,zero,b04 <http_recv+0x218>

    /* Inform TCP that we have taken the data. */
    tcp_recved(pcb, p->tot_len);
     928:	e0bffe17 	ldw	r2,-8(fp)
     92c:	1080020b 	ldhu	r2,8(r2)
     930:	10bfffcc 	andi	r2,r2,65535
     934:	e13ffd17 	ldw	r4,-12(fp)
     938:	100b883a 	mov	r5,r2
     93c:	000ca180 	call	ca18 <tcp_recved>
    
    if (hs->file == NULL) {
     940:	e0bff817 	ldw	r2,-32(fp)
     944:	10800117 	ldw	r2,4(r2)
     948:	10006c1e 	bne	r2,zero,afc <http_recv+0x210>
      data = p->payload;
     94c:	e0bffe17 	ldw	r2,-8(fp)
     950:	10800117 	ldw	r2,4(r2)
     954:	e0bff915 	stw	r2,-28(fp)
      
      if (strncmp(data, "GET ", 4) == 0) {
     958:	e13ff917 	ldw	r4,-28(fp)
     95c:	014000f4 	movhi	r5,3
     960:	297c0c04 	addi	r5,r5,-4048
     964:	01800104 	movi	r6,4
     968:	00197a00 	call	197a0 <strncmp>
     96c:	10005d1e 	bne	r2,zero,ae4 <http_recv+0x1f8>
        for(i = 0; i < 40; i++) {
     970:	e03ff715 	stw	zero,-36(fp)
     974:	00002606 	br	a10 <http_recv+0x124>
          if (((char *)data + 4)[i] == ' ' ||
     978:	e0bff717 	ldw	r2,-36(fp)
     97c:	10800104 	addi	r2,r2,4
     980:	e0fff917 	ldw	r3,-28(fp)
     984:	1885883a 	add	r2,r3,r2
     988:	10800003 	ldbu	r2,0(r2)
     98c:	10803fcc 	andi	r2,r2,255
     990:	1080201c 	xori	r2,r2,128
     994:	10bfe004 	addi	r2,r2,-128
     998:	10800820 	cmpeqi	r2,r2,32
     99c:	1000141e 	bne	r2,zero,9f0 <http_recv+0x104>
             ((char *)data + 4)[i] == '\r' ||
     9a0:	e0bff717 	ldw	r2,-36(fp)
     9a4:	10800104 	addi	r2,r2,4
     9a8:	e0fff917 	ldw	r3,-28(fp)
     9ac:	1885883a 	add	r2,r3,r2
     9b0:	10800003 	ldbu	r2,0(r2)
    if (hs->file == NULL) {
      data = p->payload;
      
      if (strncmp(data, "GET ", 4) == 0) {
        for(i = 0; i < 40; i++) {
          if (((char *)data + 4)[i] == ' ' ||
     9b4:	10803fcc 	andi	r2,r2,255
     9b8:	1080201c 	xori	r2,r2,128
     9bc:	10bfe004 	addi	r2,r2,-128
     9c0:	10800360 	cmpeqi	r2,r2,13
     9c4:	10000a1e 	bne	r2,zero,9f0 <http_recv+0x104>
             ((char *)data + 4)[i] == '\r' ||
             ((char *)data + 4)[i] == '\n') {
     9c8:	e0bff717 	ldw	r2,-36(fp)
     9cc:	10800104 	addi	r2,r2,4
     9d0:	e0fff917 	ldw	r3,-28(fp)
     9d4:	1885883a 	add	r2,r3,r2
     9d8:	10800003 	ldbu	r2,0(r2)
      data = p->payload;
      
      if (strncmp(data, "GET ", 4) == 0) {
        for(i = 0; i < 40; i++) {
          if (((char *)data + 4)[i] == ' ' ||
             ((char *)data + 4)[i] == '\r' ||
     9dc:	10803fcc 	andi	r2,r2,255
     9e0:	1080201c 	xori	r2,r2,128
     9e4:	10bfe004 	addi	r2,r2,-128
     9e8:	10800298 	cmpnei	r2,r2,10
     9ec:	1000051e 	bne	r2,zero,a04 <http_recv+0x118>
             ((char *)data + 4)[i] == '\n') {
            ((char *)data + 4)[i] = 0;
     9f0:	e0bff717 	ldw	r2,-36(fp)
     9f4:	10800104 	addi	r2,r2,4
     9f8:	e0fff917 	ldw	r3,-28(fp)
     9fc:	1885883a 	add	r2,r3,r2
     a00:	10000005 	stb	zero,0(r2)
    
    if (hs->file == NULL) {
      data = p->payload;
      
      if (strncmp(data, "GET ", 4) == 0) {
        for(i = 0; i < 40; i++) {
     a04:	e0bff717 	ldw	r2,-36(fp)
     a08:	10800044 	addi	r2,r2,1
     a0c:	e0bff715 	stw	r2,-36(fp)
     a10:	e0bff717 	ldw	r2,-36(fp)
     a14:	10800a10 	cmplti	r2,r2,40
     a18:	103fd71e 	bne	r2,zero,978 <http_recv+0x8c>
             ((char *)data + 4)[i] == '\n') {
            ((char *)data + 4)[i] = 0;
          }
        }

        if (*(char *)(data + 4) == '/' &&
     a1c:	e0bff917 	ldw	r2,-28(fp)
     a20:	10800104 	addi	r2,r2,4
     a24:	10800003 	ldbu	r2,0(r2)
     a28:	10803fcc 	andi	r2,r2,255
     a2c:	1080201c 	xori	r2,r2,128
     a30:	10bfe004 	addi	r2,r2,-128
     a34:	10800bd8 	cmpnei	r2,r2,47
     a38:	10000d1e 	bne	r2,zero,a70 <http_recv+0x184>
           *(char *)(data + 5) == 0) {
     a3c:	e0bff917 	ldw	r2,-28(fp)
     a40:	10800144 	addi	r2,r2,5
     a44:	10800003 	ldbu	r2,0(r2)
             ((char *)data + 4)[i] == '\n') {
            ((char *)data + 4)[i] = 0;
          }
        }

        if (*(char *)(data + 4) == '/' &&
     a48:	10803fcc 	andi	r2,r2,255
     a4c:	1080201c 	xori	r2,r2,128
     a50:	10bfe004 	addi	r2,r2,-128
     a54:	1000061e 	bne	r2,zero,a70 <http_recv+0x184>
           *(char *)(data + 5) == 0) {
          fs_open("/index.html", &file);
     a58:	e0bffa04 	addi	r2,fp,-24
     a5c:	010000f4 	movhi	r4,3
     a60:	213c0e04 	addi	r4,r4,-4040
     a64:	100b883a 	mov	r5,r2
     a68:	00005900 	call	590 <fs_open>
     a6c:	00000c06 	br	aa0 <http_recv+0x1b4>
        } else if (!fs_open((char *)data + 4, &file)) {
     a70:	e0bff917 	ldw	r2,-28(fp)
     a74:	10c00104 	addi	r3,r2,4
     a78:	e0bffa04 	addi	r2,fp,-24
     a7c:	1809883a 	mov	r4,r3
     a80:	100b883a 	mov	r5,r2
     a84:	00005900 	call	590 <fs_open>
     a88:	1000051e 	bne	r2,zero,aa0 <http_recv+0x1b4>
          fs_open("/404.html", &file);
     a8c:	e0bffa04 	addi	r2,fp,-24
     a90:	010000f4 	movhi	r4,3
     a94:	213c1104 	addi	r4,r4,-4028
     a98:	100b883a 	mov	r5,r2
     a9c:	00005900 	call	590 <fs_open>
        }

        hs->file = file.data;
     aa0:	e0fffa17 	ldw	r3,-24(fp)
     aa4:	e0bff817 	ldw	r2,-32(fp)
     aa8:	10c00115 	stw	r3,4(r2)
        LWIP_ASSERT((file.len >= 0), "File length must be positive!");
        hs->left = file.len;
     aac:	e0bffb17 	ldw	r2,-20(fp)
     ab0:	1007883a 	mov	r3,r2
     ab4:	e0bff817 	ldw	r2,-32(fp)
     ab8:	10c00015 	stw	r3,0(r2)
        /* printf("data %p len %ld\n", hs->file, hs->left);*/

        pbuf_free(p);
     abc:	e13ffe17 	ldw	r4,-8(fp)
     ac0:	000aa340 	call	aa34 <pbuf_free>
        send_data(pcb, hs);
     ac4:	e13ffd17 	ldw	r4,-12(fp)
     ac8:	e17ff817 	ldw	r5,-32(fp)
     acc:	00006c40 	call	6c4 <send_data>

        /* Tell TCP that we wish be to informed of data that has been
           successfully sent by a call to the http_sent() function. */
        tcp_sent(pcb, http_sent);
     ad0:	e13ffd17 	ldw	r4,-12(fp)
     ad4:	01400034 	movhi	r5,0
     ad8:	29421f04 	addi	r5,r5,2172
     adc:	000df900 	call	df90 <tcp_sent>
     ae0:	00000806 	br	b04 <http_recv+0x218>
      } else {
        pbuf_free(p);
     ae4:	e13ffe17 	ldw	r4,-8(fp)
     ae8:	000aa340 	call	aa34 <pbuf_free>
        close_conn(pcb, hs);
     aec:	e13ffd17 	ldw	r4,-12(fp)
     af0:	e17ff817 	ldw	r5,-32(fp)
     af4:	00006640 	call	664 <close_conn>
     af8:	00000206 	br	b04 <http_recv+0x218>
      }
    } else {
      pbuf_free(p);
     afc:	e13ffe17 	ldw	r4,-8(fp)
     b00:	000aa340 	call	aa34 <pbuf_free>
    }
  }

  if (err == ERR_OK && p == NULL) {
     b04:	e0bfff07 	ldb	r2,-4(fp)
     b08:	1000051e 	bne	r2,zero,b20 <http_recv+0x234>
     b0c:	e0bffe17 	ldw	r2,-8(fp)
     b10:	1000031e 	bne	r2,zero,b20 <http_recv+0x234>
    close_conn(pcb, hs);
     b14:	e13ffd17 	ldw	r4,-12(fp)
     b18:	e17ff817 	ldw	r5,-32(fp)
     b1c:	00006640 	call	664 <close_conn>
  }
  return ERR_OK;
     b20:	0005883a 	mov	r2,zero
}
     b24:	e037883a 	mov	sp,fp
     b28:	dfc00117 	ldw	ra,4(sp)
     b2c:	df000017 	ldw	fp,0(sp)
     b30:	dec00204 	addi	sp,sp,8
     b34:	f800283a 	ret

00000b38 <http_accept>:
/*-----------------------------------------------------------------------------------*/
static err_t
http_accept(void *arg, struct tcp_pcb *pcb, err_t err)
{
     b38:	defff904 	addi	sp,sp,-28
     b3c:	dfc00615 	stw	ra,24(sp)
     b40:	df000515 	stw	fp,20(sp)
     b44:	df000504 	addi	fp,sp,20
     b48:	e13ffd15 	stw	r4,-12(fp)
     b4c:	e17ffe15 	stw	r5,-8(fp)
     b50:	3005883a 	mov	r2,r6
     b54:	e0bfff05 	stb	r2,-4(fp)
  struct http_state *hs;
  struct tcp_pcb_listen *lpcb = (struct tcp_pcb_listen*)arg;
     b58:	e0bffd17 	ldw	r2,-12(fp)
     b5c:	e0bffb15 	stw	r2,-20(fp)

  LWIP_UNUSED_ARG(err);

  /* Decrease the listen backlog counter */
  tcp_accepted(lpcb);
     b60:	e0bffb17 	ldw	r2,-20(fp)
     b64:	10800617 	ldw	r2,24(r2)
     b68:	10800060 	cmpeqi	r2,r2,1
     b6c:	1000091e 	bne	r2,zero,b94 <http_accept+0x5c>
     b70:	010000f4 	movhi	r4,3
     b74:	213c1404 	addi	r4,r4,-4016
     b78:	014000f4 	movhi	r5,3
     b7c:	297c1e04 	addi	r5,r5,-3976
     b80:	01803584 	movi	r6,214
     b84:	01c000f4 	movhi	r7,3
     b88:	39fc2a04 	addi	r7,r7,-3928
     b8c:	00193f00 	call	193f0 <printf>
     b90:	003fff06 	br	b90 <http_accept+0x58>

  tcp_setprio(pcb, TCP_PRIO_MIN);
     b94:	e13ffe17 	ldw	r4,-8(fp)
     b98:	01400044 	movi	r5,1
     b9c:	000da600 	call	da60 <tcp_setprio>
  
  /* Allocate memory for the structure that holds the state of the
     connection. */
  hs = (struct http_state *)mem_malloc(sizeof(struct http_state));
     ba0:	01000304 	movi	r4,12
     ba4:	0008fcc0 	call	8fcc <mem_malloc>
     ba8:	e0bffc15 	stw	r2,-16(fp)

  if (hs == NULL) {
     bac:	e0bffc17 	ldw	r2,-16(fp)
     bb0:	1000051e 	bne	r2,zero,bc8 <http_accept+0x90>
    printf("http_accept: Out of memory\n");
     bb4:	010000f4 	movhi	r4,3
     bb8:	213c2e04 	addi	r4,r4,-3912
     bbc:	001965c0 	call	1965c <puts>
    return ERR_MEM;
     bc0:	00bfffc4 	movi	r2,-1
     bc4:	00001706 	br	c24 <http_accept+0xec>
  }
  
  /* Initialize the structure. */
  hs->file = NULL;
     bc8:	e0bffc17 	ldw	r2,-16(fp)
     bcc:	10000115 	stw	zero,4(r2)
  hs->left = 0;
     bd0:	e0bffc17 	ldw	r2,-16(fp)
     bd4:	10000015 	stw	zero,0(r2)
  hs->retries = 0;
     bd8:	e0bffc17 	ldw	r2,-16(fp)
     bdc:	10000205 	stb	zero,8(r2)
  
  /* Tell TCP that this is the structure we wish to be passed for our
     callbacks. */
  tcp_arg(pcb, hs);
     be0:	e13ffe17 	ldw	r4,-8(fp)
     be4:	e17ffc17 	ldw	r5,-16(fp)
     be8:	000def40 	call	def4 <tcp_arg>

  /* Tell TCP that we wish to be informed of incoming data by a call
     to the http_recv() function. */
  tcp_recv(pcb, http_recv);
     bec:	e13ffe17 	ldw	r4,-8(fp)
     bf0:	01400034 	movhi	r5,0
     bf4:	29423b04 	addi	r5,r5,2284
     bf8:	000df240 	call	df24 <tcp_recv>

  tcp_err(pcb, conn_err);
     bfc:	e13ffe17 	ldw	r4,-8(fp)
     c00:	01400034 	movhi	r5,0
     c04:	29418904 	addi	r5,r5,1572
     c08:	000dffc0 	call	dffc <tcp_err>
  
  tcp_poll(pcb, http_poll, 4);
     c0c:	e13ffe17 	ldw	r4,-8(fp)
     c10:	01400034 	movhi	r5,0
     c14:	2941ee04 	addi	r5,r5,1976
     c18:	01800104 	movi	r6,4
     c1c:	000e0980 	call	e098 <tcp_poll>

  return ERR_OK;
     c20:	0005883a 	mov	r2,zero
}
     c24:	e037883a 	mov	sp,fp
     c28:	dfc00117 	ldw	ra,4(sp)
     c2c:	df000017 	ldw	fp,0(sp)
     c30:	dec00204 	addi	sp,sp,8
     c34:	f800283a 	ret

00000c38 <httpd_init>:
/*-----------------------------------------------------------------------------------*/
void
httpd_init(void)
{
     c38:	defffd04 	addi	sp,sp,-12
     c3c:	dfc00215 	stw	ra,8(sp)
     c40:	df000115 	stw	fp,4(sp)
     c44:	df000104 	addi	fp,sp,4
  struct tcp_pcb *pcb;

  pcb = tcp_new();
     c48:	000dec80 	call	dec8 <tcp_new>
     c4c:	e0bfff15 	stw	r2,-4(fp)
  tcp_bind(pcb, IP_ADDR_ANY, 80);
     c50:	e13fff17 	ldw	r4,-4(fp)
     c54:	014000f4 	movhi	r5,3
     c58:	29557404 	addi	r5,r5,21968
     c5c:	01801404 	movi	r6,80
     c60:	000c55c0 	call	c55c <tcp_bind>
  pcb = tcp_listen(pcb);
     c64:	e13fff17 	ldw	r4,-4(fp)
     c68:	01403fc4 	movi	r5,255
     c6c:	000c7180 	call	c718 <tcp_listen_with_backlog>
     c70:	e0bfff15 	stw	r2,-4(fp)
  tcp_arg(pcb, pcb);
     c74:	e13fff17 	ldw	r4,-4(fp)
     c78:	e17fff17 	ldw	r5,-4(fp)
     c7c:	000def40 	call	def4 <tcp_arg>
  tcp_accept(pcb, http_accept);
     c80:	e13fff17 	ldw	r4,-4(fp)
     c84:	01400034 	movhi	r5,0
     c88:	2942ce04 	addi	r5,r5,2872
     c8c:	000e0680 	call	e068 <tcp_accept>
}
     c90:	e037883a 	mov	sp,fp
     c94:	dfc00117 	ldw	ra,4(sp)
     c98:	df000017 	ldw	fp,0(sp)
     c9c:	dec00204 	addi	sp,sp,8
     ca0:	f800283a 	ret

00000ca4 <tse_mac_init>:
 * @API TYPE: Internal
 * @Param iface index of the NET structure associated with TSE instance
 * @Return 0 if ok, else -1 if error
 */
int tse_mac_init(int iface, struct ethernetif *ethernetif)
{
     ca4:	defff004 	addi	sp,sp,-64
     ca8:	dfc00f15 	stw	ra,60(sp)
     cac:	df000e15 	stw	fp,56(sp)
     cb0:	df000e04 	addi	fp,sp,56
     cb4:	e13ffe15 	stw	r4,-8(fp)
     cb8:	e17fff15 	stw	r5,-4(fp)
   int speed, duplex, result;
   int x;
   
   alt_sgdma_dev *sgdma_tx_dev;
   alt_sgdma_dev *sgdma_rx_dev;
   alt_tse_system_info* tse_hw = (alt_tse_system_info *) tse[iface].tse;
     cbc:	00c00134 	movhi	r3,4
     cc0:	18d77b04 	addi	r3,r3,24044
     cc4:	e0bffe17 	ldw	r2,-8(fp)
     cc8:	1004917a 	slli	r2,r2,5
     ccc:	1885883a 	add	r2,r3,r2
     cd0:	10800704 	addi	r2,r2,28
     cd4:	10800017 	ldw	r2,0(r2)
     cd8:	e0bff715 	stw	r2,-36(fp)
   np_tse_mac *mi_base;
   alt_tse_mac_info *pmac_info;
   
   dprintf(("[tse_mac_init]\n"));
     cdc:	010000f4 	movhi	r4,3
     ce0:	213c3504 	addi	r4,r4,-3884
     ce4:	001965c0 	call	1965c <puts>
#ifdef PRINTIF
   dprintf(("tse_mac_init %d\n", iface));
#endif    
   // These lines were done in prep_tse_mac 
   tse_hw = &tse_mac_device[iface];	
     ce8:	e0bffe17 	ldw	r2,-8(fp)
     cec:	10c01224 	muli	r3,r2,72
     cf0:	008000f4 	movhi	r2,3
     cf4:	108d0b04 	addi	r2,r2,13356
     cf8:	1885883a 	add	r2,r3,r2
     cfc:	e0bff715 	stw	r2,-36(fp)
   tse[iface].tse = tse_hw;
     d00:	00c00134 	movhi	r3,4
     d04:	18d77b04 	addi	r3,r3,24044
     d08:	e0bffe17 	ldw	r2,-8(fp)
     d0c:	1004917a 	slli	r2,r2,5
     d10:	1885883a 	add	r2,r3,r2
     d14:	10800704 	addi	r2,r2,28
     d18:	e0fff717 	ldw	r3,-36(fp)
     d1c:	10c00015 	stw	r3,0(r2)
	
   // Store ethernetif for access, and the tse in ethernetif for access in tse_mac_raw_send/tse_mac_rcv
   tse[iface].ethernetif = ethernetif;
     d20:	00c00134 	movhi	r3,4
     d24:	18d77b04 	addi	r3,r3,24044
     d28:	e0bffe17 	ldw	r2,-8(fp)
     d2c:	1004917a 	slli	r2,r2,5
     d30:	1885883a 	add	r2,r3,r2
     d34:	10800604 	addi	r2,r2,24
     d38:	e0ffff17 	ldw	r3,-4(fp)
     d3c:	10c00015 	stw	r3,0(r2)
   ethernetif->iface = iface;
     d40:	e0bfff17 	ldw	r2,-4(fp)
     d44:	e0fffe17 	ldw	r3,-8(fp)
     d48:	10c00115 	stw	r3,4(r2)
   ethernetif->tse_info = &tse[iface];
     d4c:	e0bffe17 	ldw	r2,-8(fp)
     d50:	1006917a 	slli	r3,r2,5
     d54:	00800134 	movhi	r2,4
     d58:	10977b04 	addi	r2,r2,24044
     d5c:	1887883a 	add	r3,r3,r2
     d60:	e0bfff17 	ldw	r2,-4(fp)
     d64:	10c01615 	stw	r3,88(r2)

   if (tse_hw->ext_desc_mem == 1)
     d68:	e0bff717 	ldw	r2,-36(fp)
     d6c:	10800783 	ldbu	r2,30(r2)
     d70:	10803fcc 	andi	r2,r2,255
     d74:	10800058 	cmpnei	r2,r2,1
     d78:	10000b1e 	bne	r2,zero,da8 <tse_mac_init+0x104>
      tse[iface].desc = (alt_sgdma_descriptor *) tse_hw->desc_mem_base;
     d7c:	e0bff717 	ldw	r2,-36(fp)
     d80:	10800817 	ldw	r2,32(r2)
     d84:	1007883a 	mov	r3,r2
     d88:	01000134 	movhi	r4,4
     d8c:	21177b04 	addi	r4,r4,24044
     d90:	e0bffe17 	ldw	r2,-8(fp)
     d94:	1004917a 	slli	r2,r2,5
     d98:	2085883a 	add	r2,r4,r2
     d9c:	10800504 	addi	r2,r2,20
     da0:	10c00015 	stw	r3,0(r2)
     da4:	00001206 	br	df0 <tse_mac_init+0x14c>
   else
      {
      unsigned char *temp_desc = (unsigned char *)alt_uncached_malloc((4+ALTERA_TSE_SGDMA_RX_DESC_CHAIN_SIZE)*(sizeof(alt_sgdma_descriptor)));
     da8:	01002804 	movi	r4,160
     dac:	00224500 	call	22450 <alt_uncached_malloc>
     db0:	e0bff615 	stw	r2,-40(fp)
    
      while ((((alt_u32)temp_desc) % ALTERA_AVALON_SGDMA_DESCRIPTOR_SIZE) != 0)
     db4:	00000306 	br	dc4 <tse_mac_init+0x120>
         temp_desc++;
     db8:	e0bff617 	ldw	r2,-40(fp)
     dbc:	10800044 	addi	r2,r2,1
     dc0:	e0bff615 	stw	r2,-40(fp)
      tse[iface].desc = (alt_sgdma_descriptor *) tse_hw->desc_mem_base;
   else
      {
      unsigned char *temp_desc = (unsigned char *)alt_uncached_malloc((4+ALTERA_TSE_SGDMA_RX_DESC_CHAIN_SIZE)*(sizeof(alt_sgdma_descriptor)));
    
      while ((((alt_u32)temp_desc) % ALTERA_AVALON_SGDMA_DESCRIPTOR_SIZE) != 0)
     dc4:	e0bff617 	ldw	r2,-40(fp)
     dc8:	108007cc 	andi	r2,r2,31
     dcc:	103ffa1e 	bne	r2,zero,db8 <tse_mac_init+0x114>
         temp_desc++;
      tse[iface].desc = (alt_sgdma_descriptor *) temp_desc;
     dd0:	00c00134 	movhi	r3,4
     dd4:	18d77b04 	addi	r3,r3,24044
     dd8:	e0bffe17 	ldw	r2,-8(fp)
     ddc:	1004917a 	slli	r2,r2,5
     de0:	1885883a 	add	r2,r3,r2
     de4:	10800504 	addi	r2,r2,20
     de8:	e0fff617 	ldw	r3,-40(fp)
     dec:	10c00015 	stw	r3,0(r2)
      }

   
   /* Get the Rx and Tx SGDMA addresses */
   sgdma_tx_dev = alt_avalon_sgdma_open(tse_hw->tse_sgdma_tx);
     df0:	e0bff717 	ldw	r2,-36(fp)
     df4:	10800517 	ldw	r2,20(r2)
     df8:	1009883a 	mov	r4,r2
     dfc:	00264d80 	call	264d8 <alt_avalon_sgdma_open>
     e00:	e0bff815 	stw	r2,-32(fp)
   if(!sgdma_tx_dev) 
     e04:	e0bff817 	ldw	r2,-32(fp)
     e08:	1000051e 	bne	r2,zero,e20 <tse_mac_init+0x17c>
      {
      dprintf(("[triple_speed_ethernet_init] Error opening TX SGDMA\n"));
     e0c:	010000f4 	movhi	r4,3
     e10:	213c3904 	addi	r4,r4,-3868
     e14:	001965c0 	call	1965c <puts>
      return ENP_RESOURCE;
     e18:	00bffa84 	movi	r2,-22
     e1c:	0001b606 	br	14f8 <tse_mac_init+0x854>
      }
  
   sgdma_rx_dev = alt_avalon_sgdma_open(tse_hw->tse_sgdma_rx);
     e20:	e0bff717 	ldw	r2,-36(fp)
     e24:	10800617 	ldw	r2,24(r2)
     e28:	1009883a 	mov	r4,r2
     e2c:	00264d80 	call	264d8 <alt_avalon_sgdma_open>
     e30:	e0bff915 	stw	r2,-28(fp)
   if(!sgdma_rx_dev) 
     e34:	e0bff917 	ldw	r2,-28(fp)
     e38:	1000051e 	bne	r2,zero,e50 <tse_mac_init+0x1ac>
      {
      dprintf(("[triple_speed_ethernet_init] Error opening RX SGDMA\n"));
     e3c:	010000f4 	movhi	r4,3
     e40:	213c4604 	addi	r4,r4,-3816
     e44:	001965c0 	call	1965c <puts>
      return ENP_RESOURCE;
     e48:	00bffa84 	movi	r2,-22
     e4c:	0001aa06 	br	14f8 <tse_mac_init+0x854>
      }


   /* Initialize mtip_mac_trans_info structure with values from <system.h>*/

   tse_mac_initTransInfo2(&tse[iface].mi, (int)tse_hw->tse_mac_base,
     e50:	e0bffe17 	ldw	r2,-8(fp)
     e54:	1006917a 	slli	r3,r2,5
     e58:	00800134 	movhi	r2,4
     e5c:	10977b04 	addi	r2,r2,24044
     e60:	1889883a 	add	r4,r3,r2
     e64:	e0bff717 	ldw	r2,-36(fp)
     e68:	11400017 	ldw	r5,0(r2)
     e6c:	e0fff817 	ldw	r3,-32(fp)
     e70:	e0bff917 	ldw	r2,-28(fp)
     e74:	d8000015 	stw	zero,0(sp)
     e78:	180d883a 	mov	r6,r3
     e7c:	100f883a 	mov	r7,r2
     e80:	0026df00 	call	26df0 <tse_mac_initTransInfo2>
                                   (unsigned int)sgdma_tx_dev,            
                                   (unsigned int)sgdma_rx_dev,
                                   0);
   mi_base = tse[iface].mi.base;
     e84:	00c00134 	movhi	r3,4
     e88:	18d77b04 	addi	r3,r3,24044
     e8c:	e0bffe17 	ldw	r2,-8(fp)
     e90:	1004917a 	slli	r2,r2,5
     e94:	1885883a 	add	r2,r3,r2
     e98:	10800017 	ldw	r2,0(r2)
     e9c:	e0bffa15 	stw	r2,-24(fp)

   IOWR_ALTERA_AVALON_SGDMA_CONTROL(tse[iface].mi.rx_sgdma->base,ALTERA_AVALON_SGDMA_CONTROL_SOFTWARERESET_MSK);
     ea0:	00c00134 	movhi	r3,4
     ea4:	18d77b04 	addi	r3,r3,24044
     ea8:	e0bffe17 	ldw	r2,-8(fp)
     eac:	1004917a 	slli	r2,r2,5
     eb0:	1885883a 	add	r2,r3,r2
     eb4:	10800204 	addi	r2,r2,8
     eb8:	10800017 	ldw	r2,0(r2)
     ebc:	10800317 	ldw	r2,12(r2)
     ec0:	10800404 	addi	r2,r2,16
     ec4:	00c00074 	movhi	r3,1
     ec8:	10c00035 	stwio	r3,0(r2)
   IOWR_ALTERA_AVALON_SGDMA_CONTROL(tse[iface].mi.rx_sgdma->base, 0x0);
     ecc:	00c00134 	movhi	r3,4
     ed0:	18d77b04 	addi	r3,r3,24044
     ed4:	e0bffe17 	ldw	r2,-8(fp)
     ed8:	1004917a 	slli	r2,r2,5
     edc:	1885883a 	add	r2,r3,r2
     ee0:	10800204 	addi	r2,r2,8
     ee4:	10800017 	ldw	r2,0(r2)
     ee8:	10800317 	ldw	r2,12(r2)
     eec:	10800404 	addi	r2,r2,16
     ef0:	0007883a 	mov	r3,zero
     ef4:	10c00035 	stwio	r3,0(r2)
   
   /* reset the PHY if necessary */
   result = getPHYSpeed(tse[iface].mi.base);
     ef8:	00c00134 	movhi	r3,4
     efc:	18d77b04 	addi	r3,r3,24044
     f00:	e0bffe17 	ldw	r2,-8(fp)
     f04:	1004917a 	slli	r2,r2,5
     f08:	1885883a 	add	r2,r3,r2
     f0c:	10800017 	ldw	r2,0(r2)
     f10:	1009883a 	mov	r4,r2
     f14:	00282700 	call	28270 <getPHYSpeed>
     f18:	e0bffb15 	stw	r2,-20(fp)
   speed  = (result >> 1) & 0x07;
     f1c:	e0bffb17 	ldw	r2,-20(fp)
     f20:	1005d07a 	srai	r2,r2,1
     f24:	108001cc 	andi	r2,r2,7
     f28:	e0bffc15 	stw	r2,-16(fp)
   duplex = result & 0x01;
     f2c:	e0bffb17 	ldw	r2,-20(fp)
     f30:	1080004c 	andi	r2,r2,1
     f34:	e0bff415 	stw	r2,-48(fp)

   /* reset the mac */ 
   IOWR_ALTERA_TSEMAC_CMD_CONFIG(tse[iface].mi.base,
     f38:	00c00134 	movhi	r3,4
     f3c:	18d77b04 	addi	r3,r3,24044
     f40:	e0bffe17 	ldw	r2,-8(fp)
     f44:	1004917a 	slli	r2,r2,5
     f48:	1885883a 	add	r2,r3,r2
     f4c:	10800017 	ldw	r2,0(r2)
     f50:	10800204 	addi	r2,r2,8
     f54:	00c800c4 	movi	r3,8195
     f58:	10c00035 	stwio	r3,0(r2)
                             mmac_cc_SW_RESET_mask | 
                             mmac_cc_TX_ENA_mask | 
                             mmac_cc_RX_ENA_mask);
  
   x=0;
     f5c:	e03ff515 	stw	zero,-44(fp)
   while(IORD_ALTERA_TSEMAC_CMD_CONFIG(tse[iface].mi.base) & 
     f60:	00000706 	br	f80 <tse_mac_init+0x2dc>
         ALTERA_TSEMAC_CMD_SW_RESET_MSK) 
      {
      if( x++ > 10000 ) 
     f64:	e0bff517 	ldw	r2,-44(fp)
     f68:	1089c448 	cmpgei	r2,r2,10001
     f6c:	e0fff517 	ldw	r3,-44(fp)
     f70:	18c00044 	addi	r3,r3,1
     f74:	e0fff515 	stw	r3,-44(fp)
     f78:	10803fcc 	andi	r2,r2,255
     f7c:	10000b1e 	bne	r2,zero,fac <tse_mac_init+0x308>
                             mmac_cc_SW_RESET_mask | 
                             mmac_cc_TX_ENA_mask | 
                             mmac_cc_RX_ENA_mask);
  
   x=0;
   while(IORD_ALTERA_TSEMAC_CMD_CONFIG(tse[iface].mi.base) & 
     f80:	00c00134 	movhi	r3,4
     f84:	18d77b04 	addi	r3,r3,24044
     f88:	e0bffe17 	ldw	r2,-8(fp)
     f8c:	1004917a 	slli	r2,r2,5
     f90:	1885883a 	add	r2,r3,r2
     f94:	10800017 	ldw	r2,0(r2)
     f98:	10800204 	addi	r2,r2,8
     f9c:	10800037 	ldwio	r2,0(r2)
     fa0:	1088000c 	andi	r2,r2,8192
     fa4:	103fef1e 	bne	r2,zero,f64 <tse_mac_init+0x2c0>
     fa8:	00000106 	br	fb0 <tse_mac_init+0x30c>
         ALTERA_TSEMAC_CMD_SW_RESET_MSK) 
      {
      if( x++ > 10000 ) 
         break;
     fac:	0001883a 	nop
      }
  
   if(x >= 10000)
     fb0:	e0bff517 	ldw	r2,-44(fp)
     fb4:	1089c410 	cmplti	r2,r2,10000
     fb8:	1000031e 	bne	r2,zero,fc8 <tse_mac_init+0x324>
      dprintf(("TSEMAC SW reset bit never cleared!\n"));
     fbc:	010000f4 	movhi	r4,3
     fc0:	213c5304 	addi	r4,r4,-3764
     fc4:	001965c0 	call	1965c <puts>

   dat = IORD_ALTERA_TSEMAC_CMD_CONFIG(tse[iface].mi.base);
     fc8:	00c00134 	movhi	r3,4
     fcc:	18d77b04 	addi	r3,r3,24044
     fd0:	e0bffe17 	ldw	r2,-8(fp)
     fd4:	1004917a 	slli	r2,r2,5
     fd8:	1885883a 	add	r2,r3,r2
     fdc:	10800017 	ldw	r2,0(r2)
     fe0:	10800204 	addi	r2,r2,8
     fe4:	10800037 	ldwio	r2,0(r2)
     fe8:	e0bff315 	stw	r2,-52(fp)
   if( (dat & 0x03) != 0 ) 
     fec:	e0bff317 	ldw	r2,-52(fp)
     ff0:	108000cc 	andi	r2,r2,3
     ff4:	10000526 	beq	r2,zero,100c <tse_mac_init+0x368>
      printf("WARN: RX/TX not disabled after reset... missing PHY clock? CMD_CONFIG=0x%08x\n", dat);
     ff8:	010000f4 	movhi	r4,3
     ffc:	213c5c04 	addi	r4,r4,-3728
    1000:	e17ff317 	ldw	r5,-52(fp)
    1004:	00193f00 	call	193f0 <printf>
    1008:	00000506 	br	1020 <tse_mac_init+0x37c>
   else
      printf("OK, x=%d, CMD_CONFIG=0x%08x\n", x, dat);
    100c:	010000f4 	movhi	r4,3
    1010:	213c7004 	addi	r4,r4,-3648
    1014:	e17ff517 	ldw	r5,-44(fp)
    1018:	e1bff317 	ldw	r6,-52(fp)
    101c:	00193f00 	call	193f0 <printf>
  
   /* Initialize MAC registers */
   IOWR_ALTERA_TSEMAC_FRM_LENGTH(mi_base, PBUF_POOL_BUFSIZE+ETH_PAD_SIZE); 
    1020:	e0bffa17 	ldw	r2,-24(fp)
    1024:	10800504 	addi	r2,r2,20
    1028:	00c17b84 	movi	r3,1518
    102c:	10c00035 	stwio	r3,0(r2)
   IOWR_ALTERA_TSEMAC_RX_ALMOST_EMPTY(mi_base, 8);
    1030:	e0bffa17 	ldw	r2,-24(fp)
    1034:	10800b04 	addi	r2,r2,44
    1038:	00c00204 	movi	r3,8
    103c:	10c00035 	stwio	r3,0(r2)
   IOWR_ALTERA_TSEMAC_RX_ALMOST_FULL(mi_base, 8);
    1040:	e0bffa17 	ldw	r2,-24(fp)
    1044:	10800c04 	addi	r2,r2,48
    1048:	00c00204 	movi	r3,8
    104c:	10c00035 	stwio	r3,0(r2)
   IOWR_ALTERA_TSEMAC_TX_ALMOST_EMPTY(mi_base, 8);
    1050:	e0bffa17 	ldw	r2,-24(fp)
    1054:	10800d04 	addi	r2,r2,52
    1058:	00c00204 	movi	r3,8
    105c:	10c00035 	stwio	r3,0(r2)
   IOWR_ALTERA_TSEMAC_TX_ALMOST_FULL(mi_base,  3);
    1060:	e0bffa17 	ldw	r2,-24(fp)
    1064:	10800e04 	addi	r2,r2,56
    1068:	00c000c4 	movi	r3,3
    106c:	10c00035 	stwio	r3,0(r2)
   IOWR_ALTERA_TSEMAC_TX_SECTION_EMPTY(mi_base, tse_hw->tse_tx_depth - 16); //1024/4;  
    1070:	e0bffa17 	ldw	r2,-24(fp)
    1074:	10800904 	addi	r2,r2,36
    1078:	e0fff717 	ldw	r3,-36(fp)
    107c:	18c0010b 	ldhu	r3,4(r3)
    1080:	18ffffcc 	andi	r3,r3,65535
    1084:	18fffc04 	addi	r3,r3,-16
    1088:	10c00035 	stwio	r3,0(r2)
   IOWR_ALTERA_TSEMAC_TX_SECTION_FULL(mi_base,  0); //32/4; // start transmit when there are 48 bytes
    108c:	e0bffa17 	ldw	r2,-24(fp)
    1090:	10800a04 	addi	r2,r2,40
    1094:	0007883a 	mov	r3,zero
    1098:	10c00035 	stwio	r3,0(r2)
   IOWR_ALTERA_TSEMAC_RX_SECTION_EMPTY(mi_base, tse_hw->tse_rx_depth - 16); //4000/4);
    109c:	e0bffa17 	ldw	r2,-24(fp)
    10a0:	10800704 	addi	r2,r2,28
    10a4:	e0fff717 	ldw	r3,-36(fp)
    10a8:	18c0018b 	ldhu	r3,6(r3)
    10ac:	18ffffcc 	andi	r3,r3,65535
    10b0:	18fffc04 	addi	r3,r3,-16
    10b4:	10c00035 	stwio	r3,0(r2)
   IOWR_ALTERA_TSEMAC_RX_SECTION_FULL(mi_base,  0);
    10b8:	e0bffa17 	ldw	r2,-24(fp)
    10bc:	10800804 	addi	r2,r2,32
    10c0:	0007883a 	mov	r3,zero
    10c4:	10c00035 	stwio	r3,0(r2)
   
   /* Enable TX shift 16 for removing two bytes from the start of all transmitted frames */
   IOWR_ALTERA_TSEMAC_TX_CMD_STAT(tse[iface].mi.base,ALTERA_TSEMAC_TX_CMD_STAT_TXSHIFT16_MSK);
    10c8:	00c00134 	movhi	r3,4
    10cc:	18d77b04 	addi	r3,r3,24044
    10d0:	e0bffe17 	ldw	r2,-8(fp)
    10d4:	1004917a 	slli	r2,r2,5
    10d8:	1885883a 	add	r2,r3,r2
    10dc:	10800017 	ldw	r2,0(r2)
    10e0:	10803a04 	addi	r2,r2,232
    10e4:	00c00134 	movhi	r3,4
    10e8:	10c00035 	stwio	r3,0(r2)
 
   /*
    * check if the MAC supports the 16-bit shift option allowing us
    * to send BIASed frames without copying. Used by the send function later.
    */
   if((IORD_ALTERA_TSEMAC_TX_CMD_STAT(tse[iface].mi.base) & ALTERA_TSEMAC_TX_CMD_STAT_TXSHIFT16_MSK) == 0)
    10ec:	00c00134 	movhi	r3,4
    10f0:	18d77b04 	addi	r3,r3,24044
    10f4:	e0bffe17 	ldw	r2,-8(fp)
    10f8:	1004917a 	slli	r2,r2,5
    10fc:	1885883a 	add	r2,r3,r2
    1100:	10800017 	ldw	r2,0(r2)
    1104:	10803a04 	addi	r2,r2,232
    1108:	10800037 	ldwio	r2,0(r2)
    110c:	1080012c 	andhi	r2,r2,4
    1110:	1000041e 	bne	r2,zero,1124 <tse_mac_init+0x480>
      {
      dprintf(("[tse_mac_init] Error: Incompatible %d value with TX_CMD_STAT register return TxShift16 value. \n",ETH_PAD_SIZE));
    1114:	01000084 	movi	r4,2
    1118:	00193f00 	call	193f0 <printf>
      return ERR_IF;
    111c:	00bffc44 	movi	r2,-15
    1120:	0000f506 	br	14f8 <tse_mac_init+0x854>
      }
  
   /* Enable RX shift 16 for alignment of all received frames on 16-bit start address */
   IOWR_ALTERA_TSEMAC_RX_CMD_STAT(tse[iface].mi.base,ALTERA_TSEMAC_RX_CMD_STAT_RXSHIFT16_MSK);
    1124:	00c00134 	movhi	r3,4
    1128:	18d77b04 	addi	r3,r3,24044
    112c:	e0bffe17 	ldw	r2,-8(fp)
    1130:	1004917a 	slli	r2,r2,5
    1134:	1885883a 	add	r2,r3,r2
    1138:	10800017 	ldw	r2,0(r2)
    113c:	10803b04 	addi	r2,r2,236
    1140:	00c08034 	movhi	r3,512
    1144:	10c00035 	stwio	r3,0(r2)
 
   /* check if the MAC supports the 16-bit shift option at the RX CMD STATUS Register  */ 
   if((IORD_ALTERA_TSEMAC_RX_CMD_STAT(tse[iface].mi.base) & ALTERA_TSEMAC_RX_CMD_STAT_RXSHIFT16_MSK) == 0)
    1148:	00c00134 	movhi	r3,4
    114c:	18d77b04 	addi	r3,r3,24044
    1150:	e0bffe17 	ldw	r2,-8(fp)
    1154:	1004917a 	slli	r2,r2,5
    1158:	1885883a 	add	r2,r3,r2
    115c:	10800017 	ldw	r2,0(r2)
    1160:	10803b04 	addi	r2,r2,236
    1164:	10800037 	ldwio	r2,0(r2)
    1168:	1080802c 	andhi	r2,r2,512
    116c:	1000041e 	bne	r2,zero,1180 <tse_mac_init+0x4dc>
      {
      dprintf(("[tse_mac_init] Error: Incompatible %d value with RX_CMD_STAT register return RxShift16 value. \n",ETH_PAD_SIZE));
    1170:	01000084 	movi	r4,2
    1174:	00193f00 	call	193f0 <printf>
      return ERR_IF;
    1178:	00bffc44 	movi	r2,-15
    117c:	0000de06 	br	14f8 <tse_mac_init+0x854>
      }
   
   /* enable MAC */
   dat = ALTERA_TSEMAC_CMD_TX_ENA_MSK       |
    1180:	00810034 	movhi	r2,1024
    1184:	108080c4 	addi	r2,r2,515
    1188:	e0bff315 	stw	r2,-52(fp)
         ALTERA_TSEMAC_CMD_LOOPBACK_MSK     |     // promiscuous mode
#endif
         ALTERA_TSEMAC_CMD_TX_ADDR_INS_MSK  |
         ALTERA_TSEMAC_CMD_RX_ERR_DISC_MSK;  /* automatically discard frames with CRC errors */
    
   if((result & ALT_TSE_E_AN_NOT_COMPLETE) == 0) 
    118c:	e0bffb17 	ldw	r2,-20(fp)
    1190:	1080022c 	andhi	r2,r2,8
    1194:	1000461e 	bne	r2,zero,12b0 <tse_mac_init+0x60c>
      {
	  speed = (result >> 1) & 0x07;
    1198:	e0bffb17 	ldw	r2,-20(fp)
    119c:	1005d07a 	srai	r2,r2,1
    11a0:	108001cc 	andi	r2,r2,7
    11a4:	e0bffc15 	stw	r2,-16(fp)
	  duplex = result & 0x01;
    11a8:	e0bffb17 	ldw	r2,-20(fp)
    11ac:	1080004c 	andi	r2,r2,1
    11b0:	e0bff415 	stw	r2,-48(fp)
  
      /* 1000 Mbps */
      if(speed == 0x01)
    11b4:	e0bffc17 	ldw	r2,-16(fp)
    11b8:	10800058 	cmpnei	r2,r2,1
    11bc:	1000121e 	bne	r2,zero,1208 <tse_mac_init+0x564>
         {
         dat |= ALTERA_TSEMAC_CMD_ETH_SPEED_MSK;
    11c0:	e0bff317 	ldw	r2,-52(fp)
    11c4:	10800214 	ori	r2,r2,8
    11c8:	e0bff315 	stw	r2,-52(fp)
         dat &= ~ALTERA_TSEMAC_CMD_ENA_10_MSK;
    11cc:	e0fff317 	ldw	r3,-52(fp)
    11d0:	00bf8034 	movhi	r2,65024
    11d4:	10bfffc4 	addi	r2,r2,-1
    11d8:	1884703a 	and	r2,r3,r2
    11dc:	e0bff315 	stw	r2,-52(fp)
         tse[iface].ethernetif->link_speed = 1000;
    11e0:	00c00134 	movhi	r3,4
    11e4:	18d77b04 	addi	r3,r3,24044
    11e8:	e0bffe17 	ldw	r2,-8(fp)
    11ec:	1004917a 	slli	r2,r2,5
    11f0:	1885883a 	add	r2,r3,r2
    11f4:	10800604 	addi	r2,r2,24
    11f8:	10800017 	ldw	r2,0(r2)
    11fc:	00c0fa04 	movi	r3,1000
    1200:	10c00315 	stw	r3,12(r2)
    1204:	00003306 	br	12d4 <tse_mac_init+0x630>
         }
      /* 100 Mbps */
      else if(speed == 0x02)
    1208:	e0bffc17 	ldw	r2,-16(fp)
    120c:	10800098 	cmpnei	r2,r2,2
    1210:	1000131e 	bne	r2,zero,1260 <tse_mac_init+0x5bc>
         {
         dat &= ~ALTERA_TSEMAC_CMD_ETH_SPEED_MSK;
    1214:	e0fff317 	ldw	r3,-52(fp)
    1218:	00bffdc4 	movi	r2,-9
    121c:	1884703a 	and	r2,r3,r2
    1220:	e0bff315 	stw	r2,-52(fp)
         dat &= ~ALTERA_TSEMAC_CMD_ENA_10_MSK;
    1224:	e0fff317 	ldw	r3,-52(fp)
    1228:	00bf8034 	movhi	r2,65024
    122c:	10bfffc4 	addi	r2,r2,-1
    1230:	1884703a 	and	r2,r3,r2
    1234:	e0bff315 	stw	r2,-52(fp)
         tse[iface].ethernetif->link_speed = 100;
    1238:	00c00134 	movhi	r3,4
    123c:	18d77b04 	addi	r3,r3,24044
    1240:	e0bffe17 	ldw	r2,-8(fp)
    1244:	1004917a 	slli	r2,r2,5
    1248:	1885883a 	add	r2,r3,r2
    124c:	10800604 	addi	r2,r2,24
    1250:	10800017 	ldw	r2,0(r2)
    1254:	00c01904 	movi	r3,100
    1258:	10c00315 	stw	r3,12(r2)
    125c:	00001d06 	br	12d4 <tse_mac_init+0x630>
         }
      /* 10 Mbps */
      else if(speed == 0x04)
    1260:	e0bffc17 	ldw	r2,-16(fp)
    1264:	10800118 	cmpnei	r2,r2,4
    1268:	10001a1e 	bne	r2,zero,12d4 <tse_mac_init+0x630>
         {
         dat &= ~ALTERA_TSEMAC_CMD_ETH_SPEED_MSK;
    126c:	e0fff317 	ldw	r3,-52(fp)
    1270:	00bffdc4 	movi	r2,-9
    1274:	1884703a 	and	r2,r3,r2
    1278:	e0bff315 	stw	r2,-52(fp)
         dat |= ALTERA_TSEMAC_CMD_ENA_10_MSK;
    127c:	e0bff317 	ldw	r2,-52(fp)
    1280:	10808034 	orhi	r2,r2,512
    1284:	e0bff315 	stw	r2,-52(fp)
         tse[iface].ethernetif->link_speed = 10;
    1288:	00c00134 	movhi	r3,4
    128c:	18d77b04 	addi	r3,r3,24044
    1290:	e0bffe17 	ldw	r2,-8(fp)
    1294:	1004917a 	slli	r2,r2,5
    1298:	1885883a 	add	r2,r3,r2
    129c:	10800604 	addi	r2,r2,24
    12a0:	10800017 	ldw	r2,0(r2)
    12a4:	00c00284 	movi	r3,10
    12a8:	10c00315 	stw	r3,12(r2)
    12ac:	00000906 	br	12d4 <tse_mac_init+0x630>
         }
      }
   /* default to 100 Mbps if returned invalid speed */
   else
      {
      dat &= ~ALTERA_TSEMAC_CMD_ETH_SPEED_MSK;
    12b0:	e0fff317 	ldw	r3,-52(fp)
    12b4:	00bffdc4 	movi	r2,-9
    12b8:	1884703a 	and	r2,r3,r2
    12bc:	e0bff315 	stw	r2,-52(fp)
      dat &= ~ALTERA_TSEMAC_CMD_ENA_10_MSK;
    12c0:	e0fff317 	ldw	r3,-52(fp)
    12c4:	00bf8034 	movhi	r2,65024
    12c8:	10bfffc4 	addi	r2,r2,-1
    12cc:	1884703a 	and	r2,r3,r2
    12d0:	e0bff315 	stw	r2,-52(fp)
      }
  
   /* Half Duplex */
   if(duplex == TSE_PHY_DUPLEX_HALF)
    12d4:	e0bff417 	ldw	r2,-48(fp)
    12d8:	10000c1e 	bne	r2,zero,130c <tse_mac_init+0x668>
      {
      dat |= ALTERA_TSEMAC_CMD_HD_ENA_MSK;
    12dc:	e0bff317 	ldw	r2,-52(fp)
    12e0:	10810014 	ori	r2,r2,1024
    12e4:	e0bff315 	stw	r2,-52(fp)
      tse[iface].ethernetif->full_duplex = 0;
    12e8:	00c00134 	movhi	r3,4
    12ec:	18d77b04 	addi	r3,r3,24044
    12f0:	e0bffe17 	ldw	r2,-8(fp)
    12f4:	1004917a 	slli	r2,r2,5
    12f8:	1885883a 	add	r2,r3,r2
    12fc:	10800604 	addi	r2,r2,24
    1300:	10800017 	ldw	r2,0(r2)
    1304:	10000415 	stw	zero,16(r2)
    1308:	00000d06 	br	1340 <tse_mac_init+0x69c>
      }
   /* Full Duplex */
   else
      {
      dat &= ~ALTERA_TSEMAC_CMD_HD_ENA_MSK;
    130c:	e0fff317 	ldw	r3,-52(fp)
    1310:	00beffc4 	movi	r2,-1025
    1314:	1884703a 	and	r2,r3,r2
    1318:	e0bff315 	stw	r2,-52(fp)
      tse[iface].ethernetif->full_duplex = 1;
    131c:	00c00134 	movhi	r3,4
    1320:	18d77b04 	addi	r3,r3,24044
    1324:	e0bffe17 	ldw	r2,-8(fp)
    1328:	1004917a 	slli	r2,r2,5
    132c:	1885883a 	add	r2,r3,r2
    1330:	10800604 	addi	r2,r2,24
    1334:	10800017 	ldw	r2,0(r2)
    1338:	00c00044 	movi	r3,1
    133c:	10c00415 	stw	r3,16(r2)
      }
          
   IOWR_ALTERA_TSEMAC_CMD_CONFIG(tse[iface].mi.base, dat);
    1340:	00c00134 	movhi	r3,4
    1344:	18d77b04 	addi	r3,r3,24044
    1348:	e0bffe17 	ldw	r2,-8(fp)
    134c:	1004917a 	slli	r2,r2,5
    1350:	1885883a 	add	r2,r3,r2
    1354:	10800017 	ldw	r2,0(r2)
    1358:	10800204 	addi	r2,r2,8
    135c:	e0fff317 	ldw	r3,-52(fp)
    1360:	10c00035 	stwio	r3,0(r2)
   printf("\nMAC post-initialization: CMD_CONFIG=0x%08x\n", 
    IORD_ALTERA_TSEMAC_CMD_CONFIG(tse[iface].mi.base));
    1364:	00c00134 	movhi	r3,4
    1368:	18d77b04 	addi	r3,r3,24044
    136c:	e0bffe17 	ldw	r2,-8(fp)
    1370:	1004917a 	slli	r2,r2,5
    1374:	1885883a 	add	r2,r3,r2
    1378:	10800017 	ldw	r2,0(r2)
      dat &= ~ALTERA_TSEMAC_CMD_HD_ENA_MSK;
      tse[iface].ethernetif->full_duplex = 1;
      }
          
   IOWR_ALTERA_TSEMAC_CMD_CONFIG(tse[iface].mi.base, dat);
   printf("\nMAC post-initialization: CMD_CONFIG=0x%08x\n", 
    137c:	10800204 	addi	r2,r2,8
    1380:	10800037 	ldwio	r2,0(r2)
    1384:	010000f4 	movhi	r4,3
    1388:	213c7804 	addi	r4,r4,-3616
    138c:	100b883a 	mov	r5,r2
    1390:	00193f00 	call	193f0 <printf>
    IORD_ALTERA_TSEMAC_CMD_CONFIG(tse[iface].mi.base));
  
   /* Set the MAC address */
     IOWR_ALTERA_TSEMAC_MAC_0(mi_base,
    1394:	e0bffa17 	ldw	r2,-24(fp)
    1398:	10800304 	addi	r2,r2,12
    139c:	e0ffff17 	ldw	r3,-4(fp)
    13a0:	18c00017 	ldw	r3,0(r3)
    13a4:	18c00003 	ldbu	r3,0(r3)
    13a8:	19003fcc 	andi	r4,r3,255
    13ac:	e0ffff17 	ldw	r3,-4(fp)
    13b0:	18c00017 	ldw	r3,0(r3)
    13b4:	18c00043 	ldbu	r3,1(r3)
    13b8:	18c03fcc 	andi	r3,r3,255
    13bc:	1806923a 	slli	r3,r3,8
    13c0:	20c8b03a 	or	r4,r4,r3
    13c4:	e0ffff17 	ldw	r3,-4(fp)
    13c8:	18c00017 	ldw	r3,0(r3)
    13cc:	18c00083 	ldbu	r3,2(r3)
    13d0:	18c03fcc 	andi	r3,r3,255
    13d4:	1806943a 	slli	r3,r3,16
    13d8:	20c8b03a 	or	r4,r4,r3
    13dc:	e0ffff17 	ldw	r3,-4(fp)
    13e0:	18c00017 	ldw	r3,0(r3)
    13e4:	18c000c3 	ldbu	r3,3(r3)
    13e8:	18c03fcc 	andi	r3,r3,255
    13ec:	1806963a 	slli	r3,r3,24
    13f0:	20c6b03a 	or	r3,r4,r3
    13f4:	10c00035 	stwio	r3,0(r2)
                             ((int)((unsigned char) ethernetif->ethaddr->addr[0]) |
                              (int)((unsigned char) ethernetif->ethaddr->addr[1] <<  8) |
                              (int)((unsigned char) ethernetif->ethaddr->addr[2] << 16) |
                              (int)((unsigned char) ethernetif->ethaddr->addr[3] << 24)));

     IOWR_ALTERA_TSEMAC_MAC_1(mi_base,
    13f8:	e0bffa17 	ldw	r2,-24(fp)
    13fc:	10800404 	addi	r2,r2,16
    1400:	e0ffff17 	ldw	r3,-4(fp)
    1404:	18c00017 	ldw	r3,0(r3)
    1408:	18c00103 	ldbu	r3,4(r3)
    140c:	19003fcc 	andi	r4,r3,255
    1410:	e0ffff17 	ldw	r3,-4(fp)
    1414:	18c00017 	ldw	r3,0(r3)
    1418:	18c00143 	ldbu	r3,5(r3)
    141c:	18c03fcc 	andi	r3,r3,255
    1420:	1806923a 	slli	r3,r3,8
    1424:	20c6b03a 	or	r3,r4,r3
    1428:	18ffffcc 	andi	r3,r3,65535
    142c:	10c00035 	stwio	r3,0(r2)
                             (((int)((unsigned char) ethernetif->ethaddr->addr[4]) |
                               (int)((unsigned char) ethernetif->ethaddr->addr[5] <<  8)) & 0xFFFF));
                                
   alt_avalon_sgdma_register_callback(tse[iface].mi.rx_sgdma,
    1430:	00c00134 	movhi	r3,4
    1434:	18d77b04 	addi	r3,r3,24044
    1438:	e0bffe17 	ldw	r2,-8(fp)
    143c:	1004917a 	slli	r2,r2,5
    1440:	1885883a 	add	r2,r3,r2
    1444:	10800204 	addi	r2,r2,8
    1448:	10c00017 	ldw	r3,0(r2)
#ifndef ALTERA_TSE_IRQ_R
        (alt_avalon_sgdma_callback)&tse_sgdmaRx_isr,
#else
        (alt_avalon_sgdma_callback)&ALTERA_TSE_IRQ_R,
#endif
        (alt_u16)ALTERA_TSE_SGDMA_INTR_MASK,(void*)(&tse[iface]));
    144c:	e0bffe17 	ldw	r2,-8(fp)
    1450:	1008917a 	slli	r4,r2,5
    1454:	00800134 	movhi	r2,4
    1458:	10977b04 	addi	r2,r2,24044
    145c:	2085883a 	add	r2,r4,r2

     IOWR_ALTERA_TSEMAC_MAC_1(mi_base,
                             (((int)((unsigned char) ethernetif->ethaddr->addr[4]) |
                               (int)((unsigned char) ethernetif->ethaddr->addr[5] <<  8)) & 0xFFFF));
                                
   alt_avalon_sgdma_register_callback(tse[iface].mi.rx_sgdma,
    1460:	1809883a 	mov	r4,r3
    1464:	01400034 	movhi	r5,0
    1468:	29457104 	addi	r5,r5,5572
    146c:	01800604 	movi	r6,24
    1470:	100f883a 	mov	r7,r2
    1474:	00263780 	call	26378 <alt_avalon_sgdma_register_callback>
#else
        (alt_avalon_sgdma_callback)&ALTERA_TSE_IRQ_R,
#endif
        (alt_u16)ALTERA_TSE_SGDMA_INTR_MASK,(void*)(&tse[iface]));
    
   tse_sgdma_read_init(&tse[iface]);
    1478:	e0bffe17 	ldw	r2,-8(fp)
    147c:	1006917a 	slli	r3,r2,5
    1480:	00800134 	movhi	r2,4
    1484:	10977b04 	addi	r2,r2,24044
    1488:	1885883a 	add	r2,r3,r2
    148c:	1009883a 	mov	r4,r2
    1490:	000150c0 	call	150c <tse_sgdma_read_init>
   //tse_sgdma_write_init(&tse[iface]);
   

   pmac_info = alt_tse_get_mac_info(mi_base);
    1494:	e13ffa17 	ldw	r4,-24(fp)
    1498:	002802c0 	call	2802c <alt_tse_get_mac_info>
    149c:	e0bffd15 	stw	r2,-12(fp)
   alt_tse_phy_wr_mdio_addr(pmac_info->pphy_info, pmac_info->pphy_info->mdio_address);
    14a0:	e0bffd17 	ldw	r2,-12(fp)
    14a4:	10c00117 	ldw	r3,4(r2)
    14a8:	e0bffd17 	ldw	r2,-12(fp)
    14ac:	10800117 	ldw	r2,4(r2)
    14b0:	10800003 	ldbu	r2,0(r2)
    14b4:	10803fcc 	andi	r2,r2,255
    14b8:	1809883a 	mov	r4,r3
    14bc:	100b883a 	mov	r5,r2
    14c0:	0028d2c0 	call	28d2c <alt_tse_phy_wr_mdio_addr>
   ethernetif->link_alive = alt_tse_phy_rd_mdio_reg(pmac_info->pphy_info, TSE_PHY_MDIO_STATUS, TSE_PHY_MDIO_STATUS_AN_COMPLETE, 1) != 0;
    14c4:	e0bffd17 	ldw	r2,-12(fp)
    14c8:	10800117 	ldw	r2,4(r2)
    14cc:	1009883a 	mov	r4,r2
    14d0:	01400044 	movi	r5,1
    14d4:	01800144 	movi	r6,5
    14d8:	01c00044 	movi	r7,1
    14dc:	0028eb00 	call	28eb0 <alt_tse_phy_rd_mdio_reg>
    14e0:	1004c03a 	cmpne	r2,r2,zero
    14e4:	10c03fcc 	andi	r3,r2,255
    14e8:	e0bfff17 	ldw	r2,-4(fp)
    14ec:	10c00215 	stw	r3,8(r2)
   //IOWR_ALTERA_AVALON_SGDMA_CONTROL(tse[iface].mi.rx_sgdma->base,ALTERA_AVALON_SGDMA_CONTROL_SOFTWARERESET_MSK);
   //IOWR_ALTERA_AVALON_SGDMA_CONTROL(tse[iface].mi.rx_sgdma->base, 0x0);
   //IOWR_ALTERA_AVALON_SGDMA_CONTROL(tse[iface].mi.rx_sgdma, 0xff);
   

   return ethernetif->link_alive;
    14f0:	e0bfff17 	ldw	r2,-4(fp)
    14f4:	10800217 	ldw	r2,8(r2)
}
    14f8:	e037883a 	mov	sp,fp
    14fc:	dfc00117 	ldw	ra,4(sp)
    1500:	df000017 	ldw	fp,0(sp)
    1504:	dec00204 	addi	sp,sp,8
    1508:	f800283a 	ret

0000150c <tse_sgdma_read_init>:
 * 
 * @API TYPE - Internal
 * @return SUCCESS on success 
 */
int tse_sgdma_read_init(lwip_tse_info* tse_ptr)
{     
    150c:	defffb04 	addi	sp,sp,-20
    1510:	dfc00415 	stw	ra,16(sp)
    1514:	df000315 	stw	fp,12(sp)
    1518:	df000304 	addi	fp,sp,12
    151c:	e13fff15 	stw	r4,-4(fp)
   struct ethernetif *ethernetif;
  
   ethernetif = tse_ptr->ethernetif;
    1520:	e0bfff17 	ldw	r2,-4(fp)
    1524:	10800617 	ldw	r2,24(r2)
    1528:	e0bffe15 	stw	r2,-8(fp)
  
   alt_avalon_sgdma_construct_stream_to_mem_desc(
         (alt_sgdma_descriptor *) &tse_ptr->desc[ALTERA_TSE_FIRST_RX_SGDMA_DESC_OFST],  // descriptor I want to work with
    152c:	e0bfff17 	ldw	r2,-4(fp)
    1530:	10800517 	ldw	r2,20(r2)
{     
   struct ethernetif *ethernetif;
  
   ethernetif = tse_ptr->ethernetif;
  
   alt_avalon_sgdma_construct_stream_to_mem_desc(
    1534:	11001004 	addi	r4,r2,64
         (alt_sgdma_descriptor *) &tse_ptr->desc[ALTERA_TSE_FIRST_RX_SGDMA_DESC_OFST],  // descriptor I want to work with
         (alt_sgdma_descriptor *) &tse_ptr->desc[ALTERA_TSE_SECOND_RX_SGDMA_DESC_OFST],  // pointer to "next"
    1538:	e0bfff17 	ldw	r2,-4(fp)
    153c:	10800517 	ldw	r2,20(r2)
{     
   struct ethernetif *ethernetif;
  
   ethernetif = tse_ptr->ethernetif;
  
   alt_avalon_sgdma_construct_stream_to_mem_desc(
    1540:	10c01804 	addi	r3,r2,96
         (alt_sgdma_descriptor *) &tse_ptr->desc[ALTERA_TSE_FIRST_RX_SGDMA_DESC_OFST],  // descriptor I want to work with
         (alt_sgdma_descriptor *) &tse_ptr->desc[ALTERA_TSE_SECOND_RX_SGDMA_DESC_OFST],  // pointer to "next"
         (alt_u32 *) ethernetif->lwipRxPbuf[tse_ptr->ethernetif->lwipRxIndexIsr]->payload,          // starting write_address
    1544:	e0bfff17 	ldw	r2,-4(fp)
    1548:	10800617 	ldw	r2,24(r2)
    154c:	10801317 	ldw	r2,76(r2)
    1550:	e17ffe17 	ldw	r5,-8(fp)
    1554:	108001c4 	addi	r2,r2,7
    1558:	1085883a 	add	r2,r2,r2
    155c:	1085883a 	add	r2,r2,r2
    1560:	2885883a 	add	r2,r5,r2
    1564:	10800017 	ldw	r2,0(r2)
    1568:	10800117 	ldw	r2,4(r2)
{     
   struct ethernetif *ethernetif;
  
   ethernetif = tse_ptr->ethernetif;
  
   alt_avalon_sgdma_construct_stream_to_mem_desc(
    156c:	d8000015 	stw	zero,0(sp)
    1570:	180b883a 	mov	r5,r3
    1574:	100d883a 	mov	r6,r2
    1578:	000f883a 	mov	r7,zero
    157c:	00261a40 	call	261a4 <alt_avalon_sgdma_construct_stream_to_mem_desc>
         (alt_u32 *) ethernetif->lwipRxPbuf[tse_ptr->ethernetif->lwipRxIndexIsr]->payload,          // starting write_address
         0,                                  // read until EOP
         0);          // don't write to constant address


   printf("[tse_sgdma_read_init] RX descriptor chain desc (%d depth) created\n",0); 
    1580:	010000f4 	movhi	r4,3
    1584:	213c8404 	addi	r4,r4,-3568
    1588:	000b883a 	mov	r5,zero
    158c:	00193f00 	call	193f0 <printf>
   
   tse_mac_aRxRead( &tse_ptr->mi, &tse_ptr->desc[ALTERA_TSE_FIRST_RX_SGDMA_DESC_OFST]);
    1590:	e0ffff17 	ldw	r3,-4(fp)
    1594:	e0bfff17 	ldw	r2,-4(fp)
    1598:	10800517 	ldw	r2,20(r2)
    159c:	10801004 	addi	r2,r2,64
    15a0:	1809883a 	mov	r4,r3
    15a4:	100b883a 	mov	r5,r2
    15a8:	0026f300 	call	26f30 <tse_mac_aRxRead>
  
   return SUCCESS;
    15ac:	0005883a 	mov	r2,zero
}
    15b0:	e037883a 	mov	sp,fp
    15b4:	dfc00117 	ldw	ra,4(sp)
    15b8:	df000017 	ldw	fp,0(sp)
    15bc:	dec00204 	addi	sp,sp,8
    15c0:	f800283a 	ret

000015c4 <tse_sgdmaRx_isr>:
 * @API TYPE - callback
 * @param  context  - context of the TSE MAC instance
 * @param  intnum - temporary storage
 */
int tse_sgdmaRx_isr(void * context, u_long intnum)
{
    15c4:	defffb04 	addi	sp,sp,-20
    15c8:	dfc00415 	stw	ra,16(sp)
    15cc:	df000315 	stw	fp,12(sp)
    15d0:	df000304 	addi	fp,sp,12
    15d4:	e13ffe15 	stw	r4,-8(fp)
    15d8:	e17fff15 	stw	r5,-4(fp)
   lwip_tse_info* tse_ptr = (lwip_tse_info *) context;
    15dc:	e0bffe17 	ldw	r2,-8(fp)
    15e0:	e0bffd15 	stw	r2,-12(fp)

   IOWR_ALTERA_AVALON_SGDMA_CONTROL(&tse_ptr->mi.rx_sgdma->base,ALTERA_AVALON_SGDMA_CONTROL_CLEAR_INTERRUPT_MSK);
    15e4:	e0bffd17 	ldw	r2,-12(fp)
    15e8:	10800217 	ldw	r2,8(r2)
    15ec:	10800304 	addi	r2,r2,12
    15f0:	10800404 	addi	r2,r2,16
    15f4:	00e00034 	movhi	r3,32768
    15f8:	10c00035 	stwio	r3,0(r2)
   tse_mac_rcv(tse_ptr->ethernetif);    
    15fc:	e0bffd17 	ldw	r2,-12(fp)
    1600:	10800617 	ldw	r2,24(r2)
    1604:	1009883a 	mov	r4,r2
    1608:	00017c80 	call	17c8 <tse_mac_rcv>
   tse_mac_aRxRead( &tse_ptr->mi, &tse_ptr->desc[ALTERA_TSE_FIRST_RX_SGDMA_DESC_OFST]);
    160c:	e0fffd17 	ldw	r3,-12(fp)
    1610:	e0bffd17 	ldw	r2,-12(fp)
    1614:	10800517 	ldw	r2,20(r2)
    1618:	10801004 	addi	r2,r2,64
    161c:	1809883a 	mov	r4,r3
    1620:	100b883a 	mov	r5,r2
    1624:	0026f300 	call	26f30 <tse_mac_aRxRead>
   IOWR_ALTERA_AVALON_SGDMA_CONTROL(&tse_ptr->mi.rx_sgdma->base, ALTERA_TSE_SGDMA_INTR_MASK);
    1628:	e0bffd17 	ldw	r2,-12(fp)
    162c:	10800217 	ldw	r2,8(r2)
    1630:	10800304 	addi	r2,r2,12
    1634:	10800404 	addi	r2,r2,16
    1638:	00c00604 	movi	r3,24
    163c:	10c00035 	stwio	r3,0(r2)
  
   return SUCCESS;
    1640:	0005883a 	mov	r2,zero
}
    1644:	e037883a 	mov	sp,fp
    1648:	dfc00117 	ldw	ra,4(sp)
    164c:	df000017 	ldw	fp,0(sp)
    1650:	dec00204 	addi	sp,sp,8
    1654:	f800283a 	ret

00001658 <tse_mac_raw_send>:
 * @param  data_bytes - number of bytes of the data payload to be sent to the MAC
 * @return SUCCESS if success, else a negative value
 */

err_t tse_mac_raw_send(struct netif *netif, struct pbuf *pkt)
{
    1658:	defe6a04 	addi	sp,sp,-1624
    165c:	dfc19515 	stw	ra,1620(sp)
    1660:	df019415 	stw	fp,1616(sp)
    1664:	df019404 	addi	fp,sp,1616
    1668:	e13ffe15 	stw	r4,-8(fp)
    166c:	e17fff15 	stw	r5,-4(fp)
   unsigned int       *ActualData;

   /* Intermediate buffers used for temporary copy of frames that cannot be directrly DMA'ed*/
   char buf2[1560];

   ethernetif = netif->state;
    1670:	e0bffe17 	ldw	r2,-8(fp)
    1674:	10800717 	ldw	r2,28(r2)
    1678:	e0be7215 	stw	r2,-1592(fp)
   tse_ptr = ethernetif->tse_info;
    167c:	e0be7217 	ldw	r2,-1592(fp)
    1680:	10801617 	ldw	r2,88(r2)
    1684:	e0be7315 	stw	r2,-1588(fp)
   mi = &tse_ptr->mi;
    1688:	e0be7317 	ldw	r2,-1588(fp)
    168c:	e0be7415 	stw	r2,-1584(fp)
  
   for(p = pkt; p != NULL; p = p->next)
    1690:	e0bfff17 	ldw	r2,-4(fp)
    1694:	e0be7015 	stw	r2,-1600(fp)
    1698:	00003b06 	br	1788 <tse_mac_raw_send+0x130>
      {
      data = p->payload;
    169c:	e0be7017 	ldw	r2,-1600(fp)
    16a0:	10800117 	ldw	r2,4(r2)
    16a4:	e0be7115 	stw	r2,-1596(fp)
      len = p->len;
    16a8:	e0be7017 	ldw	r2,-1600(fp)
    16ac:	1080028b 	ldhu	r2,10(r2)
    16b0:	10bfffcc 	andi	r2,r2,65535
    16b4:	e0be7515 	stw	r2,-1580(fp)
       
      if(((unsigned long)data & 0x03) != 0) 
    16b8:	e0be7117 	ldw	r2,-1596(fp)
    16bc:	108000cc 	andi	r2,r2,3
    16c0:	10000726 	beq	r2,zero,16e0 <tse_mac_raw_send+0x88>
         /* 
          * Copy data to temporary buffer <buf2>. This is done because of allignment 
          * issues. The SGDMA cannot copy the data directly from (data + ETH_PAD_SIZE)
          * because it needs a 32-bit alligned address space. 
          */
         memcpy(buf2,data,len);
    16c4:	e0be7804 	addi	r2,fp,-1568
    16c8:	1009883a 	mov	r4,r2
    16cc:	e17e7117 	ldw	r5,-1596(fp)
    16d0:	e1be7517 	ldw	r6,-1580(fp)
    16d4:	00191f00 	call	191f0 <memcpy>
         data = (alt_u32 *)buf2;
    16d8:	e0be7804 	addi	r2,fp,-1568
    16dc:	e0be7115 	stw	r2,-1596(fp)
         }  
       
      ActualData = (void *)alt_remap_uncached (data, len);
    16e0:	e13e7117 	ldw	r4,-1596(fp)
    16e4:	e17e7517 	ldw	r5,-1580(fp)
    16e8:	00221400 	call	22140 <alt_remap_uncached>
    16ec:	e0be7615 	stw	r2,-1576(fp)
      /* Write data to Tx FIFO using the DMA */
      alt_avalon_sgdma_construct_mem_to_stream_desc(
           (alt_sgdma_descriptor *) &tse_ptr->desc[ALTERA_TSE_FIRST_TX_SGDMA_DESC_OFST], // descriptor I want to work with
    16f0:	e0be7317 	ldw	r2,-1588(fp)
         data = (alt_u32 *)buf2;
         }  
       
      ActualData = (void *)alt_remap_uncached (data, len);
      /* Write data to Tx FIFO using the DMA */
      alt_avalon_sgdma_construct_mem_to_stream_desc(
    16f4:	11000517 	ldw	r4,20(r2)
           (alt_sgdma_descriptor *) &tse_ptr->desc[ALTERA_TSE_FIRST_TX_SGDMA_DESC_OFST], // descriptor I want to work with
           (alt_sgdma_descriptor *) &tse_ptr->desc[ALTERA_TSE_SECOND_TX_SGDMA_DESC_OFST],// pointer to "next"
    16f8:	e0be7317 	ldw	r2,-1588(fp)
    16fc:	10800517 	ldw	r2,20(r2)
         data = (alt_u32 *)buf2;
         }  
       
      ActualData = (void *)alt_remap_uncached (data, len);
      /* Write data to Tx FIFO using the DMA */
      alt_avalon_sgdma_construct_mem_to_stream_desc(
    1700:	10c00804 	addi	r3,r2,32
    1704:	e0be7517 	ldw	r2,-1580(fp)
    1708:	10bfffcc 	andi	r2,r2,65535
    170c:	e1be7017 	ldw	r6,-1600(fp)
    1710:	e17fff17 	ldw	r5,-4(fp)
    1714:	314b003a 	cmpeq	r5,r6,r5
    1718:	29803fcc 	andi	r6,r5,255
           (alt_sgdma_descriptor *) &tse_ptr->desc[ALTERA_TSE_SECOND_TX_SGDMA_DESC_OFST],// pointer to "next"
           (alt_u32*)ActualData,                    // starting read address
           (len),                                   // # bytes
           0,                                       // don't read from constant address
           p == pkt,                                // generate sop
           p->next == NULL,                         // generate endofpacket signal
    171c:	e17e7017 	ldw	r5,-1600(fp)
    1720:	29400017 	ldw	r5,0(r5)
         data = (alt_u32 *)buf2;
         }  
       
      ActualData = (void *)alt_remap_uncached (data, len);
      /* Write data to Tx FIFO using the DMA */
      alt_avalon_sgdma_construct_mem_to_stream_desc(
    1724:	280b003a 	cmpeq	r5,r5,zero
    1728:	29403fcc 	andi	r5,r5,255
    172c:	d8000015 	stw	zero,0(sp)
    1730:	d9800115 	stw	r6,4(sp)
    1734:	d9400215 	stw	r5,8(sp)
    1738:	d8000315 	stw	zero,12(sp)
    173c:	180b883a 	mov	r5,r3
    1740:	e1be7617 	ldw	r6,-1576(fp)
    1744:	100f883a 	mov	r7,r2
    1748:	00262740 	call	26274 <alt_avalon_sgdma_construct_mem_to_stream_desc>
           0,                                       // don't read from constant address
           p == pkt,                                // generate sop
           p->next == NULL,                         // generate endofpacket signal
           0);                                      // atlantic channel (don't know/don't care: set to 0)
                  
      tx_length = tse_mac_sTxWrite(mi,&tse_ptr->desc[ALTERA_TSE_FIRST_TX_SGDMA_DESC_OFST]);
    174c:	e0be7317 	ldw	r2,-1588(fp)
    1750:	10800517 	ldw	r2,20(r2)
    1754:	e13e7417 	ldw	r4,-1584(fp)
    1758:	100b883a 	mov	r5,r2
    175c:	0026e500 	call	26e50 <tse_mac_sTxWrite>
    1760:	e0be7715 	stw	r2,-1572(fp)
      ethernetif->bytes_sent += tx_length;
    1764:	e0be7217 	ldw	r2,-1592(fp)
    1768:	10c00517 	ldw	r3,20(r2)
    176c:	e0be7717 	ldw	r2,-1572(fp)
    1770:	1887883a 	add	r3,r3,r2
    1774:	e0be7217 	ldw	r2,-1592(fp)
    1778:	10c00515 	stw	r3,20(r2)

   ethernetif = netif->state;
   tse_ptr = ethernetif->tse_info;
   mi = &tse_ptr->mi;
  
   for(p = pkt; p != NULL; p = p->next)
    177c:	e0be7017 	ldw	r2,-1600(fp)
    1780:	10800017 	ldw	r2,0(r2)
    1784:	e0be7015 	stw	r2,-1600(fp)
    1788:	e0be7017 	ldw	r2,-1600(fp)
    178c:	103fc31e 	bne	r2,zero,169c <tse_mac_raw_send+0x44>
           0);                                      // atlantic channel (don't know/don't care: set to 0)
                  
      tx_length = tse_mac_sTxWrite(mi,&tse_ptr->desc[ALTERA_TSE_FIRST_TX_SGDMA_DESC_OFST]);
      ethernetif->bytes_sent += tx_length;
      }
   LINK_STATS_INC(link.xmit);
    1790:	00800234 	movhi	r2,8
    1794:	1083bd04 	addi	r2,r2,3828
    1798:	1080000b 	ldhu	r2,0(r2)
    179c:	10800044 	addi	r2,r2,1
    17a0:	1007883a 	mov	r3,r2
    17a4:	00800234 	movhi	r2,8
    17a8:	1083bd04 	addi	r2,r2,3828
    17ac:	10c0000d 	sth	r3,0(r2)
   return ERR_OK;
    17b0:	0005883a 	mov	r2,zero
}
    17b4:	e037883a 	mov	sp,fp
    17b8:	dfc00117 	ldw	ra,4(sp)
    17bc:	df000017 	ldw	fp,0(sp)
    17c0:	dec00204 	addi	sp,sp,8
    17c4:	f800283a 	ret

000017c8 <tse_mac_rcv>:
 * 
 * @API TYPE        - callback internal function
 * @return SUCCESS on success
 */
int tse_mac_rcv(struct ethernetif *ethernetif)
{     
    17c8:	defff804 	addi	sp,sp,-32
    17cc:	dfc00715 	stw	ra,28(sp)
    17d0:	df000615 	stw	fp,24(sp)
    17d4:	df000604 	addi	fp,sp,24
    17d8:	e13fff15 	stw	r4,-4(fp)
   int pklen;
   lwip_tse_info* tse_ptr;
   alt_u32 *uncached_packet_payload;
   struct pbuf *p;
  
   tse_ptr = ethernetif->tse_info;
    17dc:	e0bfff17 	ldw	r2,-4(fp)
    17e0:	10801617 	ldw	r2,88(r2)
    17e4:	e0bffb15 	stw	r2,-20(fp)
   pklen = IORD_16DIRECT(&(tse_ptr->desc[ALTERA_TSE_FIRST_RX_SGDMA_DESC_OFST].actual_bytes_transferred),0);
    17e8:	e0bffb17 	ldw	r2,-20(fp)
    17ec:	10800517 	ldw	r2,20(r2)
    17f0:	10801004 	addi	r2,r2,64
    17f4:	10800704 	addi	r2,r2,28
    17f8:	1080002b 	ldhuio	r2,0(r2)
    17fc:	10bfffcc 	andi	r2,r2,65535
    1800:	e0bffc15 	stw	r2,-16(fp)
   p = ethernetif->lwipRxPbuf[ethernetif->lwipRxIndexIsr];
    1804:	e0bfff17 	ldw	r2,-4(fp)
    1808:	10801317 	ldw	r2,76(r2)
    180c:	e0ffff17 	ldw	r3,-4(fp)
    1810:	108001c4 	addi	r2,r2,7
    1814:	1085883a 	add	r2,r2,r2
    1818:	1085883a 	add	r2,r2,r2
    181c:	1885883a 	add	r2,r3,r2
    1820:	10800017 	ldw	r2,0(r2)
    1824:	e0bffd15 	stw	r2,-12(fp)
   p->tot_len = pklen;
    1828:	e0bffc17 	ldw	r2,-16(fp)
    182c:	1007883a 	mov	r3,r2
    1830:	e0bffd17 	ldw	r2,-12(fp)
    1834:	10c0020d 	sth	r3,8(r2)
   p->len = pklen;
    1838:	e0bffc17 	ldw	r2,-16(fp)
    183c:	1007883a 	mov	r3,r2
    1840:	e0bffd17 	ldw	r2,-12(fp)
    1844:	10c0028d 	sth	r3,10(r2)
   if ((IORD_ALTERA_TSE_SGDMA_DESC_STATUS(&tse_ptr->desc[ALTERA_TSE_FIRST_RX_SGDMA_DESC_OFST]) & ( ALTERA_AVALON_SGDMA_DESCRIPTOR_STATUS_E_CRC_MSK | ALTERA_AVALON_SGDMA_DESCRIPTOR_STATUS_E_PARITY_MSK | ALTERA_AVALON_SGDMA_DESCRIPTOR_STATUS_E_OVERFLOW_MSK |ALTERA_AVALON_SGDMA_DESCRIPTOR_STATUS_E_SYNC_MSK | ALTERA_AVALON_SGDMA_DESCRIPTOR_STATUS_E_UEOP_MSK | ALTERA_AVALON_SGDMA_DESCRIPTOR_STATUS_E_MEOP_MSK | ALTERA_AVALON_SGDMA_DESCRIPTOR_STATUS_E_MSOP_MSK )) == 0)
    1848:	e0bffb17 	ldw	r2,-20(fp)
    184c:	10800517 	ldw	r2,20(r2)
    1850:	10801704 	addi	r2,r2,92
    1854:	10800037 	ldwio	r2,0(r2)
    1858:	1005d43a 	srai	r2,r2,16
    185c:	10801fcc 	andi	r2,r2,127
    1860:	1000261e 	bne	r2,zero,18fc <tse_mac_rcv+0x134>
      {
      if( ethernetif->lwipRxCount > LWIP_RX_ETH_BUFFER )
    1864:	e0bfff17 	ldw	r2,-4(fp)
    1868:	10801517 	ldw	r2,84(r2)
    186c:	10800350 	cmplti	r2,r2,13
    1870:	10000c1e 	bne	r2,zero,18a4 <tse_mac_rcv+0xdc>
         {    
         LINK_STATS_INC(link.drop);
    1874:	00800234 	movhi	r2,8
    1878:	1083bd04 	addi	r2,r2,3828
    187c:	1080018b 	ldhu	r2,6(r2)
    1880:	10800044 	addi	r2,r2,1
    1884:	1007883a 	mov	r3,r2
    1888:	00800234 	movhi	r2,8
    188c:	1083bd04 	addi	r2,r2,3828
    1890:	10c0018d 	sth	r3,6(r2)
         dprintf(("No free buffers for rx\n"));
    1894:	010000f4 	movhi	r4,3
    1898:	213c9504 	addi	r4,r4,-3500
    189c:	001965c0 	call	1965c <puts>
    18a0:	00001606 	br	18fc <tse_mac_rcv+0x134>
         }
      else 
         {
         ethernetif->bytes_recv += pklen;
    18a4:	e0bfff17 	ldw	r2,-4(fp)
    18a8:	10c00617 	ldw	r3,24(r2)
    18ac:	e0bffc17 	ldw	r2,-16(fp)
    18b0:	1887883a 	add	r3,r3,r2
    18b4:	e0bfff17 	ldw	r2,-4(fp)
    18b8:	10c00615 	stw	r3,24(r2)
         //  Set up DMA for the next pbuf in the buffer
         ++ethernetif->lwipRxCount;
    18bc:	e0bfff17 	ldw	r2,-4(fp)
    18c0:	10801517 	ldw	r2,84(r2)
    18c4:	10c00044 	addi	r3,r2,1
    18c8:	e0bfff17 	ldw	r2,-4(fp)
    18cc:	10c01515 	stw	r3,84(r2)
         if( ++ethernetif->lwipRxIndexIsr >= LWIP_RX_ETH_BUFFER )
    18d0:	e0bfff17 	ldw	r2,-4(fp)
    18d4:	10801317 	ldw	r2,76(r2)
    18d8:	10c00044 	addi	r3,r2,1
    18dc:	e0bfff17 	ldw	r2,-4(fp)
    18e0:	10c01315 	stw	r3,76(r2)
    18e4:	e0bfff17 	ldw	r2,-4(fp)
    18e8:	10801317 	ldw	r2,76(r2)
    18ec:	10800310 	cmplti	r2,r2,12
    18f0:	1000021e 	bne	r2,zero,18fc <tse_mac_rcv+0x134>
            ethernetif->lwipRxIndexIsr = 0;
    18f4:	e0bfff17 	ldw	r2,-4(fp)
    18f8:	10001315 	stw	zero,76(r2)
         }
      }      

   uncached_packet_payload = (alt_u32 *) ethernetif->lwipRxPbuf[ethernetif->lwipRxIndexIsr]->payload;
    18fc:	e0bfff17 	ldw	r2,-4(fp)
    1900:	10801317 	ldw	r2,76(r2)
    1904:	e0ffff17 	ldw	r3,-4(fp)
    1908:	108001c4 	addi	r2,r2,7
    190c:	1085883a 	add	r2,r2,r2
    1910:	1085883a 	add	r2,r2,r2
    1914:	1885883a 	add	r2,r3,r2
    1918:	10800017 	ldw	r2,0(r2)
    191c:	10800117 	ldw	r2,4(r2)
    1920:	e0bffe15 	stw	r2,-8(fp)
   alt_avalon_sgdma_construct_stream_to_mem_desc(
         (alt_sgdma_descriptor *) &tse_ptr->desc[ALTERA_TSE_FIRST_RX_SGDMA_DESC_OFST],  // descriptor I want to work with
    1924:	e0bffb17 	ldw	r2,-20(fp)
    1928:	10800517 	ldw	r2,20(r2)
            ethernetif->lwipRxIndexIsr = 0;
         }
      }      

   uncached_packet_payload = (alt_u32 *) ethernetif->lwipRxPbuf[ethernetif->lwipRxIndexIsr]->payload;
   alt_avalon_sgdma_construct_stream_to_mem_desc(
    192c:	10c01004 	addi	r3,r2,64
         (alt_sgdma_descriptor *) &tse_ptr->desc[ALTERA_TSE_FIRST_RX_SGDMA_DESC_OFST],  // descriptor I want to work with
         (alt_sgdma_descriptor *) &tse_ptr->desc[ALTERA_TSE_SECOND_RX_SGDMA_DESC_OFST],  // pointer to "next"
    1930:	e0bffb17 	ldw	r2,-20(fp)
    1934:	10800517 	ldw	r2,20(r2)
            ethernetif->lwipRxIndexIsr = 0;
         }
      }      

   uncached_packet_payload = (alt_u32 *) ethernetif->lwipRxPbuf[ethernetif->lwipRxIndexIsr]->payload;
   alt_avalon_sgdma_construct_stream_to_mem_desc(
    1938:	10801804 	addi	r2,r2,96
    193c:	d8000015 	stw	zero,0(sp)
    1940:	1809883a 	mov	r4,r3
    1944:	100b883a 	mov	r5,r2
    1948:	e1bffe17 	ldw	r6,-8(fp)
    194c:	000f883a 	mov	r7,zero
    1950:	00261a40 	call	261a4 <alt_avalon_sgdma_construct_stream_to_mem_desc>
         (alt_sgdma_descriptor *) &tse_ptr->desc[ALTERA_TSE_SECOND_RX_SGDMA_DESC_OFST],  // pointer to "next"
         uncached_packet_payload,            // starting write_address
         0,                                  // read until EOP
         0);          // don't write to constant address

   return ERR_OK;
    1954:	0005883a 	mov	r2,zero
}
    1958:	e037883a 	mov	sp,fp
    195c:	dfc00117 	ldw	ra,4(sp)
    1960:	df000017 	ldw	fp,0(sp)
    1964:	dec00204 	addi	sp,sp,8
    1968:	f800283a 	ret

0000196c <udpecho_recv>:
boolean         printed_flg = FALSE;
#endif

void udpecho_recv(void *arg, struct udp_pcb *pcb, struct pbuf *p, struct 
ip_addr *addr, u16_t port)
{
    196c:	defff904 	addi	sp,sp,-28
    1970:	dfc00615 	stw	ra,24(sp)
    1974:	df000515 	stw	fp,20(sp)
    1978:	df000504 	addi	fp,sp,20
    197c:	e13ffb15 	stw	r4,-20(fp)
    1980:	e17ffc15 	stw	r5,-16(fp)
    1984:	e1bffd15 	stw	r6,-12(fp)
    1988:	e1fffe15 	stw	r7,-8(fp)
    198c:	e0800217 	ldw	r2,8(fp)
    1990:	e0bfff0d 	sth	r2,-4(fp)
        begin_measure(histid);
        measuring_flg = TRUE;
    }
#endif

    if (p != NULL) {
    1994:	e0bffd17 	ldw	r2,-12(fp)
    1998:	10000826 	beq	r2,zero,19bc <udpecho_recv+0x50>
        /* send received packet back to sender */
        udp_sendto(pcb, p, addr, port);
    199c:	e0bfff0b 	ldhu	r2,-4(fp)
    19a0:	e13ffc17 	ldw	r4,-16(fp)
    19a4:	e17ffd17 	ldw	r5,-12(fp)
    19a8:	e1bffe17 	ldw	r6,-8(fp)
    19ac:	100f883a 	mov	r7,r2
    19b0:	00156f40 	call	156f4 <udp_sendto>
        /* free the pbuf */
        pbuf_free(p);
    19b4:	e13ffd17 	ldw	r4,-12(fp)
    19b8:	000aa340 	call	aa34 <pbuf_free>
    }

#if TEST_HISTOGRAM
    // End histogram measure
    if (histid <= TNUM_HIST && measuring_flg == TRUE) {
    19bc:	d0a00017 	ldw	r2,-32768(gp)
    19c0:	1089c468 	cmpgeui	r2,r2,10001
    19c4:	10000a1e 	bne	r2,zero,19f0 <udpecho_recv+0x84>
    19c8:	d0a8a917 	ldw	r2,-23900(gp)
    19cc:	10800058 	cmpnei	r2,r2,1
    19d0:	1000071e 	bne	r2,zero,19f0 <udpecho_recv+0x84>
        //printf("[histid: %d] Histogram measuring ending...\n", histid);
        if (end_measure(histid++)) {
    19d4:	d0a00017 	ldw	r2,-32768(gp)
    19d8:	1007883a 	mov	r3,r2
    19dc:	10800044 	addi	r2,r2,1
    19e0:	d0a00015 	stw	r2,-32768(gp)
    19e4:	1809883a 	mov	r4,r3
    19e8:	0001c980 	call	1c98 <end_measure>
            //printf("%d OK\n", histid);
        } else {
            //printf("%d ERR\n", histid);
        }
        measuring_flg = FALSE;
    19ec:	d028a915 	stw	zero,-23900(gp)
    }

    // Print histogram results
    if (histid > TNUM_HIST && printed_flg == FALSE) {
    19f0:	d0a00017 	ldw	r2,-32768(gp)
    19f4:	1089c470 	cmpltui	r2,r2,10001
    19f8:	10000b1e 	bne	r2,zero,1a28 <udpecho_recv+0xbc>
    19fc:	d0a8aa17 	ldw	r2,-23896(gp)
    1a00:	1000091e 	bne	r2,zero,1a28 <udpecho_recv+0xbc>
        printf("[histid: %d] Printing...\n", histid);
    1a04:	d0a00017 	ldw	r2,-32768(gp)
    1a08:	010000f4 	movhi	r4,3
    1a0c:	213ca304 	addi	r4,r4,-3444
    1a10:	100b883a 	mov	r5,r2
    1a14:	00193f00 	call	193f0 <printf>
        printed_flg = TRUE;
    1a18:	00800044 	movi	r2,1
    1a1c:	d0a8aa15 	stw	r2,-23896(gp)
        print_hist(TNUM_HIST);
    1a20:	0109c404 	movi	r4,10000
    1a24:	0001e300 	call	1e30 <print_hist>
    }
#endif
}
    1a28:	e037883a 	mov	sp,fp
    1a2c:	dfc00117 	ldw	ra,4(sp)
    1a30:	df000017 	ldw	fp,0(sp)
    1a34:	dec00204 	addi	sp,sp,8
    1a38:	f800283a 	ret

00001a3c <udpecho_init>:


void udpecho_init(void)
{
    1a3c:	defffd04 	addi	sp,sp,-12
    1a40:	dfc00215 	stw	ra,8(sp)
    1a44:	df000115 	stw	fp,4(sp)
    1a48:	df000104 	addi	fp,sp,4
    struct udp_pcb * pcb;
    printf("Initializing udp_init()...\n");
    1a4c:	010000f4 	movhi	r4,3
    1a50:	213caa04 	addi	r4,r4,-3416
    1a54:	001965c0 	call	1965c <puts>

    /* get new pcb */
    pcb = udp_new();
    1a58:	0015e040 	call	15e04 <udp_new>
    1a5c:	e0bfff15 	stw	r2,-4(fp)
    if (pcb == NULL) {
    1a60:	e0bfff17 	ldw	r2,-4(fp)
    1a64:	1000041e 	bne	r2,zero,1a78 <udpecho_init+0x3c>
        printf("udp_new failed!\n");
    1a68:	010000f4 	movhi	r4,3
    1a6c:	213cb104 	addi	r4,r4,-3388
    1a70:	001965c0 	call	1965c <puts>
        return;
    1a74:	00001506 	br	1acc <udpecho_init+0x90>
    }

    /* bind to any IP address on port 7 */
    if (udp_bind(pcb, IP_ADDR_ANY, 7) != ERR_OK) {
    1a78:	e13fff17 	ldw	r4,-4(fp)
    1a7c:	014000f4 	movhi	r5,3
    1a80:	29557404 	addi	r5,r5,21968
    1a84:	018001c4 	movi	r6,7
    1a88:	0015a740 	call	15a74 <udp_bind>
    1a8c:	10803fcc 	andi	r2,r2,255
    1a90:	1080201c 	xori	r2,r2,128
    1a94:	10bfe004 	addi	r2,r2,-128
    1a98:	10000426 	beq	r2,zero,1aac <udpecho_init+0x70>
        printf("udp_bind failed!\n");
    1a9c:	010000f4 	movhi	r4,3
    1aa0:	213cb504 	addi	r4,r4,-3372
    1aa4:	001965c0 	call	1965c <puts>
        return;
    1aa8:	00000806 	br	1acc <udpecho_init+0x90>
    }

    /* set udpecho_recv() as callback function
       for received packets */
    printf("Ready to accept UDP packets on port 7\n");
    1aac:	010000f4 	movhi	r4,3
    1ab0:	213cba04 	addi	r4,r4,-3352
    1ab4:	001965c0 	call	1965c <puts>
    udp_recv(pcb, udpecho_recv, NULL);
    1ab8:	e13fff17 	ldw	r4,-4(fp)
    1abc:	01400034 	movhi	r5,0
    1ac0:	29465b04 	addi	r5,r5,6508
    1ac4:	000d883a 	mov	r6,zero
    1ac8:	0015d280 	call	15d28 <udp_recv>
}
    1acc:	e037883a 	mov	sp,fp
    1ad0:	dfc00117 	ldw	ra,4(sp)
    1ad4:	df000017 	ldw	fp,0(sp)
    1ad8:	dec00204 	addi	sp,sp,8
    1adc:	f800283a 	ret

00001ae0 <get_utm>:
//#ifndef HIST_BM_HOOK                /* svOs */
//#define HIST_BM_HOOK()
//#endif /* HIST_BM_HOOK */

void get_utm(HISTTIM *p_time)
{
    1ae0:	defffd04 	addi	sp,sp,-12
    1ae4:	dfc00215 	stw	ra,8(sp)
    1ae8:	df000115 	stw	fp,4(sp)
    1aec:	df000104 	addi	fp,sp,4
    1af0:	e13fff15 	stw	r4,-4(fp)
	//*p_time = (HISTTIM) ((double)alt_timestamp() / (double)timestamp_freq * (double)1000000);
	*p_time = (HISTTIM)alt_timestamp();
    1af4:	0026d0c0 	call	26d0c <alt_timestamp>
    1af8:	e0ffff17 	ldw	r3,-4(fp)
    1afc:	18800015 	stw	r2,0(r3)
	//printf("%d\n", *p_time);
}
    1b00:	e037883a 	mov	sp,fp
    1b04:	dfc00117 	ldw	ra,4(sp)
    1b08:	df000017 	ldw	fp,0(sp)
    1b0c:	dec00204 	addi	sp,sp,8
    1b10:	f800283a 	ret

00001b14 <init_hist>:
/*
 *  szv
 */
boolean
init_hist(ObjectIDType histid, uint32 maxval, uint32 *histarea)
{
    1b14:	defff904 	addi	sp,sp,-28
    1b18:	df000615 	stw	fp,24(sp)
    1b1c:	df000604 	addi	fp,sp,24
    1b20:	e13ffd15 	stw	r4,-12(fp)
    1b24:	e17ffe15 	stw	r5,-8(fp)
    1b28:	e1bfff15 	stw	r6,-4(fp)
	HISTCB	*p_histcb;
	uint32	i;
	boolean ret = TRUE;
    1b2c:	00800044 	movi	r2,1
    1b30:	e0bffb15 	stw	r2,-20(fp)

	/* szvIDFALSE */
	if ((histid < TMIN_HISTID) || (histid > TMAX_HISTID)) {
    1b34:	e0bffd17 	ldw	r2,-12(fp)
    1b38:	10000326 	beq	r2,zero,1b48 <init_hist+0x34>
    1b3c:	e0bffd17 	ldw	r2,-12(fp)
    1b40:	1089c470 	cmpltui	r2,r2,10001
    1b44:	1000021e 	bne	r2,zero,1b50 <init_hist+0x3c>
		ret = FALSE;
    1b48:	e03ffb15 	stw	zero,-20(fp)
    1b4c:	00002206 	br	1bd8 <init_hist+0xc4>
	}
	else {
		p_histcb = &(histcb_table[histid - TMIN_HISTID]);
    1b50:	e0bffd17 	ldw	r2,-12(fp)
    1b54:	10bfffc4 	addi	r2,r2,-1
    1b58:	10c00624 	muli	r3,r2,24
    1b5c:	00800134 	movhi	r2,4
    1b60:	1097bb04 	addi	r2,r2,24300
    1b64:	1885883a 	add	r2,r3,r2
    1b68:	e0bffc15 	stw	r2,-16(fp)

		for (i = 0U; i <= maxval; i++) {
    1b6c:	e03ffa15 	stw	zero,-24(fp)
    1b70:	00000906 	br	1b98 <init_hist+0x84>
			histarea[i] = 0U;
    1b74:	e0bffa17 	ldw	r2,-24(fp)
    1b78:	1085883a 	add	r2,r2,r2
    1b7c:	1085883a 	add	r2,r2,r2
    1b80:	e0ffff17 	ldw	r3,-4(fp)
    1b84:	1885883a 	add	r2,r3,r2
    1b88:	10000015 	stw	zero,0(r2)
		ret = FALSE;
	}
	else {
		p_histcb = &(histcb_table[histid - TMIN_HISTID]);

		for (i = 0U; i <= maxval; i++) {
    1b8c:	e0bffa17 	ldw	r2,-24(fp)
    1b90:	10800044 	addi	r2,r2,1
    1b94:	e0bffa15 	stw	r2,-24(fp)
    1b98:	e0bffa17 	ldw	r2,-24(fp)
    1b9c:	e0fffe17 	ldw	r3,-8(fp)
    1ba0:	18bff42e 	bgeu	r3,r2,1b74 <init_hist+0x60>
			histarea[i] = 0U;
		}
		p_histcb->maxval = maxval;
    1ba4:	e0bffc17 	ldw	r2,-16(fp)
    1ba8:	e0fffe17 	ldw	r3,-8(fp)
    1bac:	10c00115 	stw	r3,4(r2)
		p_histcb->histarea = histarea;
    1bb0:	e0bffc17 	ldw	r2,-16(fp)
    1bb4:	e0ffff17 	ldw	r3,-4(fp)
    1bb8:	10c00215 	stw	r3,8(r2)
		p_histcb->over = 0U;
    1bbc:	e0bffc17 	ldw	r2,-16(fp)
    1bc0:	10000315 	stw	zero,12(r2)
		p_histcb->under = 0U;
    1bc4:	e0bffc17 	ldw	r2,-16(fp)
    1bc8:	10000415 	stw	zero,16(r2)
		p_histcb->initialized = TRUE;
    1bcc:	e0bffc17 	ldw	r2,-16(fp)
    1bd0:	00c00044 	movi	r3,1
    1bd4:	10c00515 	stw	r3,20(r2)
	}
	return(ret);
    1bd8:	e0bffb17 	ldw	r2,-20(fp)
}
    1bdc:	e037883a 	mov	sp,fp
    1be0:	df000017 	ldw	fp,0(sp)
    1be4:	dec00104 	addi	sp,sp,4
    1be8:	f800283a 	ret

00001bec <begin_measure>:
/*
 *  svJn
 */
boolean
begin_measure(ObjectIDType histid)
{
    1bec:	defffb04 	addi	sp,sp,-20
    1bf0:	dfc00415 	stw	ra,16(sp)
    1bf4:	df000315 	stw	fp,12(sp)
    1bf8:	df000304 	addi	fp,sp,12
    1bfc:	e13fff15 	stw	r4,-4(fp)
	HISTCB	*p_histcb;
	boolean ret = TRUE;
    1c00:	00800044 	movi	r2,1
    1c04:	e0bffd15 	stw	r2,-12(fp)
	if((int)histid % 500 == 1) {
    1c08:	e0bfff17 	ldw	r2,-4(fp)
    1c0c:	00c07d04 	movi	r3,500
    1c10:	10c7283a 	div	r3,r2,r3
    1c14:	18c07d24 	muli	r3,r3,500
    1c18:	10c5c83a 	sub	r2,r2,r3
    1c1c:	10800058 	cmpnei	r2,r2,1
    1c20:	1000011e 	bne	r2,zero,1c28 <begin_measure+0x3c>
		alt_timestamp_start();
    1c24:	0026c840 	call	26c84 <alt_timestamp_start>
	}

	/* szvIDFALSE */
	if ((histid < TMIN_HISTID) || (histid > TMAX_HISTID)) {
    1c28:	e0bfff17 	ldw	r2,-4(fp)
    1c2c:	10000326 	beq	r2,zero,1c3c <begin_measure+0x50>
    1c30:	e0bfff17 	ldw	r2,-4(fp)
    1c34:	1089c470 	cmpltui	r2,r2,10001
    1c38:	1000021e 	bne	r2,zero,1c44 <begin_measure+0x58>
		ret = FALSE;
    1c3c:	e03ffd15 	stw	zero,-12(fp)
    1c40:	00000f06 	br	1c80 <begin_measure+0x94>
	}
	else {
		p_histcb = &(histcb_table[histid - TMIN_HISTID]);
    1c44:	e0bfff17 	ldw	r2,-4(fp)
    1c48:	10bfffc4 	addi	r2,r2,-1
    1c4c:	10c00624 	muli	r3,r2,24
    1c50:	00800134 	movhi	r2,4
    1c54:	1097bb04 	addi	r2,r2,24300
    1c58:	1885883a 	add	r2,r3,r2
    1c5c:	e0bffe15 	stw	r2,-8(fp)

		/* FALSE */
		if (p_histcb->initialized == FALSE)	{
    1c60:	e0bffe17 	ldw	r2,-8(fp)
    1c64:	10800517 	ldw	r2,20(r2)
    1c68:	1000021e 	bne	r2,zero,1c74 <begin_measure+0x88>
			ret = FALSE;
    1c6c:	e03ffd15 	stw	zero,-12(fp)
    1c70:	00000306 	br	1c80 <begin_measure+0x94>
		}
		else {
			//HIST_BM_HOOK();
			HIST_GET_TIM(&(p_histcb->begin_time));
    1c74:	e0bffe17 	ldw	r2,-8(fp)
    1c78:	1009883a 	mov	r4,r2
    1c7c:	0001ae00 	call	1ae0 <get_utm>
		}
	}
	return(ret);
    1c80:	e0bffd17 	ldw	r2,-12(fp)
}
    1c84:	e037883a 	mov	sp,fp
    1c88:	dfc00117 	ldw	ra,4(sp)
    1c8c:	df000017 	ldw	fp,0(sp)
    1c90:	dec00204 	addi	sp,sp,8
    1c94:	f800283a 	ret

00001c98 <end_measure>:
/*
 *  svI
 */
boolean
end_measure(ObjectIDType histid)
{
    1c98:	defff704 	addi	sp,sp,-36
    1c9c:	dfc00815 	stw	ra,32(sp)
    1ca0:	df000715 	stw	fp,28(sp)
    1ca4:	dc400615 	stw	r17,24(sp)
    1ca8:	dc000515 	stw	r16,20(sp)
    1cac:	df000504 	addi	fp,sp,20
    1cb0:	e13fff15 	stw	r4,-4(fp)
	HISTCB	*p_histcb;
	HISTTIM	end_time;
	uint32	val;
	boolean ret = TRUE;
    1cb4:	00800044 	movi	r2,1
    1cb8:	e0bffb15 	stw	r2,-20(fp)

	HIST_GET_TIM(&end_time);
    1cbc:	e0bffe04 	addi	r2,fp,-8
    1cc0:	1009883a 	mov	r4,r2
    1cc4:	0001ae00 	call	1ae0 <get_utm>

	/* szvIDFALSE */
	if ((histid < TMIN_HISTID) || (histid > TMAX_HISTID)) {
    1cc8:	e0bfff17 	ldw	r2,-4(fp)
    1ccc:	10000326 	beq	r2,zero,1cdc <end_measure+0x44>
    1cd0:	e0bfff17 	ldw	r2,-4(fp)
    1cd4:	1089c470 	cmpltui	r2,r2,10001
    1cd8:	1000021e 	bne	r2,zero,1ce4 <end_measure+0x4c>
		ret = FALSE;
    1cdc:	e03ffb15 	stw	zero,-20(fp)
    1ce0:	00004b06 	br	1e10 <end_measure+0x178>
	}
	else {
		p_histcb = &(histcb_table[histid - TMIN_HISTID]);
    1ce4:	e0bfff17 	ldw	r2,-4(fp)
    1ce8:	10bfffc4 	addi	r2,r2,-1
    1cec:	10c00624 	muli	r3,r2,24
    1cf0:	00800134 	movhi	r2,4
    1cf4:	1097bb04 	addi	r2,r2,24300
    1cf8:	1885883a 	add	r2,r3,r2
    1cfc:	e0bffc15 	stw	r2,-16(fp)

		/* FALSE */
		if (p_histcb->initialized == FALSE)	{
    1d00:	e0bffc17 	ldw	r2,-16(fp)
    1d04:	10800517 	ldw	r2,20(r2)
    1d08:	1000021e 	bne	r2,zero,1d14 <end_measure+0x7c>
			ret = FALSE;
    1d0c:	e03ffb15 	stw	zero,-20(fp)
    1d10:	00003f06 	br	1e10 <end_measure+0x178>
		}
		else {
			//val = HIST_CONV_TIM(end_time - p_histcb->begin_time);
			val = (uint32) ((double)HIST_CONV_TIM(end_time - p_histcb->begin_time) / (double)timestamp_freq * (double)1000000);
    1d14:	e0fffe17 	ldw	r3,-8(fp)
    1d18:	e0bffc17 	ldw	r2,-16(fp)
    1d1c:	10800017 	ldw	r2,0(r2)
    1d20:	1885c83a 	sub	r2,r3,r2
    1d24:	1009883a 	mov	r4,r2
    1d28:	0018acc0 	call	18acc <__floatunsidf>
    1d2c:	1021883a 	mov	r16,r2
    1d30:	1823883a 	mov	r17,r3
    1d34:	d0a8ab17 	ldw	r2,-23892(gp)
    1d38:	1009883a 	mov	r4,r2
    1d3c:	0018acc0 	call	18acc <__floatunsidf>
    1d40:	100f883a 	mov	r7,r2
    1d44:	1811883a 	mov	r8,r3
    1d48:	8009883a 	mov	r4,r16
    1d4c:	880b883a 	mov	r5,r17
    1d50:	380d883a 	mov	r6,r7
    1d54:	400f883a 	mov	r7,r8
    1d58:	00187e00 	call	187e0 <__divdf3>
    1d5c:	1009883a 	mov	r4,r2
    1d60:	180b883a 	mov	r5,r3
    1d64:	2005883a 	mov	r2,r4
    1d68:	2807883a 	mov	r3,r5
    1d6c:	1009883a 	mov	r4,r2
    1d70:	180b883a 	mov	r5,r3
    1d74:	000d883a 	mov	r6,zero
    1d78:	01d04bf4 	movhi	r7,16687
    1d7c:	39e12004 	addi	r7,r7,-31616
    1d80:	00184fc0 	call	184fc <__muldf3>
    1d84:	1009883a 	mov	r4,r2
    1d88:	180b883a 	mov	r5,r3
    1d8c:	2005883a 	mov	r2,r4
    1d90:	2807883a 	mov	r3,r5
    1d94:	1009883a 	mov	r4,r2
    1d98:	180b883a 	mov	r5,r3
    1d9c:	00180700 	call	18070 <__fixunsdfsi>
    1da0:	e0bffd15 	stw	r2,-12(fp)
			//printf("timediff: %d\n", val);
			if (val <= p_histcb->maxval) {
    1da4:	e0bffc17 	ldw	r2,-16(fp)
    1da8:	10c00117 	ldw	r3,4(r2)
    1dac:	e0bffd17 	ldw	r2,-12(fp)
    1db0:	18800a36 	bltu	r3,r2,1ddc <end_measure+0x144>
				p_histcb->histarea[val]++;
    1db4:	e0bffc17 	ldw	r2,-16(fp)
    1db8:	10c00217 	ldw	r3,8(r2)
    1dbc:	e0bffd17 	ldw	r2,-12(fp)
    1dc0:	1085883a 	add	r2,r2,r2
    1dc4:	1085883a 	add	r2,r2,r2
    1dc8:	1885883a 	add	r2,r3,r2
    1dcc:	10c00017 	ldw	r3,0(r2)
    1dd0:	18c00044 	addi	r3,r3,1
    1dd4:	10c00015 	stw	r3,0(r2)
    1dd8:	00000d06 	br	1e10 <end_measure+0x178>
			}
			else if (val <= ((uint32) 0x7fffffff)) {
    1ddc:	e0bffd17 	ldw	r2,-12(fp)
    1de0:	10000616 	blt	r2,zero,1dfc <end_measure+0x164>
				p_histcb->over++;
    1de4:	e0bffc17 	ldw	r2,-16(fp)
    1de8:	10800317 	ldw	r2,12(r2)
    1dec:	10c00044 	addi	r3,r2,1
    1df0:	e0bffc17 	ldw	r2,-16(fp)
    1df4:	10c00315 	stw	r3,12(r2)
    1df8:	00000506 	br	1e10 <end_measure+0x178>
			}
			else {
				p_histcb->under++;
    1dfc:	e0bffc17 	ldw	r2,-16(fp)
    1e00:	10800417 	ldw	r2,16(r2)
    1e04:	10c00044 	addi	r3,r2,1
    1e08:	e0bffc17 	ldw	r2,-16(fp)
    1e0c:	10c00415 	stw	r3,16(r2)
			}
		}
	}
	return(ret);
    1e10:	e0bffb17 	ldw	r2,-20(fp)
}
    1e14:	e037883a 	mov	sp,fp
    1e18:	dfc00317 	ldw	ra,12(sp)
    1e1c:	df000217 	ldw	fp,8(sp)
    1e20:	dc400117 	ldw	r17,4(sp)
    1e24:	dc000017 	ldw	r16,0(sp)
    1e28:	dec00404 	addi	sp,sp,16
    1e2c:	f800283a 	ret

00001e30 <print_hist>:
/*
 *  szv\
 */
boolean
print_hist(ObjectIDType histid)
{
    1e30:	defffa04 	addi	sp,sp,-24
    1e34:	dfc00515 	stw	ra,20(sp)
    1e38:	df000415 	stw	fp,16(sp)
    1e3c:	df000404 	addi	fp,sp,16
    1e40:	e13fff15 	stw	r4,-4(fp)
	HISTCB	*p_histcb;
	int		i;
	boolean ret = TRUE;
    1e44:	00800044 	movi	r2,1
    1e48:	e0bffd15 	stw	r2,-12(fp)

	/* szvIDFALSE */
	if ((histid < TMIN_HISTID) || (histid > TMAX_HISTID)) {
    1e4c:	e0bfff17 	ldw	r2,-4(fp)
    1e50:	10000326 	beq	r2,zero,1e60 <print_hist+0x30>
    1e54:	e0bfff17 	ldw	r2,-4(fp)
    1e58:	1089c470 	cmpltui	r2,r2,10001
    1e5c:	1000021e 	bne	r2,zero,1e68 <print_hist+0x38>
		ret = FALSE;
    1e60:	e03ffd15 	stw	zero,-12(fp)
    1e64:	00004006 	br	1f68 <print_hist+0x138>
	}
	else {
		p_histcb = &(histcb_table[histid - TMIN_HISTID]);
    1e68:	e0bfff17 	ldw	r2,-4(fp)
    1e6c:	10bfffc4 	addi	r2,r2,-1
    1e70:	10c00624 	muli	r3,r2,24
    1e74:	00800134 	movhi	r2,4
    1e78:	1097bb04 	addi	r2,r2,24300
    1e7c:	1885883a 	add	r2,r3,r2
    1e80:	e0bffe15 	stw	r2,-8(fp)

		/* FALSE */
		if (p_histcb->initialized == FALSE)	{
    1e84:	e0bffe17 	ldw	r2,-8(fp)
    1e88:	10800517 	ldw	r2,20(r2)
    1e8c:	1000021e 	bne	r2,zero,1e98 <print_hist+0x68>
			ret = FALSE;
    1e90:	e03ffd15 	stw	zero,-12(fp)
    1e94:	00003406 	br	1f68 <print_hist+0x138>
		}
		else {
			for (i = 0U; i <= (int)p_histcb->maxval; i++) {
    1e98:	e03ffc15 	stw	zero,-16(fp)
    1e9c:	00001706 	br	1efc <print_hist+0xcc>
				if ((int)p_histcb->histarea[i] > 0U) {
    1ea0:	e0bffe17 	ldw	r2,-8(fp)
    1ea4:	10c00217 	ldw	r3,8(r2)
    1ea8:	e0bffc17 	ldw	r2,-16(fp)
    1eac:	1085883a 	add	r2,r2,r2
    1eb0:	1085883a 	add	r2,r2,r2
    1eb4:	1885883a 	add	r2,r3,r2
    1eb8:	10800017 	ldw	r2,0(r2)
    1ebc:	10000c26 	beq	r2,zero,1ef0 <print_hist+0xc0>
#ifndef MEASURE_100_NANO
					printf("%d : %d\n", i, (int)p_histcb->histarea[i]);
    1ec0:	e0bffe17 	ldw	r2,-8(fp)
    1ec4:	10c00217 	ldw	r3,8(r2)
    1ec8:	e0bffc17 	ldw	r2,-16(fp)
    1ecc:	1085883a 	add	r2,r2,r2
    1ed0:	1085883a 	add	r2,r2,r2
    1ed4:	1885883a 	add	r2,r3,r2
    1ed8:	10800017 	ldw	r2,0(r2)
    1edc:	010000f4 	movhi	r4,3
    1ee0:	213cc404 	addi	r4,r4,-3312
    1ee4:	e17ffc17 	ldw	r5,-16(fp)
    1ee8:	100d883a 	mov	r6,r2
    1eec:	00193f00 	call	193f0 <printf>
		/* FALSE */
		if (p_histcb->initialized == FALSE)	{
			ret = FALSE;
		}
		else {
			for (i = 0U; i <= (int)p_histcb->maxval; i++) {
    1ef0:	e0bffc17 	ldw	r2,-16(fp)
    1ef4:	10800044 	addi	r2,r2,1
    1ef8:	e0bffc15 	stw	r2,-16(fp)
    1efc:	e0bffe17 	ldw	r2,-8(fp)
    1f00:	10800117 	ldw	r2,4(r2)
    1f04:	1007883a 	mov	r3,r2
    1f08:	e0bffc17 	ldw	r2,-16(fp)
    1f0c:	18bfe40e 	bge	r3,r2,1ea0 <print_hist+0x70>
#else
					printf("%d.%d : %d\n", i / 10, i % 10, (int)p_histcb->histarea[i]);
#endif /* MEASURE_100_NANO */
				}
			}
			if (p_histcb->over > 0U) {
    1f10:	e0bffe17 	ldw	r2,-8(fp)
    1f14:	10800317 	ldw	r2,12(r2)
    1f18:	10000a26 	beq	r2,zero,1f44 <print_hist+0x114>
				printf("> %d : %d\n", (int)p_histcb->maxval, (int)p_histcb->over);
    1f1c:	e0bffe17 	ldw	r2,-8(fp)
    1f20:	10800117 	ldw	r2,4(r2)
    1f24:	1007883a 	mov	r3,r2
    1f28:	e0bffe17 	ldw	r2,-8(fp)
    1f2c:	10800317 	ldw	r2,12(r2)
    1f30:	010000f4 	movhi	r4,3
    1f34:	213cc704 	addi	r4,r4,-3300
    1f38:	180b883a 	mov	r5,r3
    1f3c:	100d883a 	mov	r6,r2
    1f40:	00193f00 	call	193f0 <printf>
			}
			if (p_histcb->under > 0U) {
    1f44:	e0bffe17 	ldw	r2,-8(fp)
    1f48:	10800417 	ldw	r2,16(r2)
    1f4c:	10000626 	beq	r2,zero,1f68 <print_hist+0x138>
				printf("> 0x7fffffff : %d\n", (int)p_histcb->under);
    1f50:	e0bffe17 	ldw	r2,-8(fp)
    1f54:	10800417 	ldw	r2,16(r2)
    1f58:	010000f4 	movhi	r4,3
    1f5c:	213cca04 	addi	r4,r4,-3288
    1f60:	100b883a 	mov	r5,r2
    1f64:	00193f00 	call	193f0 <printf>
			}
		}
	}

	return(ret);
    1f68:	e0bffd17 	ldw	r2,-12(fp)
}
    1f6c:	e037883a 	mov	sp,fp
    1f70:	dfc00117 	ldw	ra,4(sp)
    1f74:	df000017 	ldw	fp,0(sp)
    1f78:	dec00204 	addi	sp,sp,8
    1f7c:	f800283a 	ret

00001f80 <dhcp_handle_nak>:
 *
 * @param netif the netif under DHCP control
 */
static void
dhcp_handle_nak(struct netif *netif)
{
    1f80:	defffc04 	addi	sp,sp,-16
    1f84:	dfc00315 	stw	ra,12(sp)
    1f88:	df000215 	stw	fp,8(sp)
    1f8c:	df000204 	addi	fp,sp,8
    1f90:	e13fff15 	stw	r4,-4(fp)
  struct dhcp *dhcp = netif->dhcp;
    1f94:	e0bfff17 	ldw	r2,-4(fp)
    1f98:	10800817 	ldw	r2,32(r2)
    1f9c:	e0bffe15 	stw	r2,-8(fp)
  LWIP_DEBUGF(DHCP_DEBUG | LWIP_DBG_TRACE, ("dhcp_handle_nak(netif=%p) %c%c%"U16_F"\n", 
    (void*)netif, netif->name[0], netif->name[1], (u16_t)netif->num));
  /* Set the interface down since the address must no longer be used, as per RFC2131 */
  netif_set_down(netif);
    1fa0:	e13fff17 	ldw	r4,-4(fp)
    1fa4:	0009e700 	call	9e70 <netif_set_down>
  /* remove IP address from interface */
  netif_set_ipaddr(netif, IP_ADDR_ANY);
    1fa8:	e13fff17 	ldw	r4,-4(fp)
    1fac:	014000f4 	movhi	r5,3
    1fb0:	29557404 	addi	r5,r5,21968
    1fb4:	0009bfc0 	call	9bfc <netif_set_ipaddr>
  netif_set_gw(netif, IP_ADDR_ANY);
    1fb8:	e13fff17 	ldw	r4,-4(fp)
    1fbc:	014000f4 	movhi	r5,3
    1fc0:	29557404 	addi	r5,r5,21968
    1fc4:	0009d300 	call	9d30 <netif_set_gw>
  netif_set_netmask(netif, IP_ADDR_ANY); 
    1fc8:	e13fff17 	ldw	r4,-4(fp)
    1fcc:	014000f4 	movhi	r5,3
    1fd0:	29557404 	addi	r5,r5,21968
    1fd4:	0009d740 	call	9d74 <netif_set_netmask>
  /* Change to a defined state */
  dhcp_set_state(dhcp, DHCP_BACKING_OFF);
    1fd8:	e13ffe17 	ldw	r4,-8(fp)
    1fdc:	01400304 	movi	r5,12
    1fe0:	0003c800 	call	3c80 <dhcp_set_state>
  /* We can immediately restart discovery */
  dhcp_discover(netif);
    1fe4:	e13fff17 	ldw	r4,-4(fp)
    1fe8:	00031900 	call	3190 <dhcp_discover>
}
    1fec:	e037883a 	mov	sp,fp
    1ff0:	dfc00117 	ldw	ra,4(sp)
    1ff4:	df000017 	ldw	fp,0(sp)
    1ff8:	dec00204 	addi	sp,sp,8
    1ffc:	f800283a 	ret

00002000 <dhcp_check>:
 *
 * @param netif the netif under DHCP control
 */
static void
dhcp_check(struct netif *netif)
{
    2000:	defffb04 	addi	sp,sp,-20
    2004:	dfc00415 	stw	ra,16(sp)
    2008:	df000315 	stw	fp,12(sp)
    200c:	df000304 	addi	fp,sp,12
    2010:	e13fff15 	stw	r4,-4(fp)
  struct dhcp *dhcp = netif->dhcp;
    2014:	e0bfff17 	ldw	r2,-4(fp)
    2018:	10800817 	ldw	r2,32(r2)
    201c:	e0bffd15 	stw	r2,-12(fp)
  err_t result;
  u16_t msecs;
  LWIP_DEBUGF(DHCP_DEBUG | LWIP_DBG_TRACE, ("dhcp_check(netif=%p) %c%c\n", (void *)netif, (s16_t)netif->name[0],
    (s16_t)netif->name[1]));
  dhcp_set_state(dhcp, DHCP_CHECKING);
    2020:	e13ffd17 	ldw	r4,-12(fp)
    2024:	01400204 	movi	r5,8
    2028:	0003c800 	call	3c80 <dhcp_set_state>
  /* create an ARP query for the offered IP address, expecting that no host
     responds, as the IP address should not be in use. */
  result = etharp_query(netif, &dhcp->offered_ip_addr, NULL);
    202c:	e0bffd17 	ldw	r2,-12(fp)
    2030:	10800904 	addi	r2,r2,36
    2034:	e13fff17 	ldw	r4,-4(fp)
    2038:	100b883a 	mov	r5,r2
    203c:	000d883a 	mov	r6,zero
    2040:	00173100 	call	17310 <etharp_query>
    2044:	e0bffe05 	stb	r2,-8(fp)
  if (result != ERR_OK) {
    LWIP_DEBUGF(DHCP_DEBUG | LWIP_DBG_TRACE | LWIP_DBG_LEVEL_WARNING, ("dhcp_check: could not perform ARP query\n"));
  }
  dhcp->tries++;
    2048:	e0bffd17 	ldw	r2,-12(fp)
    204c:	10800343 	ldbu	r2,13(r2)
    2050:	10800044 	addi	r2,r2,1
    2054:	1007883a 	mov	r3,r2
    2058:	e0bffd17 	ldw	r2,-12(fp)
    205c:	10c00345 	stb	r3,13(r2)
  msecs = 500;
    2060:	00807d04 	movi	r2,500
    2064:	e0bffe8d 	sth	r2,-6(fp)
  dhcp->request_timeout = (msecs + DHCP_FINE_TIMER_MSECS - 1) / DHCP_FINE_TIMER_MSECS;
    2068:	e0bffe8b 	ldhu	r2,-6(fp)
    206c:	10c07cc4 	addi	r3,r2,499
    2070:	00807d04 	movi	r2,500
    2074:	1885283a 	div	r2,r3,r2
    2078:	1007883a 	mov	r3,r2
    207c:	e0bffd17 	ldw	r2,-12(fp)
    2080:	10c0068d 	sth	r3,26(r2)
  LWIP_DEBUGF(DHCP_DEBUG | LWIP_DBG_TRACE | LWIP_DBG_STATE, ("dhcp_check(): set request timeout %"U16_F" msecs\n", msecs));
}
    2084:	e037883a 	mov	sp,fp
    2088:	dfc00117 	ldw	ra,4(sp)
    208c:	df000017 	ldw	fp,0(sp)
    2090:	dec00204 	addi	sp,sp,8
    2094:	f800283a 	ret

00002098 <dhcp_handle_offer>:
 *
 * @param netif the netif under DHCP control
 */
static void
dhcp_handle_offer(struct netif *netif)
{
    2098:	defffc04 	addi	sp,sp,-16
    209c:	dfc00315 	stw	ra,12(sp)
    20a0:	df000215 	stw	fp,8(sp)
    20a4:	df000204 	addi	fp,sp,8
    20a8:	e13fff15 	stw	r4,-4(fp)
  struct dhcp *dhcp = netif->dhcp;
    20ac:	e0bfff17 	ldw	r2,-4(fp)
    20b0:	10800817 	ldw	r2,32(r2)
    20b4:	e0bffe15 	stw	r2,-8(fp)
  LWIP_DEBUGF(DHCP_DEBUG | LWIP_DBG_TRACE, ("dhcp_handle_offer(netif=%p) %c%c%"U16_F"\n",
    (void*)netif, netif->name[0], netif->name[1], (u16_t)netif->num));
  /* obtain the server address */
  if (dhcp_option_given(dhcp, DHCP_OPTION_IDX_SERVER_ID)) {
    20b8:	00800234 	movhi	r2,8
    20bc:	10821b04 	addi	r2,r2,2156
    20c0:	10800083 	ldbu	r2,2(r2)
    20c4:	10803fcc 	andi	r2,r2,255
    20c8:	10002226 	beq	r2,zero,2154 <dhcp_handle_offer+0xbc>
    ip4_addr_set_u32(&dhcp->server_ip_addr, htonl(dhcp_get_option_value(dhcp, DHCP_OPTION_IDX_SERVER_ID)));
    20cc:	00800234 	movhi	r2,8
    20d0:	10821e04 	addi	r2,r2,2168
    20d4:	10800217 	ldw	r2,8(r2)
    20d8:	1006d63a 	srli	r3,r2,24
    20dc:	00800234 	movhi	r2,8
    20e0:	10821e04 	addi	r2,r2,2168
    20e4:	10800217 	ldw	r2,8(r2)
    20e8:	1004d23a 	srli	r2,r2,8
    20ec:	10bfc00c 	andi	r2,r2,65280
    20f0:	1886b03a 	or	r3,r3,r2
    20f4:	00800234 	movhi	r2,8
    20f8:	10821e04 	addi	r2,r2,2168
    20fc:	10800217 	ldw	r2,8(r2)
    2100:	10bfc00c 	andi	r2,r2,65280
    2104:	1004923a 	slli	r2,r2,8
    2108:	1886b03a 	or	r3,r3,r2
    210c:	00800234 	movhi	r2,8
    2110:	10821e04 	addi	r2,r2,2168
    2114:	10800217 	ldw	r2,8(r2)
    2118:	1004963a 	slli	r2,r2,24
    211c:	1886b03a 	or	r3,r3,r2
    2120:	e0bffe17 	ldw	r2,-8(fp)
    2124:	10c00815 	stw	r3,32(r2)
    LWIP_DEBUGF(DHCP_DEBUG | LWIP_DBG_STATE, ("dhcp_handle_offer(): server 0x%08"X32_F"\n",
      ip4_addr_get_u32(&dhcp->server_ip_addr)));
    /* remember offered address */
    ip_addr_copy(dhcp->offered_ip_addr, dhcp->msg_in->yiaddr);
    2128:	e0bffe17 	ldw	r2,-8(fp)
    212c:	10800217 	ldw	r2,8(r2)
    2130:	10c0040b 	ldhu	r3,16(r2)
    2134:	1080048b 	ldhu	r2,18(r2)
    2138:	1004943a 	slli	r2,r2,16
    213c:	10c4b03a 	or	r2,r2,r3
    2140:	1007883a 	mov	r3,r2
    2144:	e0bffe17 	ldw	r2,-8(fp)
    2148:	10c00915 	stw	r3,36(r2)
    LWIP_DEBUGF(DHCP_DEBUG | LWIP_DBG_STATE, ("dhcp_handle_offer(): offer for 0x%08"X32_F"\n",
      ip4_addr_get_u32(&dhcp->offered_ip_addr)));

    dhcp_select(netif);
    214c:	e13fff17 	ldw	r4,-4(fp)
    2150:	00021680 	call	2168 <dhcp_select>
  } else {
    LWIP_DEBUGF(DHCP_DEBUG | LWIP_DBG_TRACE | LWIP_DBG_LEVEL_SERIOUS,
      ("dhcp_handle_offer(netif=%p) did not get server ID!\n", (void*)netif));
  }
}
    2154:	e037883a 	mov	sp,fp
    2158:	dfc00117 	ldw	ra,4(sp)
    215c:	df000017 	ldw	fp,0(sp)
    2160:	dec00204 	addi	sp,sp,8
    2164:	f800283a 	ret

00002168 <dhcp_select>:
 * @param netif the netif under DHCP control
 * @return lwIP specific error (see error.h)
 */
static err_t
dhcp_select(struct netif *netif)
{
    2168:	defffa04 	addi	sp,sp,-24
    216c:	dfc00515 	stw	ra,20(sp)
    2170:	df000415 	stw	fp,16(sp)
    2174:	df000404 	addi	fp,sp,16
    2178:	e13fff15 	stw	r4,-4(fp)
  struct dhcp *dhcp = netif->dhcp;
    217c:	e0bfff17 	ldw	r2,-4(fp)
    2180:	10800817 	ldw	r2,32(r2)
    2184:	e0bffd15 	stw	r2,-12(fp)
  err_t result;
  u16_t msecs;

  LWIP_DEBUGF(DHCP_DEBUG | LWIP_DBG_TRACE, ("dhcp_select(netif=%p) %c%c%"U16_F"\n", (void*)netif, netif->name[0], netif->name[1], (u16_t)netif->num));
  dhcp_set_state(dhcp, DHCP_REQUESTING);
    2188:	e13ffd17 	ldw	r4,-12(fp)
    218c:	01400044 	movi	r5,1
    2190:	0003c800 	call	3c80 <dhcp_set_state>

  /* create and initialize the DHCP message header */
  result = dhcp_create_msg(netif, dhcp, DHCP_REQUEST);
    2194:	e13fff17 	ldw	r4,-4(fp)
    2198:	e17ffd17 	ldw	r5,-12(fp)
    219c:	018000c4 	movi	r6,3
    21a0:	0004cac0 	call	4cac <dhcp_create_msg>
    21a4:	e0bffe05 	stb	r2,-8(fp)
  if (result == ERR_OK) {
    21a8:	e0bffe07 	ldb	r2,-8(fp)
    21ac:	1000631e 	bne	r2,zero,233c <dhcp_select+0x1d4>
    dhcp_option(dhcp, DHCP_OPTION_MAX_MSG_SIZE, DHCP_OPTION_MAX_MSG_SIZE_LEN);
    21b0:	e13ffd17 	ldw	r4,-12(fp)
    21b4:	01400e44 	movi	r5,57
    21b8:	01800084 	movi	r6,2
    21bc:	0003cd80 	call	3cd8 <dhcp_option>
    dhcp_option_short(dhcp, DHCP_MAX_MSG_LEN(netif));
    21c0:	e0bfff17 	ldw	r2,-4(fp)
    21c4:	1080090b 	ldhu	r2,36(r2)
    21c8:	10bfffcc 	andi	r2,r2,65535
    21cc:	e13ffd17 	ldw	r4,-12(fp)
    21d0:	100b883a 	mov	r5,r2
    21d4:	0003e580 	call	3e58 <dhcp_option_short>

    /* MUST request the offered IP address */
    dhcp_option(dhcp, DHCP_OPTION_REQUESTED_IP, 4);
    21d8:	e13ffd17 	ldw	r4,-12(fp)
    21dc:	01400c84 	movi	r5,50
    21e0:	01800104 	movi	r6,4
    21e4:	0003cd80 	call	3cd8 <dhcp_option>
    dhcp_option_long(dhcp, ntohl(ip4_addr_get_u32(&dhcp->offered_ip_addr)));
    21e8:	e0bffd17 	ldw	r2,-12(fp)
    21ec:	10800917 	ldw	r2,36(r2)
    21f0:	1006d63a 	srli	r3,r2,24
    21f4:	e0bffd17 	ldw	r2,-12(fp)
    21f8:	10800917 	ldw	r2,36(r2)
    21fc:	1004d23a 	srli	r2,r2,8
    2200:	10bfc00c 	andi	r2,r2,65280
    2204:	1886b03a 	or	r3,r3,r2
    2208:	e0bffd17 	ldw	r2,-12(fp)
    220c:	10800917 	ldw	r2,36(r2)
    2210:	10bfc00c 	andi	r2,r2,65280
    2214:	1004923a 	slli	r2,r2,8
    2218:	1886b03a 	or	r3,r3,r2
    221c:	e0bffd17 	ldw	r2,-12(fp)
    2220:	10800917 	ldw	r2,36(r2)
    2224:	1004963a 	slli	r2,r2,24
    2228:	1884b03a 	or	r2,r3,r2
    222c:	e13ffd17 	ldw	r4,-12(fp)
    2230:	100b883a 	mov	r5,r2
    2234:	0003f300 	call	3f30 <dhcp_option_long>

    dhcp_option(dhcp, DHCP_OPTION_SERVER_ID, 4);
    2238:	e13ffd17 	ldw	r4,-12(fp)
    223c:	01400d84 	movi	r5,54
    2240:	01800104 	movi	r6,4
    2244:	0003cd80 	call	3cd8 <dhcp_option>
    dhcp_option_long(dhcp, ntohl(ip4_addr_get_u32(&dhcp->server_ip_addr)));
    2248:	e0bffd17 	ldw	r2,-12(fp)
    224c:	10800817 	ldw	r2,32(r2)
    2250:	1006d63a 	srli	r3,r2,24
    2254:	e0bffd17 	ldw	r2,-12(fp)
    2258:	10800817 	ldw	r2,32(r2)
    225c:	1004d23a 	srli	r2,r2,8
    2260:	10bfc00c 	andi	r2,r2,65280
    2264:	1886b03a 	or	r3,r3,r2
    2268:	e0bffd17 	ldw	r2,-12(fp)
    226c:	10800817 	ldw	r2,32(r2)
    2270:	10bfc00c 	andi	r2,r2,65280
    2274:	1004923a 	slli	r2,r2,8
    2278:	1886b03a 	or	r3,r3,r2
    227c:	e0bffd17 	ldw	r2,-12(fp)
    2280:	10800817 	ldw	r2,32(r2)
    2284:	1004963a 	slli	r2,r2,24
    2288:	1884b03a 	or	r2,r3,r2
    228c:	e13ffd17 	ldw	r4,-12(fp)
    2290:	100b883a 	mov	r5,r2
    2294:	0003f300 	call	3f30 <dhcp_option_long>

    dhcp_option(dhcp, DHCP_OPTION_PARAMETER_REQUEST_LIST, 4/*num options*/);
    2298:	e13ffd17 	ldw	r4,-12(fp)
    229c:	01400dc4 	movi	r5,55
    22a0:	01800104 	movi	r6,4
    22a4:	0003cd80 	call	3cd8 <dhcp_option>
    dhcp_option_byte(dhcp, DHCP_OPTION_SUBNET_MASK);
    22a8:	e13ffd17 	ldw	r4,-12(fp)
    22ac:	01400044 	movi	r5,1
    22b0:	0003dbc0 	call	3dbc <dhcp_option_byte>
    dhcp_option_byte(dhcp, DHCP_OPTION_ROUTER);
    22b4:	e13ffd17 	ldw	r4,-12(fp)
    22b8:	014000c4 	movi	r5,3
    22bc:	0003dbc0 	call	3dbc <dhcp_option_byte>
    dhcp_option_byte(dhcp, DHCP_OPTION_BROADCAST);
    22c0:	e13ffd17 	ldw	r4,-12(fp)
    22c4:	01400704 	movi	r5,28
    22c8:	0003dbc0 	call	3dbc <dhcp_option_byte>
    dhcp_option_byte(dhcp, DHCP_OPTION_DNS_SERVER);
    22cc:	e13ffd17 	ldw	r4,-12(fp)
    22d0:	01400184 	movi	r5,6
    22d4:	0003dbc0 	call	3dbc <dhcp_option_byte>

#if LWIP_NETIF_HOSTNAME
    dhcp_option_hostname(dhcp, netif);
#endif /* LWIP_NETIF_HOSTNAME */

    dhcp_option_trailer(dhcp);
    22d8:	e13ffd17 	ldw	r4,-12(fp)
    22dc:	00052600 	call	5260 <dhcp_option_trailer>
    /* shrink the pbuf to the actual content length */
    pbuf_realloc(dhcp->p_out, sizeof(struct dhcp_msg) - DHCP_OPTIONS_LEN + dhcp->options_out_len);
    22e0:	e0bffd17 	ldw	r2,-12(fp)
    22e4:	10c00417 	ldw	r3,16(r2)
    22e8:	e0bffd17 	ldw	r2,-12(fp)
    22ec:	1080060b 	ldhu	r2,24(r2)
    22f0:	10803c04 	addi	r2,r2,240
    22f4:	10bfffcc 	andi	r2,r2,65535
    22f8:	1809883a 	mov	r4,r3
    22fc:	100b883a 	mov	r5,r2
    2300:	000a5b80 	call	a5b8 <pbuf_realloc>

    /* send broadcast to any DHCP server */
    udp_sendto_if(dhcp->pcb, dhcp->p_out, IP_ADDR_BROADCAST, DHCP_SERVER_PORT, netif);
    2304:	e0bffd17 	ldw	r2,-12(fp)
    2308:	10c00117 	ldw	r3,4(r2)
    230c:	e0bffd17 	ldw	r2,-12(fp)
    2310:	10800417 	ldw	r2,16(r2)
    2314:	e13fff17 	ldw	r4,-4(fp)
    2318:	d9000015 	stw	r4,0(sp)
    231c:	1809883a 	mov	r4,r3
    2320:	100b883a 	mov	r5,r2
    2324:	018000f4 	movhi	r6,3
    2328:	31957504 	addi	r6,r6,21972
    232c:	01c010c4 	movi	r7,67
    2330:	00157880 	call	15788 <udp_sendto_if>
    dhcp_delete_msg(dhcp);
    2334:	e13ffd17 	ldw	r4,-12(fp)
    2338:	00051800 	call	5180 <dhcp_delete_msg>
    LWIP_DEBUGF(DHCP_DEBUG | LWIP_DBG_TRACE | LWIP_DBG_STATE, ("dhcp_select: REQUESTING\n"));
  } else {
    LWIP_DEBUGF(DHCP_DEBUG | LWIP_DBG_TRACE | LWIP_DBG_LEVEL_WARNING, ("dhcp_select: could not allocate DHCP request\n"));
  }
  dhcp->tries++;
    233c:	e0bffd17 	ldw	r2,-12(fp)
    2340:	10800343 	ldbu	r2,13(r2)
    2344:	10800044 	addi	r2,r2,1
    2348:	1007883a 	mov	r3,r2
    234c:	e0bffd17 	ldw	r2,-12(fp)
    2350:	10c00345 	stb	r3,13(r2)
  msecs = (dhcp->tries < 6 ? 1 << dhcp->tries : 60) * 1000;
    2354:	e0bffd17 	ldw	r2,-12(fp)
    2358:	10800343 	ldbu	r2,13(r2)
    235c:	10803fcc 	andi	r2,r2,255
    2360:	108001a8 	cmpgeui	r2,r2,6
    2364:	1000061e 	bne	r2,zero,2380 <dhcp_select+0x218>
    2368:	e0bffd17 	ldw	r2,-12(fp)
    236c:	10800343 	ldbu	r2,13(r2)
    2370:	10803fcc 	andi	r2,r2,255
    2374:	00c0fa04 	movi	r3,1000
    2378:	1884983a 	sll	r2,r3,r2
    237c:	00000106 	br	2384 <dhcp_select+0x21c>
    2380:	00ba9804 	movi	r2,-5536
    2384:	e0bffe8d 	sth	r2,-6(fp)
  dhcp->request_timeout = (msecs + DHCP_FINE_TIMER_MSECS - 1) / DHCP_FINE_TIMER_MSECS;
    2388:	e0bffe8b 	ldhu	r2,-6(fp)
    238c:	10c07cc4 	addi	r3,r2,499
    2390:	00807d04 	movi	r2,500
    2394:	1885283a 	div	r2,r3,r2
    2398:	1007883a 	mov	r3,r2
    239c:	e0bffd17 	ldw	r2,-12(fp)
    23a0:	10c0068d 	sth	r3,26(r2)
  LWIP_DEBUGF(DHCP_DEBUG | LWIP_DBG_STATE, ("dhcp_select(): set request timeout %"U16_F" msecs\n", msecs));
  return result;
    23a4:	e0bffe03 	ldbu	r2,-8(fp)
}
    23a8:	e037883a 	mov	sp,fp
    23ac:	dfc00117 	ldw	ra,4(sp)
    23b0:	df000017 	ldw	fp,0(sp)
    23b4:	dec00204 	addi	sp,sp,8
    23b8:	f800283a 	ret

000023bc <dhcp_coarse_tmr>:
/**
 * The DHCP timer that checks for lease renewal/rebind timeouts.
 */
void
dhcp_coarse_tmr()
{
    23bc:	defffd04 	addi	sp,sp,-12
    23c0:	dfc00215 	stw	ra,8(sp)
    23c4:	df000115 	stw	fp,4(sp)
    23c8:	df000104 	addi	fp,sp,4
  struct netif *netif = netif_list;
    23cc:	008000f4 	movhi	r2,3
    23d0:	109e2904 	addi	r2,r2,30884
    23d4:	10800017 	ldw	r2,0(r2)
    23d8:	e0bfff15 	stw	r2,-4(fp)
  LWIP_DEBUGF(DHCP_DEBUG | LWIP_DBG_TRACE, ("dhcp_coarse_tmr()\n"));
  /* iterate through all network interfaces */
  while (netif != NULL) {
    23dc:	00001d06 	br	2454 <dhcp_coarse_tmr+0x98>
    /* only act on DHCP configured interfaces */
    if (netif->dhcp != NULL) {
    23e0:	e0bfff17 	ldw	r2,-4(fp)
    23e4:	10800817 	ldw	r2,32(r2)
    23e8:	10001726 	beq	r2,zero,2448 <dhcp_coarse_tmr+0x8c>
      /* timer is active (non zero), and triggers (zeroes) now? */
      if (netif->dhcp->t2_timeout-- == 1) {
    23ec:	e0bfff17 	ldw	r2,-4(fp)
    23f0:	10800817 	ldw	r2,32(r2)
    23f4:	10c0078b 	ldhu	r3,30(r2)
    23f8:	193fffcc 	andi	r4,r3,65535
    23fc:	21000060 	cmpeqi	r4,r4,1
    2400:	18ffffc4 	addi	r3,r3,-1
    2404:	10c0078d 	sth	r3,30(r2)
    2408:	20803fcc 	andi	r2,r4,255
    240c:	10000326 	beq	r2,zero,241c <dhcp_coarse_tmr+0x60>
        LWIP_DEBUGF(DHCP_DEBUG | LWIP_DBG_TRACE | LWIP_DBG_STATE, ("dhcp_coarse_tmr(): t2 timeout\n"));
        /* this clients' rebind timeout triggered */
        dhcp_t2_timeout(netif);
    2410:	e13fff17 	ldw	r4,-4(fp)
    2414:	00027380 	call	2738 <dhcp_t2_timeout>
    2418:	00000b06 	br	2448 <dhcp_coarse_tmr+0x8c>
      /* timer is active (non zero), and triggers (zeroes) now */
      } else if (netif->dhcp->t1_timeout-- == 1) {
    241c:	e0bfff17 	ldw	r2,-4(fp)
    2420:	10800817 	ldw	r2,32(r2)
    2424:	10c0070b 	ldhu	r3,28(r2)
    2428:	193fffcc 	andi	r4,r3,65535
    242c:	21000060 	cmpeqi	r4,r4,1
    2430:	18ffffc4 	addi	r3,r3,-1
    2434:	10c0070d 	sth	r3,28(r2)
    2438:	20803fcc 	andi	r2,r4,255
    243c:	10000226 	beq	r2,zero,2448 <dhcp_coarse_tmr+0x8c>
        LWIP_DEBUGF(DHCP_DEBUG | LWIP_DBG_TRACE | LWIP_DBG_STATE, ("dhcp_coarse_tmr(): t1 timeout\n"));
        /* this clients' renewal timeout triggered */
        dhcp_t1_timeout(netif);
    2440:	e13fff17 	ldw	r4,-4(fp)
    2444:	00026c00 	call	26c0 <dhcp_t1_timeout>
      }
    }
    /* proceed to next netif */
    netif = netif->next;
    2448:	e0bfff17 	ldw	r2,-4(fp)
    244c:	10800017 	ldw	r2,0(r2)
    2450:	e0bfff15 	stw	r2,-4(fp)
dhcp_coarse_tmr()
{
  struct netif *netif = netif_list;
  LWIP_DEBUGF(DHCP_DEBUG | LWIP_DBG_TRACE, ("dhcp_coarse_tmr()\n"));
  /* iterate through all network interfaces */
  while (netif != NULL) {
    2454:	e0bfff17 	ldw	r2,-4(fp)
    2458:	103fe11e 	bne	r2,zero,23e0 <dhcp_coarse_tmr+0x24>
      }
    }
    /* proceed to next netif */
    netif = netif->next;
  }
}
    245c:	e037883a 	mov	sp,fp
    2460:	dfc00117 	ldw	ra,4(sp)
    2464:	df000017 	ldw	fp,0(sp)
    2468:	dec00204 	addi	sp,sp,8
    246c:	f800283a 	ret

00002470 <dhcp_fine_tmr>:
 * A DHCP server is expected to respond within a short period of time.
 * This timer checks whether an outstanding DHCP request is timed out.
 */
void
dhcp_fine_tmr()
{
    2470:	defffd04 	addi	sp,sp,-12
    2474:	dfc00215 	stw	ra,8(sp)
    2478:	df000115 	stw	fp,4(sp)
    247c:	df000104 	addi	fp,sp,4
  struct netif *netif = netif_list;
    2480:	008000f4 	movhi	r2,3
    2484:	109e2904 	addi	r2,r2,30884
    2488:	10800017 	ldw	r2,0(r2)
    248c:	e0bfff15 	stw	r2,-4(fp)
  /* loop through netif's */
  while (netif != NULL) {
    2490:	00001f06 	br	2510 <dhcp_fine_tmr+0xa0>
    /* only act on DHCP configured interfaces */
    if (netif->dhcp != NULL) {
    2494:	e0bfff17 	ldw	r2,-4(fp)
    2498:	10800817 	ldw	r2,32(r2)
    249c:	10001926 	beq	r2,zero,2504 <dhcp_fine_tmr+0x94>
      /* timer is active (non zero), and is about to trigger now */      
      if (netif->dhcp->request_timeout > 1) {
    24a0:	e0bfff17 	ldw	r2,-4(fp)
    24a4:	10800817 	ldw	r2,32(r2)
    24a8:	1080068b 	ldhu	r2,26(r2)
    24ac:	10bfffcc 	andi	r2,r2,65535
    24b0:	108000b0 	cmpltui	r2,r2,2
    24b4:	1000061e 	bne	r2,zero,24d0 <dhcp_fine_tmr+0x60>
        netif->dhcp->request_timeout--;
    24b8:	e0bfff17 	ldw	r2,-4(fp)
    24bc:	10800817 	ldw	r2,32(r2)
    24c0:	10c0068b 	ldhu	r3,26(r2)
    24c4:	18ffffc4 	addi	r3,r3,-1
    24c8:	10c0068d 	sth	r3,26(r2)
    24cc:	00000d06 	br	2504 <dhcp_fine_tmr+0x94>
      }
      else if (netif->dhcp->request_timeout == 1) {
    24d0:	e0bfff17 	ldw	r2,-4(fp)
    24d4:	10800817 	ldw	r2,32(r2)
    24d8:	1080068b 	ldhu	r2,26(r2)
    24dc:	10bfffcc 	andi	r2,r2,65535
    24e0:	10800058 	cmpnei	r2,r2,1
    24e4:	1000071e 	bne	r2,zero,2504 <dhcp_fine_tmr+0x94>
        netif->dhcp->request_timeout--;
    24e8:	e0bfff17 	ldw	r2,-4(fp)
    24ec:	10800817 	ldw	r2,32(r2)
    24f0:	10c0068b 	ldhu	r3,26(r2)
    24f4:	18ffffc4 	addi	r3,r3,-1
    24f8:	10c0068d 	sth	r3,26(r2)
        /* { netif->dhcp->request_timeout == 0 } */
        LWIP_DEBUGF(DHCP_DEBUG | LWIP_DBG_TRACE | LWIP_DBG_STATE, ("dhcp_fine_tmr(): request timeout\n"));
        /* this client's request timeout triggered */
        dhcp_timeout(netif);
    24fc:	e13fff17 	ldw	r4,-4(fp)
    2500:	000252c0 	call	252c <dhcp_timeout>
      }
    }
    /* proceed to next network interface */
    netif = netif->next;
    2504:	e0bfff17 	ldw	r2,-4(fp)
    2508:	10800017 	ldw	r2,0(r2)
    250c:	e0bfff15 	stw	r2,-4(fp)
void
dhcp_fine_tmr()
{
  struct netif *netif = netif_list;
  /* loop through netif's */
  while (netif != NULL) {
    2510:	e0bfff17 	ldw	r2,-4(fp)
    2514:	103fdf1e 	bne	r2,zero,2494 <dhcp_fine_tmr+0x24>
      }
    }
    /* proceed to next network interface */
    netif = netif->next;
  }
}
    2518:	e037883a 	mov	sp,fp
    251c:	dfc00117 	ldw	ra,4(sp)
    2520:	df000017 	ldw	fp,0(sp)
    2524:	dec00204 	addi	sp,sp,8
    2528:	f800283a 	ret

0000252c <dhcp_timeout>:
 *
 * @param netif the netif under DHCP control
 */
static void
dhcp_timeout(struct netif *netif)
{
    252c:	defffc04 	addi	sp,sp,-16
    2530:	dfc00315 	stw	ra,12(sp)
    2534:	df000215 	stw	fp,8(sp)
    2538:	df000204 	addi	fp,sp,8
    253c:	e13fff15 	stw	r4,-4(fp)
  struct dhcp *dhcp = netif->dhcp;
    2540:	e0bfff17 	ldw	r2,-4(fp)
    2544:	10800817 	ldw	r2,32(r2)
    2548:	e0bffe15 	stw	r2,-8(fp)
  LWIP_DEBUGF(DHCP_DEBUG | LWIP_DBG_TRACE, ("dhcp_timeout()\n"));
  /* back-off period has passed, or server selection timed out */
  if ((dhcp->state == DHCP_BACKING_OFF) || (dhcp->state == DHCP_SELECTING)) {
    254c:	e0bffe17 	ldw	r2,-8(fp)
    2550:	10800303 	ldbu	r2,12(r2)
    2554:	10803fcc 	andi	r2,r2,255
    2558:	10800320 	cmpeqi	r2,r2,12
    255c:	1000051e 	bne	r2,zero,2574 <dhcp_timeout+0x48>
    2560:	e0bffe17 	ldw	r2,-8(fp)
    2564:	10800303 	ldbu	r2,12(r2)
    2568:	10803fcc 	andi	r2,r2,255
    256c:	10800198 	cmpnei	r2,r2,6
    2570:	1000031e 	bne	r2,zero,2580 <dhcp_timeout+0x54>
    LWIP_DEBUGF(DHCP_DEBUG | LWIP_DBG_TRACE, ("dhcp_timeout(): restarting discovery\n"));
    dhcp_discover(netif);
    2574:	e13fff17 	ldw	r4,-4(fp)
    2578:	00031900 	call	3190 <dhcp_discover>
    257c:	00004b06 	br	26ac <dhcp_timeout+0x180>
  /* receiving the requested lease timed out */
  } else if (dhcp->state == DHCP_REQUESTING) {
    2580:	e0bffe17 	ldw	r2,-8(fp)
    2584:	10800303 	ldbu	r2,12(r2)
    2588:	10803fcc 	andi	r2,r2,255
    258c:	10800058 	cmpnei	r2,r2,1
    2590:	10000d1e 	bne	r2,zero,25c8 <dhcp_timeout+0x9c>
    LWIP_DEBUGF(DHCP_DEBUG | LWIP_DBG_TRACE | LWIP_DBG_STATE, ("dhcp_timeout(): REQUESTING, DHCP request timed out\n"));
    if (dhcp->tries <= 5) {
    2594:	e0bffe17 	ldw	r2,-8(fp)
    2598:	10800343 	ldbu	r2,13(r2)
    259c:	10803fcc 	andi	r2,r2,255
    25a0:	108001a8 	cmpgeui	r2,r2,6
    25a4:	1000031e 	bne	r2,zero,25b4 <dhcp_timeout+0x88>
      dhcp_select(netif);
    25a8:	e13fff17 	ldw	r4,-4(fp)
    25ac:	00021680 	call	2168 <dhcp_select>
    25b0:	00003e06 	br	26ac <dhcp_timeout+0x180>
    } else {
      LWIP_DEBUGF(DHCP_DEBUG | LWIP_DBG_TRACE | LWIP_DBG_STATE, ("dhcp_timeout(): REQUESTING, releasing, restarting\n"));
      dhcp_release(netif);
    25b4:	e13fff17 	ldw	r4,-4(fp)
    25b8:	00039f40 	call	39f4 <dhcp_release>
      dhcp_discover(netif);
    25bc:	e13fff17 	ldw	r4,-4(fp)
    25c0:	00031900 	call	3190 <dhcp_discover>
    25c4:	00003906 	br	26ac <dhcp_timeout+0x180>
    }
#if DHCP_DOES_ARP_CHECK
  /* received no ARP reply for the offered address (which is good) */
  } else if (dhcp->state == DHCP_CHECKING) {
    25c8:	e0bffe17 	ldw	r2,-8(fp)
    25cc:	10800303 	ldbu	r2,12(r2)
    25d0:	10803fcc 	andi	r2,r2,255
    25d4:	10800218 	cmpnei	r2,r2,8
    25d8:	10000b1e 	bne	r2,zero,2608 <dhcp_timeout+0xdc>
    LWIP_DEBUGF(DHCP_DEBUG | LWIP_DBG_TRACE | LWIP_DBG_STATE, ("dhcp_timeout(): CHECKING, ARP request timed out\n"));
    if (dhcp->tries <= 1) {
    25dc:	e0bffe17 	ldw	r2,-8(fp)
    25e0:	10800343 	ldbu	r2,13(r2)
    25e4:	10803fcc 	andi	r2,r2,255
    25e8:	108000a8 	cmpgeui	r2,r2,2
    25ec:	1000031e 	bne	r2,zero,25fc <dhcp_timeout+0xd0>
      dhcp_check(netif);
    25f0:	e13fff17 	ldw	r4,-4(fp)
    25f4:	00020000 	call	2000 <dhcp_check>
    25f8:	00002c06 	br	26ac <dhcp_timeout+0x180>
    /* no ARP replies on the offered address,
       looks like the IP address is indeed free */
    } else {
      /* bind the interface to the offered address */
      dhcp_bind(netif);
    25fc:	e13fff17 	ldw	r4,-4(fp)
    2600:	00033300 	call	3330 <dhcp_bind>
    2604:	00002906 	br	26ac <dhcp_timeout+0x180>
    }
#endif /* DHCP_DOES_ARP_CHECK */
  }
  /* did not get response to renew request? */
  else if (dhcp->state == DHCP_RENEWING) {
    2608:	e0bffe17 	ldw	r2,-8(fp)
    260c:	10800303 	ldbu	r2,12(r2)
    2610:	10803fcc 	andi	r2,r2,255
    2614:	10800158 	cmpnei	r2,r2,5
    2618:	1000031e 	bne	r2,zero,2628 <dhcp_timeout+0xfc>
    LWIP_DEBUGF(DHCP_DEBUG | LWIP_DBG_TRACE | LWIP_DBG_STATE, ("dhcp_timeout(): RENEWING, DHCP request timed out\n"));
    /* just retry renewal */
    /* note that the rebind timer will eventually time-out if renew does not work */
    dhcp_renew(netif);
    261c:	e13fff17 	ldw	r4,-4(fp)
    2620:	00035b00 	call	35b0 <dhcp_renew>
    2624:	00002106 	br	26ac <dhcp_timeout+0x180>
  /* did not get response to rebind request? */
  } else if (dhcp->state == DHCP_REBINDING) {
    2628:	e0bffe17 	ldw	r2,-8(fp)
    262c:	10800303 	ldbu	r2,12(r2)
    2630:	10803fcc 	andi	r2,r2,255
    2634:	10800118 	cmpnei	r2,r2,4
    2638:	10000d1e 	bne	r2,zero,2670 <dhcp_timeout+0x144>
    LWIP_DEBUGF(DHCP_DEBUG | LWIP_DBG_TRACE | LWIP_DBG_STATE, ("dhcp_timeout(): REBINDING, DHCP request timed out\n"));
    if (dhcp->tries <= 8) {
    263c:	e0bffe17 	ldw	r2,-8(fp)
    2640:	10800343 	ldbu	r2,13(r2)
    2644:	10803fcc 	andi	r2,r2,255
    2648:	10800268 	cmpgeui	r2,r2,9
    264c:	1000031e 	bne	r2,zero,265c <dhcp_timeout+0x130>
      dhcp_rebind(netif);
    2650:	e13fff17 	ldw	r4,-4(fp)
    2654:	00037000 	call	3700 <dhcp_rebind>
    2658:	00001406 	br	26ac <dhcp_timeout+0x180>
    } else {
      LWIP_DEBUGF(DHCP_DEBUG | LWIP_DBG_TRACE | LWIP_DBG_STATE, ("dhcp_timeout(): RELEASING, DISCOVERING\n"));
      dhcp_release(netif);
    265c:	e13fff17 	ldw	r4,-4(fp)
    2660:	00039f40 	call	39f4 <dhcp_release>
      dhcp_discover(netif);
    2664:	e13fff17 	ldw	r4,-4(fp)
    2668:	00031900 	call	3190 <dhcp_discover>
    266c:	00000f06 	br	26ac <dhcp_timeout+0x180>
    }
  } else if (dhcp->state == DHCP_REBOOTING) {
    2670:	e0bffe17 	ldw	r2,-8(fp)
    2674:	10800303 	ldbu	r2,12(r2)
    2678:	10803fcc 	andi	r2,r2,255
    267c:	108000d8 	cmpnei	r2,r2,3
    2680:	10000a1e 	bne	r2,zero,26ac <dhcp_timeout+0x180>
    if (dhcp->tries < REBOOT_TRIES) {
    2684:	e0bffe17 	ldw	r2,-8(fp)
    2688:	10800343 	ldbu	r2,13(r2)
    268c:	10803fcc 	andi	r2,r2,255
    2690:	108000a8 	cmpgeui	r2,r2,2
    2694:	1000031e 	bne	r2,zero,26a4 <dhcp_timeout+0x178>
      dhcp_reboot(netif);
    2698:	e13fff17 	ldw	r4,-4(fp)
    269c:	00038500 	call	3850 <dhcp_reboot>
    26a0:	00000206 	br	26ac <dhcp_timeout+0x180>
    } else {
      dhcp_discover(netif);
    26a4:	e13fff17 	ldw	r4,-4(fp)
    26a8:	00031900 	call	3190 <dhcp_discover>
    }
  }
}
    26ac:	e037883a 	mov	sp,fp
    26b0:	dfc00117 	ldw	ra,4(sp)
    26b4:	df000017 	ldw	fp,0(sp)
    26b8:	dec00204 	addi	sp,sp,8
    26bc:	f800283a 	ret

000026c0 <dhcp_t1_timeout>:
 *
 * @param netif the netif under DHCP control
 */
static void
dhcp_t1_timeout(struct netif *netif)
{
    26c0:	defffc04 	addi	sp,sp,-16
    26c4:	dfc00315 	stw	ra,12(sp)
    26c8:	df000215 	stw	fp,8(sp)
    26cc:	df000204 	addi	fp,sp,8
    26d0:	e13fff15 	stw	r4,-4(fp)
  struct dhcp *dhcp = netif->dhcp;
    26d4:	e0bfff17 	ldw	r2,-4(fp)
    26d8:	10800817 	ldw	r2,32(r2)
    26dc:	e0bffe15 	stw	r2,-8(fp)
  LWIP_DEBUGF(DHCP_DEBUG | LWIP_DBG_STATE, ("dhcp_t1_timeout()\n"));
  if ((dhcp->state == DHCP_REQUESTING) || (dhcp->state == DHCP_BOUND) ||
    26e0:	e0bffe17 	ldw	r2,-8(fp)
    26e4:	10800303 	ldbu	r2,12(r2)
    26e8:	10803fcc 	andi	r2,r2,255
    26ec:	10800060 	cmpeqi	r2,r2,1
    26f0:	10000a1e 	bne	r2,zero,271c <dhcp_t1_timeout+0x5c>
    26f4:	e0bffe17 	ldw	r2,-8(fp)
    26f8:	10800303 	ldbu	r2,12(r2)
    26fc:	10803fcc 	andi	r2,r2,255
    2700:	108002a0 	cmpeqi	r2,r2,10
    2704:	1000051e 	bne	r2,zero,271c <dhcp_t1_timeout+0x5c>
      (dhcp->state == DHCP_RENEWING)) {
    2708:	e0bffe17 	ldw	r2,-8(fp)
    270c:	10800303 	ldbu	r2,12(r2)
static void
dhcp_t1_timeout(struct netif *netif)
{
  struct dhcp *dhcp = netif->dhcp;
  LWIP_DEBUGF(DHCP_DEBUG | LWIP_DBG_STATE, ("dhcp_t1_timeout()\n"));
  if ((dhcp->state == DHCP_REQUESTING) || (dhcp->state == DHCP_BOUND) ||
    2710:	10803fcc 	andi	r2,r2,255
    2714:	10800158 	cmpnei	r2,r2,5
    2718:	1000021e 	bne	r2,zero,2724 <dhcp_t1_timeout+0x64>
     * eventually time-out if renew tries fail. */
    LWIP_DEBUGF(DHCP_DEBUG | LWIP_DBG_TRACE | LWIP_DBG_STATE,
                ("dhcp_t1_timeout(): must renew\n"));
    /* This slightly different to RFC2131: DHCPREQUEST will be sent from state
       DHCP_RENEWING, not DHCP_BOUND */
    dhcp_renew(netif);
    271c:	e13fff17 	ldw	r4,-4(fp)
    2720:	00035b00 	call	35b0 <dhcp_renew>
  }
}
    2724:	e037883a 	mov	sp,fp
    2728:	dfc00117 	ldw	ra,4(sp)
    272c:	df000017 	ldw	fp,0(sp)
    2730:	dec00204 	addi	sp,sp,8
    2734:	f800283a 	ret

00002738 <dhcp_t2_timeout>:
 *
 * @param netif the netif under DHCP control
 */
static void
dhcp_t2_timeout(struct netif *netif)
{
    2738:	defffc04 	addi	sp,sp,-16
    273c:	dfc00315 	stw	ra,12(sp)
    2740:	df000215 	stw	fp,8(sp)
    2744:	df000204 	addi	fp,sp,8
    2748:	e13fff15 	stw	r4,-4(fp)
  struct dhcp *dhcp = netif->dhcp;
    274c:	e0bfff17 	ldw	r2,-4(fp)
    2750:	10800817 	ldw	r2,32(r2)
    2754:	e0bffe15 	stw	r2,-8(fp)
  LWIP_DEBUGF(DHCP_DEBUG | LWIP_DBG_TRACE | LWIP_DBG_STATE, ("dhcp_t2_timeout()\n"));
  if ((dhcp->state == DHCP_REQUESTING) || (dhcp->state == DHCP_BOUND) ||
    2758:	e0bffe17 	ldw	r2,-8(fp)
    275c:	10800303 	ldbu	r2,12(r2)
    2760:	10803fcc 	andi	r2,r2,255
    2764:	10800060 	cmpeqi	r2,r2,1
    2768:	10000a1e 	bne	r2,zero,2794 <dhcp_t2_timeout+0x5c>
    276c:	e0bffe17 	ldw	r2,-8(fp)
    2770:	10800303 	ldbu	r2,12(r2)
    2774:	10803fcc 	andi	r2,r2,255
    2778:	108002a0 	cmpeqi	r2,r2,10
    277c:	1000051e 	bne	r2,zero,2794 <dhcp_t2_timeout+0x5c>
      (dhcp->state == DHCP_RENEWING)) {
    2780:	e0bffe17 	ldw	r2,-8(fp)
    2784:	10800303 	ldbu	r2,12(r2)
static void
dhcp_t2_timeout(struct netif *netif)
{
  struct dhcp *dhcp = netif->dhcp;
  LWIP_DEBUGF(DHCP_DEBUG | LWIP_DBG_TRACE | LWIP_DBG_STATE, ("dhcp_t2_timeout()\n"));
  if ((dhcp->state == DHCP_REQUESTING) || (dhcp->state == DHCP_BOUND) ||
    2788:	10803fcc 	andi	r2,r2,255
    278c:	10800158 	cmpnei	r2,r2,5
    2790:	1000021e 	bne	r2,zero,279c <dhcp_t2_timeout+0x64>
    /* just retry to rebind */
    LWIP_DEBUGF(DHCP_DEBUG | LWIP_DBG_TRACE | LWIP_DBG_STATE,
                ("dhcp_t2_timeout(): must rebind\n"));
    /* This slightly different to RFC2131: DHCPREQUEST will be sent from state
       DHCP_REBINDING, not DHCP_BOUND */
    dhcp_rebind(netif);
    2794:	e13fff17 	ldw	r4,-4(fp)
    2798:	00037000 	call	3700 <dhcp_rebind>
  }
}
    279c:	e037883a 	mov	sp,fp
    27a0:	dfc00117 	ldw	ra,4(sp)
    27a4:	df000017 	ldw	fp,0(sp)
    27a8:	dec00204 	addi	sp,sp,8
    27ac:	f800283a 	ret

000027b0 <dhcp_handle_ack>:
 *
 * @param netif the netif under DHCP control
 */
static void
dhcp_handle_ack(struct netif *netif)
{
    27b0:	defffd04 	addi	sp,sp,-12
    27b4:	df000215 	stw	fp,8(sp)
    27b8:	df000204 	addi	fp,sp,8
    27bc:	e13fff15 	stw	r4,-4(fp)
  struct dhcp *dhcp = netif->dhcp;
    27c0:	e0bfff17 	ldw	r2,-4(fp)
    27c4:	10800817 	ldw	r2,32(r2)
    27c8:	e0bffe15 	stw	r2,-8(fp)
#if LWIP_DNS
  u8_t n;
#endif /* LWIP_DNS */

  /* clear options we might not get from the ACK */
  ip_addr_set_zero(&dhcp->offered_sn_mask);
    27cc:	e0bffe17 	ldw	r2,-8(fp)
    27d0:	10000a15 	stw	zero,40(r2)
  ip_addr_set_zero(&dhcp->offered_gw_addr);
    27d4:	e0bffe17 	ldw	r2,-8(fp)
    27d8:	10000b15 	stw	zero,44(r2)
#if LWIP_DHCP_BOOTP_FILE
  ip_addr_set_zero(&dhcp->offered_si_addr);
#endif /* LWIP_DHCP_BOOTP_FILE */

  /* lease time given? */
  if (dhcp_option_given(dhcp, DHCP_OPTION_IDX_LEASE_TIME)) {
    27dc:	00800234 	movhi	r2,8
    27e0:	10821b04 	addi	r2,r2,2156
    27e4:	108000c3 	ldbu	r2,3(r2)
    27e8:	10803fcc 	andi	r2,r2,255
    27ec:	10000526 	beq	r2,zero,2804 <dhcp_handle_ack+0x54>
    /* remember offered lease time */
    dhcp->offered_t0_lease = dhcp_get_option_value(dhcp, DHCP_OPTION_IDX_LEASE_TIME);
    27f0:	00800234 	movhi	r2,8
    27f4:	10821e04 	addi	r2,r2,2168
    27f8:	10c00317 	ldw	r3,12(r2)
    27fc:	e0bffe17 	ldw	r2,-8(fp)
    2800:	10c00c15 	stw	r3,48(r2)
  }
  /* renewal period given? */
  if (dhcp_option_given(dhcp, DHCP_OPTION_IDX_T1)) {
    2804:	00800234 	movhi	r2,8
    2808:	10821b04 	addi	r2,r2,2156
    280c:	10800103 	ldbu	r2,4(r2)
    2810:	10803fcc 	andi	r2,r2,255
    2814:	10000626 	beq	r2,zero,2830 <dhcp_handle_ack+0x80>
    /* remember given renewal period */
    dhcp->offered_t1_renew = dhcp_get_option_value(dhcp, DHCP_OPTION_IDX_T1);
    2818:	00800234 	movhi	r2,8
    281c:	10821e04 	addi	r2,r2,2168
    2820:	10c00417 	ldw	r3,16(r2)
    2824:	e0bffe17 	ldw	r2,-8(fp)
    2828:	10c00d15 	stw	r3,52(r2)
    282c:	00000506 	br	2844 <dhcp_handle_ack+0x94>
  } else {
    /* calculate safe periods for renewal */
    dhcp->offered_t1_renew = dhcp->offered_t0_lease / 2;
    2830:	e0bffe17 	ldw	r2,-8(fp)
    2834:	10800c17 	ldw	r2,48(r2)
    2838:	1006d07a 	srli	r3,r2,1
    283c:	e0bffe17 	ldw	r2,-8(fp)
    2840:	10c00d15 	stw	r3,52(r2)
  }

  /* renewal period given? */
  if (dhcp_option_given(dhcp, DHCP_OPTION_IDX_T2)) {
    2844:	00800234 	movhi	r2,8
    2848:	10821b04 	addi	r2,r2,2156
    284c:	10800143 	ldbu	r2,5(r2)
    2850:	10803fcc 	andi	r2,r2,255
    2854:	10000626 	beq	r2,zero,2870 <dhcp_handle_ack+0xc0>
    /* remember given rebind period */
    dhcp->offered_t2_rebind = dhcp_get_option_value(dhcp, DHCP_OPTION_IDX_T2);
    2858:	00800234 	movhi	r2,8
    285c:	10821e04 	addi	r2,r2,2168
    2860:	10c00517 	ldw	r3,20(r2)
    2864:	e0bffe17 	ldw	r2,-8(fp)
    2868:	10c00e15 	stw	r3,56(r2)
    286c:	00000406 	br	2880 <dhcp_handle_ack+0xd0>
  } else {
    /* calculate safe periods for rebinding */
    dhcp->offered_t2_rebind = dhcp->offered_t0_lease;
    2870:	e0bffe17 	ldw	r2,-8(fp)
    2874:	10c00c17 	ldw	r3,48(r2)
    2878:	e0bffe17 	ldw	r2,-8(fp)
    287c:	10c00e15 	stw	r3,56(r2)
  }

  /* (y)our internet address */
  ip_addr_copy(dhcp->offered_ip_addr, dhcp->msg_in->yiaddr);
    2880:	e0bffe17 	ldw	r2,-8(fp)
    2884:	10800217 	ldw	r2,8(r2)
    2888:	10c0040b 	ldhu	r3,16(r2)
    288c:	1080048b 	ldhu	r2,18(r2)
    2890:	1004943a 	slli	r2,r2,16
    2894:	10c4b03a 	or	r2,r2,r3
    2898:	1007883a 	mov	r3,r2
    289c:	e0bffe17 	ldw	r2,-8(fp)
    28a0:	10c00915 	stw	r3,36(r2)
     boot file name copied in dhcp_parse_reply if not overloaded */
  ip_addr_copy(dhcp->offered_si_addr, dhcp->msg_in->siaddr);
#endif /* LWIP_DHCP_BOOTP_FILE */

  /* subnet mask given? */
  if (dhcp_option_given(dhcp, DHCP_OPTION_IDX_SUBNET_MASK)) {
    28a4:	00800234 	movhi	r2,8
    28a8:	10821b04 	addi	r2,r2,2156
    28ac:	10800183 	ldbu	r2,6(r2)
    28b0:	10803fcc 	andi	r2,r2,255
    28b4:	10001b26 	beq	r2,zero,2924 <dhcp_handle_ack+0x174>
    /* remember given subnet mask */
    ip4_addr_set_u32(&dhcp->offered_sn_mask, htonl(dhcp_get_option_value(dhcp, DHCP_OPTION_IDX_SUBNET_MASK)));
    28b8:	00800234 	movhi	r2,8
    28bc:	10821e04 	addi	r2,r2,2168
    28c0:	10800617 	ldw	r2,24(r2)
    28c4:	1006d63a 	srli	r3,r2,24
    28c8:	00800234 	movhi	r2,8
    28cc:	10821e04 	addi	r2,r2,2168
    28d0:	10800617 	ldw	r2,24(r2)
    28d4:	1004d23a 	srli	r2,r2,8
    28d8:	10bfc00c 	andi	r2,r2,65280
    28dc:	1886b03a 	or	r3,r3,r2
    28e0:	00800234 	movhi	r2,8
    28e4:	10821e04 	addi	r2,r2,2168
    28e8:	10800617 	ldw	r2,24(r2)
    28ec:	10bfc00c 	andi	r2,r2,65280
    28f0:	1004923a 	slli	r2,r2,8
    28f4:	1886b03a 	or	r3,r3,r2
    28f8:	00800234 	movhi	r2,8
    28fc:	10821e04 	addi	r2,r2,2168
    2900:	10800617 	ldw	r2,24(r2)
    2904:	1004963a 	slli	r2,r2,24
    2908:	1886b03a 	or	r3,r3,r2
    290c:	e0bffe17 	ldw	r2,-8(fp)
    2910:	10c00a15 	stw	r3,40(r2)
    dhcp->subnet_mask_given = 1;
    2914:	e0bffe17 	ldw	r2,-8(fp)
    2918:	00c00044 	movi	r3,1
    291c:	10c00385 	stb	r3,14(r2)
    2920:	00000206 	br	292c <dhcp_handle_ack+0x17c>
  } else {
    dhcp->subnet_mask_given = 0;
    2924:	e0bffe17 	ldw	r2,-8(fp)
    2928:	10000385 	stb	zero,14(r2)
  }

  /* gateway router */
  if (dhcp_option_given(dhcp, DHCP_OPTION_IDX_ROUTER)) {
    292c:	00800234 	movhi	r2,8
    2930:	10821b04 	addi	r2,r2,2156
    2934:	108001c3 	ldbu	r2,7(r2)
    2938:	10803fcc 	andi	r2,r2,255
    293c:	10001726 	beq	r2,zero,299c <dhcp_handle_ack+0x1ec>
    ip4_addr_set_u32(&dhcp->offered_gw_addr, htonl(dhcp_get_option_value(dhcp, DHCP_OPTION_IDX_ROUTER)));
    2940:	00800234 	movhi	r2,8
    2944:	10821e04 	addi	r2,r2,2168
    2948:	10800717 	ldw	r2,28(r2)
    294c:	1006d63a 	srli	r3,r2,24
    2950:	00800234 	movhi	r2,8
    2954:	10821e04 	addi	r2,r2,2168
    2958:	10800717 	ldw	r2,28(r2)
    295c:	1004d23a 	srli	r2,r2,8
    2960:	10bfc00c 	andi	r2,r2,65280
    2964:	1886b03a 	or	r3,r3,r2
    2968:	00800234 	movhi	r2,8
    296c:	10821e04 	addi	r2,r2,2168
    2970:	10800717 	ldw	r2,28(r2)
    2974:	10bfc00c 	andi	r2,r2,65280
    2978:	1004923a 	slli	r2,r2,8
    297c:	1886b03a 	or	r3,r3,r2
    2980:	00800234 	movhi	r2,8
    2984:	10821e04 	addi	r2,r2,2168
    2988:	10800717 	ldw	r2,28(r2)
    298c:	1004963a 	slli	r2,r2,24
    2990:	1886b03a 	or	r3,r3,r2
    2994:	e0bffe17 	ldw	r2,-8(fp)
    2998:	10c00b15 	stw	r3,44(r2)
    ip4_addr_set_u32(&dns_addr, htonl(dhcp_get_option_value(dhcp, DHCP_OPTION_IDX_DNS_SERVER + n)));
    dns_setserver(n, &dns_addr);
    n++;
  }
#endif /* LWIP_DNS */
}
    299c:	e037883a 	mov	sp,fp
    29a0:	df000017 	ldw	fp,0(sp)
    29a4:	dec00104 	addi	sp,sp,4
    29a8:	f800283a 	ret

000029ac <dhcp_set_struct>:
 * @param netif the netif for which to set the struct dhcp
 * @param dhcp (uninitialised) dhcp struct allocated by the application
 */
void
dhcp_set_struct(struct netif *netif, struct dhcp *dhcp)
{
    29ac:	defffc04 	addi	sp,sp,-16
    29b0:	dfc00315 	stw	ra,12(sp)
    29b4:	df000215 	stw	fp,8(sp)
    29b8:	df000204 	addi	fp,sp,8
    29bc:	e13ffe15 	stw	r4,-8(fp)
    29c0:	e17fff15 	stw	r5,-4(fp)
  LWIP_ASSERT("netif != NULL", netif != NULL);
    29c4:	e0bffe17 	ldw	r2,-8(fp)
    29c8:	1000091e 	bne	r2,zero,29f0 <dhcp_set_struct+0x44>
    29cc:	010000f4 	movhi	r4,3
    29d0:	213ccf04 	addi	r4,r4,-3268
    29d4:	014000f4 	movhi	r5,3
    29d8:	297cd904 	addi	r5,r5,-3228
    29dc:	01809344 	movi	r6,589
    29e0:	01c000f4 	movhi	r7,3
    29e4:	39fcdd04 	addi	r7,r7,-3212
    29e8:	00193f00 	call	193f0 <printf>
    29ec:	003fff06 	br	29ec <dhcp_set_struct+0x40>
  LWIP_ASSERT("dhcp != NULL", dhcp != NULL);
    29f0:	e0bfff17 	ldw	r2,-4(fp)
    29f4:	1000091e 	bne	r2,zero,2a1c <dhcp_set_struct+0x70>
    29f8:	010000f4 	movhi	r4,3
    29fc:	213ccf04 	addi	r4,r4,-3268
    2a00:	014000f4 	movhi	r5,3
    2a04:	297ce304 	addi	r5,r5,-3188
    2a08:	01809384 	movi	r6,590
    2a0c:	01c000f4 	movhi	r7,3
    2a10:	39fcdd04 	addi	r7,r7,-3212
    2a14:	00193f00 	call	193f0 <printf>
    2a18:	003fff06 	br	2a18 <dhcp_set_struct+0x6c>
  LWIP_ASSERT("netif already has a struct dhcp set", netif->dhcp == NULL);
    2a1c:	e0bffe17 	ldw	r2,-8(fp)
    2a20:	10800817 	ldw	r2,32(r2)
    2a24:	10000926 	beq	r2,zero,2a4c <dhcp_set_struct+0xa0>
    2a28:	010000f4 	movhi	r4,3
    2a2c:	213ccf04 	addi	r4,r4,-3268
    2a30:	014000f4 	movhi	r5,3
    2a34:	297ce704 	addi	r5,r5,-3172
    2a38:	018093c4 	movi	r6,591
    2a3c:	01c000f4 	movhi	r7,3
    2a40:	39fcdd04 	addi	r7,r7,-3212
    2a44:	00193f00 	call	193f0 <printf>
    2a48:	003fff06 	br	2a48 <dhcp_set_struct+0x9c>

  /* clear data structure */
  memset(dhcp, 0, sizeof(struct dhcp));
    2a4c:	e13fff17 	ldw	r4,-4(fp)
    2a50:	000b883a 	mov	r5,zero
    2a54:	01800f04 	movi	r6,60
    2a58:	00192e80 	call	192e8 <memset>
  /* dhcp_set_state(&dhcp, DHCP_OFF); */
  netif->dhcp = dhcp;
    2a5c:	e0bffe17 	ldw	r2,-8(fp)
    2a60:	e0ffff17 	ldw	r3,-4(fp)
    2a64:	10c00815 	stw	r3,32(r2)
}
    2a68:	e037883a 	mov	sp,fp
    2a6c:	dfc00117 	ldw	ra,4(sp)
    2a70:	df000017 	ldw	fp,0(sp)
    2a74:	dec00204 	addi	sp,sp,8
    2a78:	f800283a 	ret

00002a7c <dhcp_cleanup>:
 *            struct dhcp since the memory is passed back to the heap.
 *
 * @param netif the netif from which to remove the struct dhcp
 */
void dhcp_cleanup(struct netif *netif)
{
    2a7c:	defffd04 	addi	sp,sp,-12
    2a80:	dfc00215 	stw	ra,8(sp)
    2a84:	df000115 	stw	fp,4(sp)
    2a88:	df000104 	addi	fp,sp,4
    2a8c:	e13fff15 	stw	r4,-4(fp)
  LWIP_ASSERT("netif != NULL", netif != NULL);
    2a90:	e0bfff17 	ldw	r2,-4(fp)
    2a94:	1000091e 	bne	r2,zero,2abc <dhcp_cleanup+0x40>
    2a98:	010000f4 	movhi	r4,3
    2a9c:	213ccf04 	addi	r4,r4,-3268
    2aa0:	014000f4 	movhi	r5,3
    2aa4:	297cd904 	addi	r5,r5,-3228
    2aa8:	01809804 	movi	r6,608
    2aac:	01c000f4 	movhi	r7,3
    2ab0:	39fcdd04 	addi	r7,r7,-3212
    2ab4:	00193f00 	call	193f0 <printf>
    2ab8:	003fff06 	br	2ab8 <dhcp_cleanup+0x3c>

  if (netif->dhcp != NULL) {
    2abc:	e0bfff17 	ldw	r2,-4(fp)
    2ac0:	10800817 	ldw	r2,32(r2)
    2ac4:	10000626 	beq	r2,zero,2ae0 <dhcp_cleanup+0x64>
    mem_free(netif->dhcp);
    2ac8:	e0bfff17 	ldw	r2,-4(fp)
    2acc:	10800817 	ldw	r2,32(r2)
    2ad0:	1009883a 	mov	r4,r2
    2ad4:	0008afc0 	call	8afc <mem_free>
    netif->dhcp = NULL;
    2ad8:	e0bfff17 	ldw	r2,-4(fp)
    2adc:	10000815 	stw	zero,32(r2)
  }
}
    2ae0:	e037883a 	mov	sp,fp
    2ae4:	dfc00117 	ldw	ra,4(sp)
    2ae8:	df000017 	ldw	fp,0(sp)
    2aec:	dec00204 	addi	sp,sp,8
    2af0:	f800283a 	ret

00002af4 <dhcp_start>:
 * - ERR_OK - No error
 * - ERR_MEM - Out of memory
 */
err_t
dhcp_start(struct netif *netif)
{
    2af4:	defffb04 	addi	sp,sp,-20
    2af8:	dfc00415 	stw	ra,16(sp)
    2afc:	df000315 	stw	fp,12(sp)
    2b00:	df000304 	addi	fp,sp,12
    2b04:	e13fff15 	stw	r4,-4(fp)
  struct dhcp *dhcp;
  err_t result = ERR_OK;
    2b08:	e03ffe05 	stb	zero,-8(fp)

  LWIP_ERROR("netif != NULL", (netif != NULL), return ERR_ARG;);
    2b0c:	e0bfff17 	ldw	r2,-4(fp)
    2b10:	1000091e 	bne	r2,zero,2b38 <dhcp_start+0x44>
    2b14:	010000f4 	movhi	r4,3
    2b18:	213ccf04 	addi	r4,r4,-3268
    2b1c:	014000f4 	movhi	r5,3
    2b20:	297cd904 	addi	r5,r5,-3228
    2b24:	01809e84 	movi	r6,634
    2b28:	01c000f4 	movhi	r7,3
    2b2c:	39fcdd04 	addi	r7,r7,-3212
    2b30:	00193f00 	call	193f0 <printf>
    2b34:	003fff06 	br	2b34 <dhcp_start+0x40>
  dhcp = netif->dhcp;
    2b38:	e0bfff17 	ldw	r2,-4(fp)
    2b3c:	10800817 	ldw	r2,32(r2)
    2b40:	e0bffd15 	stw	r2,-12(fp)
  LWIP_DEBUGF(DHCP_DEBUG | LWIP_DBG_TRACE | LWIP_DBG_STATE, ("dhcp_start(netif=%p) %c%c%"U16_F"\n", (void*)netif, netif->name[0], netif->name[1], (u16_t)netif->num));
  /* Remove the flag that says this netif is handled by DHCP,
     it is set when we succeeded starting. */
  netif->flags &= ~NETIF_FLAG_DHCP;
    2b44:	e0bfff17 	ldw	r2,-4(fp)
    2b48:	10c00b43 	ldbu	r3,45(r2)
    2b4c:	00bffdc4 	movi	r2,-9
    2b50:	1884703a 	and	r2,r3,r2
    2b54:	1007883a 	mov	r3,r2
    2b58:	e0bfff17 	ldw	r2,-4(fp)
    2b5c:	10c00b45 	stb	r3,45(r2)

  /* check hwtype of the netif */
  if ((netif->flags & NETIF_FLAG_ETHARP) == 0) {
    2b60:	e0bfff17 	ldw	r2,-4(fp)
    2b64:	10800b43 	ldbu	r2,45(r2)
    2b68:	10803fcc 	andi	r2,r2,255
    2b6c:	1080080c 	andi	r2,r2,32
    2b70:	1000021e 	bne	r2,zero,2b7c <dhcp_start+0x88>
    LWIP_DEBUGF(DHCP_DEBUG | LWIP_DBG_TRACE, ("dhcp_start(): No ETHARP netif\n"));
    return ERR_ARG;
    2b74:	00bffc84 	movi	r2,-14
    2b78:	00006b06 	br	2d28 <dhcp_start+0x234>
  }

  /* check MTU of the netif */
  if (netif->mtu < DHCP_MAX_MSG_LEN_MIN_REQUIRED) {
    2b7c:	e0bfff17 	ldw	r2,-4(fp)
    2b80:	1080090b 	ldhu	r2,36(r2)
    2b84:	10bfffcc 	andi	r2,r2,65535
    2b88:	10809028 	cmpgeui	r2,r2,576
    2b8c:	1000021e 	bne	r2,zero,2b98 <dhcp_start+0xa4>
    LWIP_DEBUGF(DHCP_DEBUG | LWIP_DBG_TRACE, ("dhcp_start(): Cannot use this netif with DHCP: MTU is too small\n"));
    return ERR_MEM;
    2b90:	00bfffc4 	movi	r2,-1
    2b94:	00006406 	br	2d28 <dhcp_start+0x234>
  }

  /* no DHCP client attached yet? */
  if (dhcp == NULL) {
    2b98:	e0bffd17 	ldw	r2,-12(fp)
    2b9c:	10000b1e 	bne	r2,zero,2bcc <dhcp_start+0xd8>
    LWIP_DEBUGF(DHCP_DEBUG | LWIP_DBG_TRACE, ("dhcp_start(): starting new DHCP client\n"));
    dhcp = (struct dhcp *)mem_malloc(sizeof(struct dhcp));
    2ba0:	01000f04 	movi	r4,60
    2ba4:	0008fcc0 	call	8fcc <mem_malloc>
    2ba8:	e0bffd15 	stw	r2,-12(fp)
    if (dhcp == NULL) {
    2bac:	e0bffd17 	ldw	r2,-12(fp)
    2bb0:	1000021e 	bne	r2,zero,2bbc <dhcp_start+0xc8>
      LWIP_DEBUGF(DHCP_DEBUG | LWIP_DBG_TRACE, ("dhcp_start(): could not allocate dhcp\n"));
      return ERR_MEM;
    2bb4:	00bfffc4 	movi	r2,-1
    2bb8:	00005b06 	br	2d28 <dhcp_start+0x234>
    }
    /* store this dhcp client in the netif */
    netif->dhcp = dhcp;
    2bbc:	e0bfff17 	ldw	r2,-4(fp)
    2bc0:	e0fffd17 	ldw	r3,-12(fp)
    2bc4:	10c00815 	stw	r3,32(r2)
    2bc8:	00001f06 	br	2c48 <dhcp_start+0x154>
    LWIP_DEBUGF(DHCP_DEBUG | LWIP_DBG_TRACE, ("dhcp_start(): allocated dhcp"));
  /* already has DHCP client attached */
  } else {
    LWIP_DEBUGF(DHCP_DEBUG | LWIP_DBG_TRACE | LWIP_DBG_STATE, ("dhcp_start(): restarting DHCP configuration\n"));
    if (dhcp->pcb != NULL) {
    2bcc:	e0bffd17 	ldw	r2,-12(fp)
    2bd0:	10800117 	ldw	r2,4(r2)
    2bd4:	10000426 	beq	r2,zero,2be8 <dhcp_start+0xf4>
      udp_remove(dhcp->pcb);
    2bd8:	e0bffd17 	ldw	r2,-12(fp)
    2bdc:	10800117 	ldw	r2,4(r2)
    2be0:	1009883a 	mov	r4,r2
    2be4:	0015d680 	call	15d68 <udp_remove>
    }
    LWIP_ASSERT("pbuf p_out wasn't freed", dhcp->p_out == NULL);
    2be8:	e0bffd17 	ldw	r2,-12(fp)
    2bec:	10800417 	ldw	r2,16(r2)
    2bf0:	10000926 	beq	r2,zero,2c18 <dhcp_start+0x124>
    2bf4:	010000f4 	movhi	r4,3
    2bf8:	213ccf04 	addi	r4,r4,-3268
    2bfc:	014000f4 	movhi	r5,3
    2c00:	297cf004 	addi	r5,r5,-3136
    2c04:	0180a784 	movi	r6,670
    2c08:	01c000f4 	movhi	r7,3
    2c0c:	39fcdd04 	addi	r7,r7,-3212
    2c10:	00193f00 	call	193f0 <printf>
    2c14:	003fff06 	br	2c14 <dhcp_start+0x120>
    LWIP_ASSERT("reply wasn't freed", dhcp->msg_in == NULL );
    2c18:	e0bffd17 	ldw	r2,-12(fp)
    2c1c:	10800217 	ldw	r2,8(r2)
    2c20:	10000926 	beq	r2,zero,2c48 <dhcp_start+0x154>
    2c24:	010000f4 	movhi	r4,3
    2c28:	213ccf04 	addi	r4,r4,-3268
    2c2c:	014000f4 	movhi	r5,3
    2c30:	297cf604 	addi	r5,r5,-3112
    2c34:	0180a7c4 	movi	r6,671
    2c38:	01c000f4 	movhi	r7,3
    2c3c:	39fcdd04 	addi	r7,r7,-3212
    2c40:	00193f00 	call	193f0 <printf>
    2c44:	003fff06 	br	2c44 <dhcp_start+0x150>
  }
    
  /* clear data structure */
  memset(dhcp, 0, sizeof(struct dhcp));
    2c48:	e13ffd17 	ldw	r4,-12(fp)
    2c4c:	000b883a 	mov	r5,zero
    2c50:	01800f04 	movi	r6,60
    2c54:	00192e80 	call	192e8 <memset>
  /* dhcp_set_state(&dhcp, DHCP_OFF); */
  /* allocate UDP PCB */
  dhcp->pcb = udp_new();
    2c58:	0015e040 	call	15e04 <udp_new>
    2c5c:	e0fffd17 	ldw	r3,-12(fp)
    2c60:	18800115 	stw	r2,4(r3)
  if (dhcp->pcb == NULL) {
    2c64:	e0bffd17 	ldw	r2,-12(fp)
    2c68:	10800117 	ldw	r2,4(r2)
    2c6c:	1000021e 	bne	r2,zero,2c78 <dhcp_start+0x184>
    LWIP_DEBUGF(DHCP_DEBUG  | LWIP_DBG_TRACE, ("dhcp_start(): could not obtain pcb\n"));
    return ERR_MEM;
    2c70:	00bfffc4 	movi	r2,-1
    2c74:	00002c06 	br	2d28 <dhcp_start+0x234>
  }
  ip_set_option(dhcp->pcb, SOF_BROADCAST);
    2c78:	e0bffd17 	ldw	r2,-12(fp)
    2c7c:	10800117 	ldw	r2,4(r2)
    2c80:	e0fffd17 	ldw	r3,-12(fp)
    2c84:	18c00117 	ldw	r3,4(r3)
    2c88:	18c00203 	ldbu	r3,8(r3)
    2c8c:	18c00814 	ori	r3,r3,32
    2c90:	10c00205 	stb	r3,8(r2)
  /* set up local and remote port for the pcb */
  udp_bind(dhcp->pcb, IP_ADDR_ANY, DHCP_CLIENT_PORT);
    2c94:	e0bffd17 	ldw	r2,-12(fp)
    2c98:	10800117 	ldw	r2,4(r2)
    2c9c:	1009883a 	mov	r4,r2
    2ca0:	014000f4 	movhi	r5,3
    2ca4:	29557404 	addi	r5,r5,21968
    2ca8:	01801104 	movi	r6,68
    2cac:	0015a740 	call	15a74 <udp_bind>
  udp_connect(dhcp->pcb, IP_ADDR_ANY, DHCP_SERVER_PORT);
    2cb0:	e0bffd17 	ldw	r2,-12(fp)
    2cb4:	10800117 	ldw	r2,4(r2)
    2cb8:	1009883a 	mov	r4,r2
    2cbc:	014000f4 	movhi	r5,3
    2cc0:	29557404 	addi	r5,r5,21968
    2cc4:	018010c4 	movi	r6,67
    2cc8:	0015bd40 	call	15bd4 <udp_connect>
  /* set up the recv callback and argument */
  udp_recv(dhcp->pcb, dhcp_recv, netif);
    2ccc:	e0bffd17 	ldw	r2,-12(fp)
    2cd0:	10800117 	ldw	r2,4(r2)
    2cd4:	1009883a 	mov	r4,r2
    2cd8:	01400034 	movhi	r5,0
    2cdc:	29526204 	addi	r5,r5,18824
    2ce0:	e1bfff17 	ldw	r6,-4(fp)
    2ce4:	0015d280 	call	15d28 <udp_recv>
  LWIP_DEBUGF(DHCP_DEBUG | LWIP_DBG_TRACE, ("dhcp_start(): starting DHCP configuration\n"));
  /* (re)start the DHCP negotiation */
  result = dhcp_discover(netif);
    2ce8:	e13fff17 	ldw	r4,-4(fp)
    2cec:	00031900 	call	3190 <dhcp_discover>
    2cf0:	e0bffe05 	stb	r2,-8(fp)
  if (result != ERR_OK) {
    2cf4:	e0bffe07 	ldb	r2,-8(fp)
    2cf8:	10000426 	beq	r2,zero,2d0c <dhcp_start+0x218>
    /* free resources allocated above */
    dhcp_stop(netif);
    2cfc:	e13fff17 	ldw	r4,-4(fp)
    2d00:	0003b9c0 	call	3b9c <dhcp_stop>
    return ERR_MEM;
    2d04:	00bfffc4 	movi	r2,-1
    2d08:	00000706 	br	2d28 <dhcp_start+0x234>
  }
  /* Set the flag that says this netif is handled by DHCP. */
  netif->flags |= NETIF_FLAG_DHCP;
    2d0c:	e0bfff17 	ldw	r2,-4(fp)
    2d10:	10800b43 	ldbu	r2,45(r2)
    2d14:	10800214 	ori	r2,r2,8
    2d18:	1007883a 	mov	r3,r2
    2d1c:	e0bfff17 	ldw	r2,-4(fp)
    2d20:	10c00b45 	stb	r3,45(r2)
  return result;
    2d24:	e0bffe03 	ldbu	r2,-8(fp)
}
    2d28:	e037883a 	mov	sp,fp
    2d2c:	dfc00117 	ldw	ra,4(sp)
    2d30:	df000017 	ldw	fp,0(sp)
    2d34:	dec00204 	addi	sp,sp,8
    2d38:	f800283a 	ret

00002d3c <dhcp_inform>:
 *
 * @param netif The lwIP network interface
 */
void
dhcp_inform(struct netif *netif)
{
    2d3c:	deffeb04 	addi	sp,sp,-84
    2d40:	dfc01415 	stw	ra,80(sp)
    2d44:	df001315 	stw	fp,76(sp)
    2d48:	df001304 	addi	fp,sp,76
    2d4c:	e13fff15 	stw	r4,-4(fp)
  struct dhcp dhcp;
  err_t result = ERR_OK;
    2d50:	e03fef05 	stb	zero,-68(fp)
  struct udp_pcb *pcb;

  LWIP_ERROR("netif != NULL", (netif != NULL), return;);
    2d54:	e0bfff17 	ldw	r2,-4(fp)
    2d58:	1000091e 	bne	r2,zero,2d80 <dhcp_inform+0x44>
    2d5c:	010000f4 	movhi	r4,3
    2d60:	213ccf04 	addi	r4,r4,-3268
    2d64:	014000f4 	movhi	r5,3
    2d68:	297cd904 	addi	r5,r5,-3228
    2d6c:	0180b384 	movi	r6,718
    2d70:	01c000f4 	movhi	r7,3
    2d74:	39fcdd04 	addi	r7,r7,-3212
    2d78:	00193f00 	call	193f0 <printf>
    2d7c:	003fff06 	br	2d7c <dhcp_inform+0x40>

  memset(&dhcp, 0, sizeof(struct dhcp));
    2d80:	e0bff004 	addi	r2,fp,-64
    2d84:	1009883a 	mov	r4,r2
    2d88:	000b883a 	mov	r5,zero
    2d8c:	01800f04 	movi	r6,60
    2d90:	00192e80 	call	192e8 <memset>
  dhcp_set_state(&dhcp, DHCP_INFORM);
    2d94:	e0bff004 	addi	r2,fp,-64
    2d98:	1009883a 	mov	r4,r2
    2d9c:	01400204 	movi	r5,8
    2da0:	0003c800 	call	3c80 <dhcp_set_state>

  if ((netif->dhcp != NULL) && (netif->dhcp->pcb != NULL)) {
    2da4:	e0bfff17 	ldw	r2,-4(fp)
    2da8:	10800817 	ldw	r2,32(r2)
    2dac:	10000926 	beq	r2,zero,2dd4 <dhcp_inform+0x98>
    2db0:	e0bfff17 	ldw	r2,-4(fp)
    2db4:	10800817 	ldw	r2,32(r2)
    2db8:	10800117 	ldw	r2,4(r2)
    2dbc:	10000526 	beq	r2,zero,2dd4 <dhcp_inform+0x98>
    /* re-use existing pcb */
    pcb = netif->dhcp->pcb;
    2dc0:	e0bfff17 	ldw	r2,-4(fp)
    2dc4:	10800817 	ldw	r2,32(r2)
    2dc8:	10800117 	ldw	r2,4(r2)
    2dcc:	e0bfee15 	stw	r2,-72(fp)
    2dd0:	00001106 	br	2e18 <dhcp_inform+0xdc>
  } else {
    pcb = udp_new();
    2dd4:	0015e040 	call	15e04 <udp_new>
    2dd8:	e0bfee15 	stw	r2,-72(fp)
    if (pcb == NULL) {
    2ddc:	e0bfee17 	ldw	r2,-72(fp)
    2de0:	10003c26 	beq	r2,zero,2ed4 <dhcp_inform+0x198>
      LWIP_DEBUGF(DHCP_DEBUG | LWIP_DBG_TRACE | LWIP_DBG_LEVEL_SERIOUS, ("dhcp_inform(): could not obtain pcb"));
      return;
    }
    dhcp.pcb = pcb;
    2de4:	e0bfee17 	ldw	r2,-72(fp)
    2de8:	e0bff115 	stw	r2,-60(fp)
    ip_set_option(dhcp.pcb, SOF_BROADCAST);
    2dec:	e0bff117 	ldw	r2,-60(fp)
    2df0:	e0fff117 	ldw	r3,-60(fp)
    2df4:	18c00203 	ldbu	r3,8(r3)
    2df8:	18c00814 	ori	r3,r3,32
    2dfc:	10c00205 	stb	r3,8(r2)
    udp_bind(dhcp.pcb, IP_ADDR_ANY, DHCP_CLIENT_PORT);
    2e00:	e0bff117 	ldw	r2,-60(fp)
    2e04:	1009883a 	mov	r4,r2
    2e08:	014000f4 	movhi	r5,3
    2e0c:	29557404 	addi	r5,r5,21968
    2e10:	01801104 	movi	r6,68
    2e14:	0015a740 	call	15a74 <udp_bind>
    LWIP_DEBUGF(DHCP_DEBUG | LWIP_DBG_TRACE, ("dhcp_inform(): created new udp pcb\n"));
  }
  /* create and initialize the DHCP message header */
  result = dhcp_create_msg(netif, &dhcp, DHCP_INFORM);
    2e18:	e0bff004 	addi	r2,fp,-64
    2e1c:	e13fff17 	ldw	r4,-4(fp)
    2e20:	100b883a 	mov	r5,r2
    2e24:	01800204 	movi	r6,8
    2e28:	0004cac0 	call	4cac <dhcp_create_msg>
    2e2c:	e0bfef05 	stb	r2,-68(fp)
  if (result == ERR_OK) {
    2e30:	e0bfef07 	ldb	r2,-68(fp)
    2e34:	1000221e 	bne	r2,zero,2ec0 <dhcp_inform+0x184>
    dhcp_option(&dhcp, DHCP_OPTION_MAX_MSG_SIZE, DHCP_OPTION_MAX_MSG_SIZE_LEN);
    2e38:	e0bff004 	addi	r2,fp,-64
    2e3c:	1009883a 	mov	r4,r2
    2e40:	01400e44 	movi	r5,57
    2e44:	01800084 	movi	r6,2
    2e48:	0003cd80 	call	3cd8 <dhcp_option>
    dhcp_option_short(&dhcp, DHCP_MAX_MSG_LEN(netif));
    2e4c:	e0bfff17 	ldw	r2,-4(fp)
    2e50:	1080090b 	ldhu	r2,36(r2)
    2e54:	10bfffcc 	andi	r2,r2,65535
    2e58:	e0fff004 	addi	r3,fp,-64
    2e5c:	1809883a 	mov	r4,r3
    2e60:	100b883a 	mov	r5,r2
    2e64:	0003e580 	call	3e58 <dhcp_option_short>

    dhcp_option_trailer(&dhcp);
    2e68:	e0bff004 	addi	r2,fp,-64
    2e6c:	1009883a 	mov	r4,r2
    2e70:	00052600 	call	5260 <dhcp_option_trailer>

    pbuf_realloc(dhcp.p_out, sizeof(struct dhcp_msg) - DHCP_OPTIONS_LEN + dhcp.options_out_len);
    2e74:	e0fff417 	ldw	r3,-48(fp)
    2e78:	e0bff60b 	ldhu	r2,-40(fp)
    2e7c:	10803c04 	addi	r2,r2,240
    2e80:	10bfffcc 	andi	r2,r2,65535
    2e84:	1809883a 	mov	r4,r3
    2e88:	100b883a 	mov	r5,r2
    2e8c:	000a5b80 	call	a5b8 <pbuf_realloc>

    LWIP_DEBUGF(DHCP_DEBUG | LWIP_DBG_TRACE | LWIP_DBG_STATE, ("dhcp_inform: INFORMING\n"));
    udp_sendto_if(pcb, dhcp.p_out, IP_ADDR_BROADCAST, DHCP_SERVER_PORT, netif);
    2e90:	e0bff417 	ldw	r2,-48(fp)
    2e94:	e0ffff17 	ldw	r3,-4(fp)
    2e98:	d8c00015 	stw	r3,0(sp)
    2e9c:	e13fee17 	ldw	r4,-72(fp)
    2ea0:	100b883a 	mov	r5,r2
    2ea4:	018000f4 	movhi	r6,3
    2ea8:	31957504 	addi	r6,r6,21972
    2eac:	01c010c4 	movi	r7,67
    2eb0:	00157880 	call	15788 <udp_sendto_if>
    dhcp_delete_msg(&dhcp);
    2eb4:	e0bff004 	addi	r2,fp,-64
    2eb8:	1009883a 	mov	r4,r2
    2ebc:	00051800 	call	5180 <dhcp_delete_msg>
  } else {
    LWIP_DEBUGF(DHCP_DEBUG | LWIP_DBG_TRACE | LWIP_DBG_LEVEL_SERIOUS, ("dhcp_inform: could not allocate DHCP request\n"));
  }

  if (dhcp.pcb != NULL) {
    2ec0:	e0bff117 	ldw	r2,-60(fp)
    2ec4:	10000326 	beq	r2,zero,2ed4 <dhcp_inform+0x198>
    /* otherwise, the existing pcb was used */
    udp_remove(dhcp.pcb);
    2ec8:	e0bff117 	ldw	r2,-60(fp)
    2ecc:	1009883a 	mov	r4,r2
    2ed0:	0015d680 	call	15d68 <udp_remove>
  }
}
    2ed4:	e037883a 	mov	sp,fp
    2ed8:	dfc00117 	ldw	ra,4(sp)
    2edc:	df000017 	ldw	fp,0(sp)
    2ee0:	dec00204 	addi	sp,sp,8
    2ee4:	f800283a 	ret

00002ee8 <dhcp_network_changed>:
 * This enters the REBOOTING state to verify that the currently bound
 * address is still valid.
 */
void
dhcp_network_changed(struct netif *netif)
{
    2ee8:	defffc04 	addi	sp,sp,-16
    2eec:	dfc00315 	stw	ra,12(sp)
    2ef0:	df000215 	stw	fp,8(sp)
    2ef4:	df000204 	addi	fp,sp,8
    2ef8:	e13fff15 	stw	r4,-4(fp)
  struct dhcp *dhcp = netif->dhcp;
    2efc:	e0bfff17 	ldw	r2,-4(fp)
    2f00:	10800817 	ldw	r2,32(r2)
    2f04:	e0bffe15 	stw	r2,-8(fp)
  if (!dhcp)
    2f08:	e0bffe17 	ldw	r2,-8(fp)
    2f0c:	10001826 	beq	r2,zero,2f70 <dhcp_network_changed+0x88>
    return;
  switch (dhcp->state) {
    2f10:	e0bffe17 	ldw	r2,-8(fp)
    2f14:	10800303 	ldbu	r2,12(r2)
    2f18:	10803fcc 	andi	r2,r2,255
    2f1c:	10c00188 	cmpgei	r3,r2,6
    2f20:	1800041e 	bne	r3,zero,2f34 <dhcp_network_changed+0x4c>
    2f24:	10c000c8 	cmpgei	r3,r2,3
    2f28:	1800041e 	bne	r3,zero,2f3c <dhcp_network_changed+0x54>
    2f2c:	10001226 	beq	r2,zero,2f78 <dhcp_network_changed+0x90>
    2f30:	00000906 	br	2f58 <dhcp_network_changed+0x70>
    2f34:	108002a0 	cmpeqi	r2,r2,10
    2f38:	10000726 	beq	r2,zero,2f58 <dhcp_network_changed+0x70>
  case DHCP_REBINDING:
  case DHCP_RENEWING:
  case DHCP_BOUND:
  case DHCP_REBOOTING:
    netif_set_down(netif);
    2f3c:	e13fff17 	ldw	r4,-4(fp)
    2f40:	0009e700 	call	9e70 <netif_set_down>
    dhcp->tries = 0;
    2f44:	e0bffe17 	ldw	r2,-8(fp)
    2f48:	10000345 	stb	zero,13(r2)
    dhcp_reboot(netif);
    2f4c:	e13fff17 	ldw	r4,-4(fp)
    2f50:	00038500 	call	3850 <dhcp_reboot>
    break;
    2f54:	00000906 	br	2f7c <dhcp_network_changed+0x94>
  case DHCP_OFF:
    /* stay off */
    break;
  default:
    dhcp->tries = 0;
    2f58:	e0bffe17 	ldw	r2,-8(fp)
    2f5c:	10000345 	stb	zero,13(r2)
    if(dhcp->autoip_coop_state == DHCP_AUTOIP_COOP_STATE_ON) {
      autoip_stop(netif);
      dhcp->autoip_coop_state = DHCP_AUTOIP_COOP_STATE_OFF;
    }
#endif /* LWIP_DHCP_AUTOIP_COOP */
    dhcp_discover(netif);
    2f60:	e13fff17 	ldw	r4,-4(fp)
    2f64:	00031900 	call	3190 <dhcp_discover>
    break;
    2f68:	0001883a 	nop
    2f6c:	00000306 	br	2f7c <dhcp_network_changed+0x94>
void
dhcp_network_changed(struct netif *netif)
{
  struct dhcp *dhcp = netif->dhcp;
  if (!dhcp)
    return;
    2f70:	0001883a 	nop
    2f74:	00000106 	br	2f7c <dhcp_network_changed+0x94>
    dhcp->tries = 0;
    dhcp_reboot(netif);
    break;
  case DHCP_OFF:
    /* stay off */
    break;
    2f78:	0001883a 	nop
    }
#endif /* LWIP_DHCP_AUTOIP_COOP */
    dhcp_discover(netif);
    break;
  }
}
    2f7c:	e037883a 	mov	sp,fp
    2f80:	dfc00117 	ldw	ra,4(sp)
    2f84:	df000017 	ldw	fp,0(sp)
    2f88:	dec00204 	addi	sp,sp,8
    2f8c:	f800283a 	ret

00002f90 <dhcp_arp_reply>:
 *
 * @param netif the network interface on which the reply was received
 * @param addr The IP address we received a reply from
 */
void dhcp_arp_reply(struct netif *netif, ip_addr_t *addr)
{
    2f90:	defffc04 	addi	sp,sp,-16
    2f94:	dfc00315 	stw	ra,12(sp)
    2f98:	df000215 	stw	fp,8(sp)
    2f9c:	df000204 	addi	fp,sp,8
    2fa0:	e13ffe15 	stw	r4,-8(fp)
    2fa4:	e17fff15 	stw	r5,-4(fp)
  LWIP_ERROR("netif != NULL", (netif != NULL), return;);
    2fa8:	e0bffe17 	ldw	r2,-8(fp)
    2fac:	1000091e 	bne	r2,zero,2fd4 <dhcp_arp_reply+0x44>
    2fb0:	010000f4 	movhi	r4,3
    2fb4:	213ccf04 	addi	r4,r4,-3268
    2fb8:	014000f4 	movhi	r5,3
    2fbc:	297cd904 	addi	r5,r5,-3228
    2fc0:	0180c944 	movi	r6,805
    2fc4:	01c000f4 	movhi	r7,3
    2fc8:	39fcdd04 	addi	r7,r7,-3212
    2fcc:	00193f00 	call	193f0 <printf>
    2fd0:	003fff06 	br	2fd0 <dhcp_arp_reply+0x40>
  LWIP_DEBUGF(DHCP_DEBUG | LWIP_DBG_TRACE, ("dhcp_arp_reply()\n"));
  /* is a DHCP client doing an ARP check? */
  if ((netif->dhcp != NULL) && (netif->dhcp->state == DHCP_CHECKING)) {
    2fd4:	e0bffe17 	ldw	r2,-8(fp)
    2fd8:	10800817 	ldw	r2,32(r2)
    2fdc:	10000e26 	beq	r2,zero,3018 <dhcp_arp_reply+0x88>
    2fe0:	e0bffe17 	ldw	r2,-8(fp)
    2fe4:	10800817 	ldw	r2,32(r2)
    2fe8:	10800303 	ldbu	r2,12(r2)
    2fec:	10803fcc 	andi	r2,r2,255
    2ff0:	10800218 	cmpnei	r2,r2,8
    2ff4:	1000081e 	bne	r2,zero,3018 <dhcp_arp_reply+0x88>
    LWIP_DEBUGF(DHCP_DEBUG | LWIP_DBG_TRACE | LWIP_DBG_STATE, ("dhcp_arp_reply(): CHECKING, arp reply for 0x%08"X32_F"\n",
      ip4_addr_get_u32(addr)));
    /* did a host respond with the address we
       were offered by the DHCP server? */
    if (ip_addr_cmp(addr, &netif->dhcp->offered_ip_addr)) {
    2ff8:	e0bfff17 	ldw	r2,-4(fp)
    2ffc:	10c00017 	ldw	r3,0(r2)
    3000:	e0bffe17 	ldw	r2,-8(fp)
    3004:	10800817 	ldw	r2,32(r2)
    3008:	10800917 	ldw	r2,36(r2)
    300c:	1880021e 	bne	r3,r2,3018 <dhcp_arp_reply+0x88>
      /* we will not accept the offered address */
      LWIP_DEBUGF(DHCP_DEBUG | LWIP_DBG_TRACE | LWIP_DBG_STATE | LWIP_DBG_LEVEL_WARNING,
        ("dhcp_arp_reply(): arp reply matched with offered address, declining\n"));
      dhcp_decline(netif);
    3010:	e13ffe17 	ldw	r4,-8(fp)
    3014:	000302c0 	call	302c <dhcp_decline>
    }
  }
}
    3018:	e037883a 	mov	sp,fp
    301c:	dfc00117 	ldw	ra,4(sp)
    3020:	df000017 	ldw	fp,0(sp)
    3024:	dec00204 	addi	sp,sp,8
    3028:	f800283a 	ret

0000302c <dhcp_decline>:
 *
 * @param netif the netif under DHCP control
 */
static err_t
dhcp_decline(struct netif *netif)
{
    302c:	defffa04 	addi	sp,sp,-24
    3030:	dfc00515 	stw	ra,20(sp)
    3034:	df000415 	stw	fp,16(sp)
    3038:	df000404 	addi	fp,sp,16
    303c:	e13fff15 	stw	r4,-4(fp)
  struct dhcp *dhcp = netif->dhcp;
    3040:	e0bfff17 	ldw	r2,-4(fp)
    3044:	10800817 	ldw	r2,32(r2)
    3048:	e0bffd15 	stw	r2,-12(fp)
  err_t result = ERR_OK;
    304c:	e03ffe05 	stb	zero,-8(fp)
  u16_t msecs;
  LWIP_DEBUGF(DHCP_DEBUG | LWIP_DBG_TRACE, ("dhcp_decline()\n"));
  dhcp_set_state(dhcp, DHCP_BACKING_OFF);
    3050:	e13ffd17 	ldw	r4,-12(fp)
    3054:	01400304 	movi	r5,12
    3058:	0003c800 	call	3c80 <dhcp_set_state>
  /* create and initialize the DHCP message header */
  result = dhcp_create_msg(netif, dhcp, DHCP_DECLINE);
    305c:	e13fff17 	ldw	r4,-4(fp)
    3060:	e17ffd17 	ldw	r5,-12(fp)
    3064:	01800104 	movi	r6,4
    3068:	0004cac0 	call	4cac <dhcp_create_msg>
    306c:	e0bffe05 	stb	r2,-8(fp)
  if (result == ERR_OK) {
    3070:	e0bffe07 	ldb	r2,-8(fp)
    3074:	1000311e 	bne	r2,zero,313c <dhcp_decline+0x110>
    dhcp_option(dhcp, DHCP_OPTION_REQUESTED_IP, 4);
    3078:	e13ffd17 	ldw	r4,-12(fp)
    307c:	01400c84 	movi	r5,50
    3080:	01800104 	movi	r6,4
    3084:	0003cd80 	call	3cd8 <dhcp_option>
    dhcp_option_long(dhcp, ntohl(ip4_addr_get_u32(&dhcp->offered_ip_addr)));
    3088:	e0bffd17 	ldw	r2,-12(fp)
    308c:	10800917 	ldw	r2,36(r2)
    3090:	1006d63a 	srli	r3,r2,24
    3094:	e0bffd17 	ldw	r2,-12(fp)
    3098:	10800917 	ldw	r2,36(r2)
    309c:	1004d23a 	srli	r2,r2,8
    30a0:	10bfc00c 	andi	r2,r2,65280
    30a4:	1886b03a 	or	r3,r3,r2
    30a8:	e0bffd17 	ldw	r2,-12(fp)
    30ac:	10800917 	ldw	r2,36(r2)
    30b0:	10bfc00c 	andi	r2,r2,65280
    30b4:	1004923a 	slli	r2,r2,8
    30b8:	1886b03a 	or	r3,r3,r2
    30bc:	e0bffd17 	ldw	r2,-12(fp)
    30c0:	10800917 	ldw	r2,36(r2)
    30c4:	1004963a 	slli	r2,r2,24
    30c8:	1884b03a 	or	r2,r3,r2
    30cc:	e13ffd17 	ldw	r4,-12(fp)
    30d0:	100b883a 	mov	r5,r2
    30d4:	0003f300 	call	3f30 <dhcp_option_long>

    dhcp_option_trailer(dhcp);
    30d8:	e13ffd17 	ldw	r4,-12(fp)
    30dc:	00052600 	call	5260 <dhcp_option_trailer>
    /* resize pbuf to reflect true size of options */
    pbuf_realloc(dhcp->p_out, sizeof(struct dhcp_msg) - DHCP_OPTIONS_LEN + dhcp->options_out_len);
    30e0:	e0bffd17 	ldw	r2,-12(fp)
    30e4:	10c00417 	ldw	r3,16(r2)
    30e8:	e0bffd17 	ldw	r2,-12(fp)
    30ec:	1080060b 	ldhu	r2,24(r2)
    30f0:	10803c04 	addi	r2,r2,240
    30f4:	10bfffcc 	andi	r2,r2,65535
    30f8:	1809883a 	mov	r4,r3
    30fc:	100b883a 	mov	r5,r2
    3100:	000a5b80 	call	a5b8 <pbuf_realloc>

    /* per section 4.4.4, broadcast DECLINE messages */
    udp_sendto_if(dhcp->pcb, dhcp->p_out, IP_ADDR_BROADCAST, DHCP_SERVER_PORT, netif);
    3104:	e0bffd17 	ldw	r2,-12(fp)
    3108:	10c00117 	ldw	r3,4(r2)
    310c:	e0bffd17 	ldw	r2,-12(fp)
    3110:	10800417 	ldw	r2,16(r2)
    3114:	e13fff17 	ldw	r4,-4(fp)
    3118:	d9000015 	stw	r4,0(sp)
    311c:	1809883a 	mov	r4,r3
    3120:	100b883a 	mov	r5,r2
    3124:	018000f4 	movhi	r6,3
    3128:	31957504 	addi	r6,r6,21972
    312c:	01c010c4 	movi	r7,67
    3130:	00157880 	call	15788 <udp_sendto_if>
    dhcp_delete_msg(dhcp);
    3134:	e13ffd17 	ldw	r4,-12(fp)
    3138:	00051800 	call	5180 <dhcp_delete_msg>
    LWIP_DEBUGF(DHCP_DEBUG | LWIP_DBG_TRACE | LWIP_DBG_STATE, ("dhcp_decline: BACKING OFF\n"));
  } else {
    LWIP_DEBUGF(DHCP_DEBUG | LWIP_DBG_TRACE | LWIP_DBG_LEVEL_SERIOUS,
      ("dhcp_decline: could not allocate DHCP request\n"));
  }
  dhcp->tries++;
    313c:	e0bffd17 	ldw	r2,-12(fp)
    3140:	10800343 	ldbu	r2,13(r2)
    3144:	10800044 	addi	r2,r2,1
    3148:	1007883a 	mov	r3,r2
    314c:	e0bffd17 	ldw	r2,-12(fp)
    3150:	10c00345 	stb	r3,13(r2)
  msecs = 10*1000;
    3154:	0089c404 	movi	r2,10000
    3158:	e0bffe8d 	sth	r2,-6(fp)
  dhcp->request_timeout = (msecs + DHCP_FINE_TIMER_MSECS - 1) / DHCP_FINE_TIMER_MSECS;
    315c:	e0bffe8b 	ldhu	r2,-6(fp)
    3160:	10c07cc4 	addi	r3,r2,499
    3164:	00807d04 	movi	r2,500
    3168:	1885283a 	div	r2,r3,r2
    316c:	1007883a 	mov	r3,r2
    3170:	e0bffd17 	ldw	r2,-12(fp)
    3174:	10c0068d 	sth	r3,26(r2)
  LWIP_DEBUGF(DHCP_DEBUG | LWIP_DBG_TRACE, ("dhcp_decline(): set request timeout %"U16_F" msecs\n", msecs));
  return result;
    3178:	e0bffe03 	ldbu	r2,-8(fp)
}
    317c:	e037883a 	mov	sp,fp
    3180:	dfc00117 	ldw	ra,4(sp)
    3184:	df000017 	ldw	fp,0(sp)
    3188:	dec00204 	addi	sp,sp,8
    318c:	f800283a 	ret

00003190 <dhcp_discover>:
 *
 * @param netif the netif under DHCP control
 */
static err_t
dhcp_discover(struct netif *netif)
{
    3190:	defffa04 	addi	sp,sp,-24
    3194:	dfc00515 	stw	ra,20(sp)
    3198:	df000415 	stw	fp,16(sp)
    319c:	df000404 	addi	fp,sp,16
    31a0:	e13fff15 	stw	r4,-4(fp)
  struct dhcp *dhcp = netif->dhcp;
    31a4:	e0bfff17 	ldw	r2,-4(fp)
    31a8:	10800817 	ldw	r2,32(r2)
    31ac:	e0bffd15 	stw	r2,-12(fp)
  err_t result = ERR_OK;
    31b0:	e03ffe05 	stb	zero,-8(fp)
  u16_t msecs;
  LWIP_DEBUGF(DHCP_DEBUG | LWIP_DBG_TRACE, ("dhcp_discover()\n"));
  ip_addr_set_any(&dhcp->offered_ip_addr);
    31b4:	e0bffd17 	ldw	r2,-12(fp)
    31b8:	10000915 	stw	zero,36(r2)
  dhcp_set_state(dhcp, DHCP_SELECTING);
    31bc:	e13ffd17 	ldw	r4,-12(fp)
    31c0:	01400184 	movi	r5,6
    31c4:	0003c800 	call	3c80 <dhcp_set_state>
  /* create and initialize the DHCP message header */
  result = dhcp_create_msg(netif, dhcp, DHCP_DISCOVER);
    31c8:	e13fff17 	ldw	r4,-4(fp)
    31cc:	e17ffd17 	ldw	r5,-12(fp)
    31d0:	01800044 	movi	r6,1
    31d4:	0004cac0 	call	4cac <dhcp_create_msg>
    31d8:	e0bffe05 	stb	r2,-8(fp)
  if (result == ERR_OK) {
    31dc:	e0bffe07 	ldb	r2,-8(fp)
    31e0:	1000331e 	bne	r2,zero,32b0 <dhcp_discover+0x120>
    LWIP_DEBUGF(DHCP_DEBUG | LWIP_DBG_TRACE, ("dhcp_discover: making request\n"));

    dhcp_option(dhcp, DHCP_OPTION_MAX_MSG_SIZE, DHCP_OPTION_MAX_MSG_SIZE_LEN);
    31e4:	e13ffd17 	ldw	r4,-12(fp)
    31e8:	01400e44 	movi	r5,57
    31ec:	01800084 	movi	r6,2
    31f0:	0003cd80 	call	3cd8 <dhcp_option>
    dhcp_option_short(dhcp, DHCP_MAX_MSG_LEN(netif));
    31f4:	e0bfff17 	ldw	r2,-4(fp)
    31f8:	1080090b 	ldhu	r2,36(r2)
    31fc:	10bfffcc 	andi	r2,r2,65535
    3200:	e13ffd17 	ldw	r4,-12(fp)
    3204:	100b883a 	mov	r5,r2
    3208:	0003e580 	call	3e58 <dhcp_option_short>

    dhcp_option(dhcp, DHCP_OPTION_PARAMETER_REQUEST_LIST, 4/*num options*/);
    320c:	e13ffd17 	ldw	r4,-12(fp)
    3210:	01400dc4 	movi	r5,55
    3214:	01800104 	movi	r6,4
    3218:	0003cd80 	call	3cd8 <dhcp_option>
    dhcp_option_byte(dhcp, DHCP_OPTION_SUBNET_MASK);
    321c:	e13ffd17 	ldw	r4,-12(fp)
    3220:	01400044 	movi	r5,1
    3224:	0003dbc0 	call	3dbc <dhcp_option_byte>
    dhcp_option_byte(dhcp, DHCP_OPTION_ROUTER);
    3228:	e13ffd17 	ldw	r4,-12(fp)
    322c:	014000c4 	movi	r5,3
    3230:	0003dbc0 	call	3dbc <dhcp_option_byte>
    dhcp_option_byte(dhcp, DHCP_OPTION_BROADCAST);
    3234:	e13ffd17 	ldw	r4,-12(fp)
    3238:	01400704 	movi	r5,28
    323c:	0003dbc0 	call	3dbc <dhcp_option_byte>
    dhcp_option_byte(dhcp, DHCP_OPTION_DNS_SERVER);
    3240:	e13ffd17 	ldw	r4,-12(fp)
    3244:	01400184 	movi	r5,6
    3248:	0003dbc0 	call	3dbc <dhcp_option_byte>

    dhcp_option_trailer(dhcp);
    324c:	e13ffd17 	ldw	r4,-12(fp)
    3250:	00052600 	call	5260 <dhcp_option_trailer>

    LWIP_DEBUGF(DHCP_DEBUG | LWIP_DBG_TRACE, ("dhcp_discover: realloc()ing\n"));
    pbuf_realloc(dhcp->p_out, sizeof(struct dhcp_msg) - DHCP_OPTIONS_LEN + dhcp->options_out_len);
    3254:	e0bffd17 	ldw	r2,-12(fp)
    3258:	10c00417 	ldw	r3,16(r2)
    325c:	e0bffd17 	ldw	r2,-12(fp)
    3260:	1080060b 	ldhu	r2,24(r2)
    3264:	10803c04 	addi	r2,r2,240
    3268:	10bfffcc 	andi	r2,r2,65535
    326c:	1809883a 	mov	r4,r3
    3270:	100b883a 	mov	r5,r2
    3274:	000a5b80 	call	a5b8 <pbuf_realloc>

    LWIP_DEBUGF(DHCP_DEBUG | LWIP_DBG_TRACE, ("dhcp_discover: sendto(DISCOVER, IP_ADDR_BROADCAST, DHCP_SERVER_PORT)\n"));
    udp_sendto_if(dhcp->pcb, dhcp->p_out, IP_ADDR_BROADCAST, DHCP_SERVER_PORT, netif);
    3278:	e0bffd17 	ldw	r2,-12(fp)
    327c:	10c00117 	ldw	r3,4(r2)
    3280:	e0bffd17 	ldw	r2,-12(fp)
    3284:	10800417 	ldw	r2,16(r2)
    3288:	e13fff17 	ldw	r4,-4(fp)
    328c:	d9000015 	stw	r4,0(sp)
    3290:	1809883a 	mov	r4,r3
    3294:	100b883a 	mov	r5,r2
    3298:	018000f4 	movhi	r6,3
    329c:	31957504 	addi	r6,r6,21972
    32a0:	01c010c4 	movi	r7,67
    32a4:	00157880 	call	15788 <udp_sendto_if>
    LWIP_DEBUGF(DHCP_DEBUG | LWIP_DBG_TRACE, ("dhcp_discover: deleting()ing\n"));
    dhcp_delete_msg(dhcp);
    32a8:	e13ffd17 	ldw	r4,-12(fp)
    32ac:	00051800 	call	5180 <dhcp_delete_msg>
    LWIP_DEBUGF(DHCP_DEBUG | LWIP_DBG_TRACE | LWIP_DBG_STATE, ("dhcp_discover: SELECTING\n"));
  } else {
    LWIP_DEBUGF(DHCP_DEBUG | LWIP_DBG_TRACE | LWIP_DBG_LEVEL_SERIOUS, ("dhcp_discover: could not allocate DHCP request\n"));
  }
  dhcp->tries++;
    32b0:	e0bffd17 	ldw	r2,-12(fp)
    32b4:	10800343 	ldbu	r2,13(r2)
    32b8:	10800044 	addi	r2,r2,1
    32bc:	1007883a 	mov	r3,r2
    32c0:	e0bffd17 	ldw	r2,-12(fp)
    32c4:	10c00345 	stb	r3,13(r2)
  if(dhcp->tries >= LWIP_DHCP_AUTOIP_COOP_TRIES && dhcp->autoip_coop_state == DHCP_AUTOIP_COOP_STATE_OFF) {
    dhcp->autoip_coop_state = DHCP_AUTOIP_COOP_STATE_ON;
    autoip_start(netif);
  }
#endif /* LWIP_DHCP_AUTOIP_COOP */
  msecs = (dhcp->tries < 6 ? 1 << dhcp->tries : 60) * 1000;
    32c8:	e0bffd17 	ldw	r2,-12(fp)
    32cc:	10800343 	ldbu	r2,13(r2)
    32d0:	10803fcc 	andi	r2,r2,255
    32d4:	108001a8 	cmpgeui	r2,r2,6
    32d8:	1000061e 	bne	r2,zero,32f4 <dhcp_discover+0x164>
    32dc:	e0bffd17 	ldw	r2,-12(fp)
    32e0:	10800343 	ldbu	r2,13(r2)
    32e4:	10803fcc 	andi	r2,r2,255
    32e8:	00c0fa04 	movi	r3,1000
    32ec:	1884983a 	sll	r2,r3,r2
    32f0:	00000106 	br	32f8 <dhcp_discover+0x168>
    32f4:	00ba9804 	movi	r2,-5536
    32f8:	e0bffe8d 	sth	r2,-6(fp)
  dhcp->request_timeout = (msecs + DHCP_FINE_TIMER_MSECS - 1) / DHCP_FINE_TIMER_MSECS;
    32fc:	e0bffe8b 	ldhu	r2,-6(fp)
    3300:	10c07cc4 	addi	r3,r2,499
    3304:	00807d04 	movi	r2,500
    3308:	1885283a 	div	r2,r3,r2
    330c:	1007883a 	mov	r3,r2
    3310:	e0bffd17 	ldw	r2,-12(fp)
    3314:	10c0068d 	sth	r3,26(r2)
  LWIP_DEBUGF(DHCP_DEBUG | LWIP_DBG_TRACE | LWIP_DBG_STATE, ("dhcp_discover(): set request timeout %"U16_F" msecs\n", msecs));
  return result;
    3318:	e0bffe03 	ldbu	r2,-8(fp)
}
    331c:	e037883a 	mov	sp,fp
    3320:	dfc00117 	ldw	ra,4(sp)
    3324:	df000017 	ldw	fp,0(sp)
    3328:	dec00204 	addi	sp,sp,8
    332c:	f800283a 	ret

00003330 <dhcp_bind>:
 *
 * @param netif network interface to bind to the offered address
 */
static void
dhcp_bind(struct netif *netif)
{
    3330:	defff804 	addi	sp,sp,-32
    3334:	dfc00715 	stw	ra,28(sp)
    3338:	df000615 	stw	fp,24(sp)
    333c:	df000604 	addi	fp,sp,24
    3340:	e13fff15 	stw	r4,-4(fp)
  u32_t timeout;
  struct dhcp *dhcp;
  ip_addr_t sn_mask, gw_addr;
  LWIP_ERROR("dhcp_bind: netif != NULL", (netif != NULL), return;);
    3344:	e0bfff17 	ldw	r2,-4(fp)
    3348:	1000091e 	bne	r2,zero,3370 <dhcp_bind+0x40>
    334c:	010000f4 	movhi	r4,3
    3350:	213ccf04 	addi	r4,r4,-3268
    3354:	014000f4 	movhi	r5,3
    3358:	297cfb04 	addi	r5,r5,-3092
    335c:	0180e904 	movi	r6,932
    3360:	01c000f4 	movhi	r7,3
    3364:	39fcdd04 	addi	r7,r7,-3212
    3368:	00193f00 	call	193f0 <printf>
    336c:	003fff06 	br	336c <dhcp_bind+0x3c>
  dhcp = netif->dhcp;
    3370:	e0bfff17 	ldw	r2,-4(fp)
    3374:	10800817 	ldw	r2,32(r2)
    3378:	e0bffb15 	stw	r2,-20(fp)
  LWIP_ERROR("dhcp_bind: dhcp != NULL", (dhcp != NULL), return;);
    337c:	e0bffb17 	ldw	r2,-20(fp)
    3380:	1000091e 	bne	r2,zero,33a8 <dhcp_bind+0x78>
    3384:	010000f4 	movhi	r4,3
    3388:	213ccf04 	addi	r4,r4,-3268
    338c:	014000f4 	movhi	r5,3
    3390:	297d0204 	addi	r5,r5,-3064
    3394:	0180e984 	movi	r6,934
    3398:	01c000f4 	movhi	r7,3
    339c:	39fcdd04 	addi	r7,r7,-3212
    33a0:	00193f00 	call	193f0 <printf>
    33a4:	003fff06 	br	33a4 <dhcp_bind+0x74>
  LWIP_DEBUGF(DHCP_DEBUG | LWIP_DBG_TRACE, ("dhcp_bind(netif=%p) %c%c%"U16_F"\n", (void*)netif, netif->name[0], netif->name[1], (u16_t)netif->num));

  /* temporary DHCP lease? */
  if (dhcp->offered_t1_renew != 0xffffffffUL) {
    33a8:	e0bffb17 	ldw	r2,-20(fp)
    33ac:	10800d17 	ldw	r2,52(r2)
    33b0:	10bfffe0 	cmpeqi	r2,r2,-1
    33b4:	1000161e 	bne	r2,zero,3410 <dhcp_bind+0xe0>
    /* set renewal period timer */
    LWIP_DEBUGF(DHCP_DEBUG | LWIP_DBG_TRACE, ("dhcp_bind(): t1 renewal timer %"U32_F" secs\n", dhcp->offered_t1_renew));
    timeout = (dhcp->offered_t1_renew + DHCP_COARSE_TIMER_SECS / 2) / DHCP_COARSE_TIMER_SECS;
    33b8:	e0bffb17 	ldw	r2,-20(fp)
    33bc:	10800d17 	ldw	r2,52(r2)
    33c0:	10c00784 	addi	r3,r2,30
    33c4:	00800f04 	movi	r2,60
    33c8:	1885203a 	divu	r2,r3,r2
    33cc:	e0bffa15 	stw	r2,-24(fp)
    if(timeout > 0xffff) {
    33d0:	e0bffa17 	ldw	r2,-24(fp)
    33d4:	00ffffd4 	movui	r3,65535
    33d8:	1880022e 	bgeu	r3,r2,33e4 <dhcp_bind+0xb4>
      timeout = 0xffff;
    33dc:	00bfffd4 	movui	r2,65535
    33e0:	e0bffa15 	stw	r2,-24(fp)
    }
    dhcp->t1_timeout = (u16_t)timeout;
    33e4:	e0bffa17 	ldw	r2,-24(fp)
    33e8:	1007883a 	mov	r3,r2
    33ec:	e0bffb17 	ldw	r2,-20(fp)
    33f0:	10c0070d 	sth	r3,28(r2)
    if (dhcp->t1_timeout == 0) {
    33f4:	e0bffb17 	ldw	r2,-20(fp)
    33f8:	1080070b 	ldhu	r2,28(r2)
    33fc:	10bfffcc 	andi	r2,r2,65535
    3400:	1000031e 	bne	r2,zero,3410 <dhcp_bind+0xe0>
      dhcp->t1_timeout = 1;
    3404:	e0bffb17 	ldw	r2,-20(fp)
    3408:	00c00044 	movi	r3,1
    340c:	10c0070d 	sth	r3,28(r2)
    }
    LWIP_DEBUGF(DHCP_DEBUG | LWIP_DBG_TRACE | LWIP_DBG_STATE, ("dhcp_bind(): set request timeout %"U32_F" msecs\n", dhcp->offered_t1_renew*1000));
  }
  /* set renewal period timer */
  if (dhcp->offered_t2_rebind != 0xffffffffUL) {
    3410:	e0bffb17 	ldw	r2,-20(fp)
    3414:	10800e17 	ldw	r2,56(r2)
    3418:	10bfffe0 	cmpeqi	r2,r2,-1
    341c:	1000161e 	bne	r2,zero,3478 <dhcp_bind+0x148>
    LWIP_DEBUGF(DHCP_DEBUG | LWIP_DBG_TRACE, ("dhcp_bind(): t2 rebind timer %"U32_F" secs\n", dhcp->offered_t2_rebind));
    timeout = (dhcp->offered_t2_rebind + DHCP_COARSE_TIMER_SECS / 2) / DHCP_COARSE_TIMER_SECS;
    3420:	e0bffb17 	ldw	r2,-20(fp)
    3424:	10800e17 	ldw	r2,56(r2)
    3428:	10c00784 	addi	r3,r2,30
    342c:	00800f04 	movi	r2,60
    3430:	1885203a 	divu	r2,r3,r2
    3434:	e0bffa15 	stw	r2,-24(fp)
    if(timeout > 0xffff) {
    3438:	e0bffa17 	ldw	r2,-24(fp)
    343c:	00ffffd4 	movui	r3,65535
    3440:	1880022e 	bgeu	r3,r2,344c <dhcp_bind+0x11c>
      timeout = 0xffff;
    3444:	00bfffd4 	movui	r2,65535
    3448:	e0bffa15 	stw	r2,-24(fp)
    }
    dhcp->t2_timeout = (u16_t)timeout;
    344c:	e0bffa17 	ldw	r2,-24(fp)
    3450:	1007883a 	mov	r3,r2
    3454:	e0bffb17 	ldw	r2,-20(fp)
    3458:	10c0078d 	sth	r3,30(r2)
    if (dhcp->t2_timeout == 0) {
    345c:	e0bffb17 	ldw	r2,-20(fp)
    3460:	1080078b 	ldhu	r2,30(r2)
    3464:	10bfffcc 	andi	r2,r2,65535
    3468:	1000031e 	bne	r2,zero,3478 <dhcp_bind+0x148>
      dhcp->t2_timeout = 1;
    346c:	e0bffb17 	ldw	r2,-20(fp)
    3470:	00c00044 	movi	r3,1
    3474:	10c0078d 	sth	r3,30(r2)
    }
    LWIP_DEBUGF(DHCP_DEBUG | LWIP_DBG_TRACE | LWIP_DBG_STATE, ("dhcp_bind(): set request timeout %"U32_F" msecs\n", dhcp->offered_t2_rebind*1000));
  }

  /* If we have sub 1 minute lease, t2 and t1 will kick in at the same time. */
  if ((dhcp->t1_timeout >= dhcp->t2_timeout) && (dhcp->t2_timeout > 0)) {
    3478:	e0bffb17 	ldw	r2,-20(fp)
    347c:	10c0070b 	ldhu	r3,28(r2)
    3480:	e0bffb17 	ldw	r2,-20(fp)
    3484:	1080078b 	ldhu	r2,30(r2)
    3488:	18ffffcc 	andi	r3,r3,65535
    348c:	10bfffcc 	andi	r2,r2,65535
    3490:	18800636 	bltu	r3,r2,34ac <dhcp_bind+0x17c>
    3494:	e0bffb17 	ldw	r2,-20(fp)
    3498:	1080078b 	ldhu	r2,30(r2)
    349c:	10bfffcc 	andi	r2,r2,65535
    34a0:	10000226 	beq	r2,zero,34ac <dhcp_bind+0x17c>
    dhcp->t1_timeout = 0;
    34a4:	e0bffb17 	ldw	r2,-20(fp)
    34a8:	1000070d 	sth	zero,28(r2)
  }

  if (dhcp->subnet_mask_given) {
    34ac:	e0bffb17 	ldw	r2,-20(fp)
    34b0:	10800383 	ldbu	r2,14(r2)
    34b4:	10803fcc 	andi	r2,r2,255
    34b8:	10000426 	beq	r2,zero,34cc <dhcp_bind+0x19c>
    /* copy offered network mask */
    ip_addr_copy(sn_mask, dhcp->offered_sn_mask);
    34bc:	e0bffb17 	ldw	r2,-20(fp)
    34c0:	10800a17 	ldw	r2,40(r2)
    34c4:	e0bffd15 	stw	r2,-12(fp)
    34c8:	00001506 	br	3520 <dhcp_bind+0x1f0>
  } else {
    /* subnet mask not given, choose a safe subnet mask given the network class */
    u8_t first_octet = ip4_addr1(&dhcp->offered_ip_addr);
    34cc:	e0bffb17 	ldw	r2,-20(fp)
    34d0:	10800904 	addi	r2,r2,36
    34d4:	10800003 	ldbu	r2,0(r2)
    34d8:	e0bffc05 	stb	r2,-16(fp)
    if (first_octet <= 127) {
    34dc:	e0bffc03 	ldbu	r2,-16(fp)
    34e0:	10803fcc 	andi	r2,r2,255
    34e4:	1080201c 	xori	r2,r2,128
    34e8:	10bfe004 	addi	r2,r2,-128
    34ec:	10000316 	blt	r2,zero,34fc <dhcp_bind+0x1cc>
      ip4_addr_set_u32(&sn_mask, PP_HTONL(0xff000000UL));
    34f0:	00803fc4 	movi	r2,255
    34f4:	e0bffd15 	stw	r2,-12(fp)
    34f8:	00000906 	br	3520 <dhcp_bind+0x1f0>
    } else if (first_octet >= 192) {
    34fc:	e0bffc03 	ldbu	r2,-16(fp)
    3500:	10803030 	cmpltui	r2,r2,192
    3504:	1000041e 	bne	r2,zero,3518 <dhcp_bind+0x1e8>
      ip4_addr_set_u32(&sn_mask, PP_HTONL(0xffffff00UL));
    3508:	00804034 	movhi	r2,256
    350c:	10bfffc4 	addi	r2,r2,-1
    3510:	e0bffd15 	stw	r2,-12(fp)
    3514:	00000206 	br	3520 <dhcp_bind+0x1f0>
    } else {
      ip4_addr_set_u32(&sn_mask, PP_HTONL(0xffff0000UL));
    3518:	00bfffd4 	movui	r2,65535
    351c:	e0bffd15 	stw	r2,-12(fp)
    }
  }

  ip_addr_copy(gw_addr, dhcp->offered_gw_addr);
    3520:	e0bffb17 	ldw	r2,-20(fp)
    3524:	10800b17 	ldw	r2,44(r2)
    3528:	e0bffe15 	stw	r2,-8(fp)
  /* gateway address not given? */
  if (ip_addr_isany(&gw_addr)) {
    352c:	e0bffe17 	ldw	r2,-8(fp)
    3530:	1000081e 	bne	r2,zero,3554 <dhcp_bind+0x224>
    /* copy network address */
    ip_addr_get_network(&gw_addr, &dhcp->offered_ip_addr, &sn_mask);
    3534:	e0bffb17 	ldw	r2,-20(fp)
    3538:	10c00917 	ldw	r3,36(r2)
    353c:	e0bffd17 	ldw	r2,-12(fp)
    3540:	1884703a 	and	r2,r3,r2
    3544:	e0bffe15 	stw	r2,-8(fp)
    /* use first host address on network as gateway */
    ip4_addr_set_u32(&gw_addr, ip4_addr_get_u32(&gw_addr) | PP_HTONL(0x00000001UL));
    3548:	e0bffe17 	ldw	r2,-8(fp)
    354c:	10804034 	orhi	r2,r2,256
    3550:	e0bffe15 	stw	r2,-8(fp)
  }
#endif /* LWIP_DHCP_AUTOIP_COOP */

  LWIP_DEBUGF(DHCP_DEBUG | LWIP_DBG_STATE, ("dhcp_bind(): IP: 0x%08"X32_F"\n",
    ip4_addr_get_u32(&dhcp->offered_ip_addr)));
  netif_set_ipaddr(netif, &dhcp->offered_ip_addr);
    3554:	e0bffb17 	ldw	r2,-20(fp)
    3558:	10800904 	addi	r2,r2,36
    355c:	e13fff17 	ldw	r4,-4(fp)
    3560:	100b883a 	mov	r5,r2
    3564:	0009bfc0 	call	9bfc <netif_set_ipaddr>
  LWIP_DEBUGF(DHCP_DEBUG | LWIP_DBG_STATE, ("dhcp_bind(): SN: 0x%08"X32_F"\n",
    ip4_addr_get_u32(&sn_mask)));
  netif_set_netmask(netif, &sn_mask);
    3568:	e0bffd04 	addi	r2,fp,-12
    356c:	e13fff17 	ldw	r4,-4(fp)
    3570:	100b883a 	mov	r5,r2
    3574:	0009d740 	call	9d74 <netif_set_netmask>
  LWIP_DEBUGF(DHCP_DEBUG | LWIP_DBG_STATE, ("dhcp_bind(): GW: 0x%08"X32_F"\n",
    ip4_addr_get_u32(&gw_addr)));
  netif_set_gw(netif, &gw_addr);
    3578:	e0bffe04 	addi	r2,fp,-8
    357c:	e13fff17 	ldw	r4,-4(fp)
    3580:	100b883a 	mov	r5,r2
    3584:	0009d300 	call	9d30 <netif_set_gw>
  /* bring the interface up */
  netif_set_up(netif);
    3588:	e13fff17 	ldw	r4,-4(fp)
    358c:	0009de00 	call	9de0 <netif_set_up>
  /* netif is now bound to DHCP leased address */
  dhcp_set_state(dhcp, DHCP_BOUND);
    3590:	e13ffb17 	ldw	r4,-20(fp)
    3594:	01400284 	movi	r5,10
    3598:	0003c800 	call	3c80 <dhcp_set_state>
}
    359c:	e037883a 	mov	sp,fp
    35a0:	dfc00117 	ldw	ra,4(sp)
    35a4:	df000017 	ldw	fp,0(sp)
    35a8:	dec00204 	addi	sp,sp,8
    35ac:	f800283a 	ret

000035b0 <dhcp_renew>:
 *
 * @param netif network interface which must renew its lease
 */
err_t
dhcp_renew(struct netif *netif)
{
    35b0:	defffa04 	addi	sp,sp,-24
    35b4:	dfc00515 	stw	ra,20(sp)
    35b8:	df000415 	stw	fp,16(sp)
    35bc:	df000404 	addi	fp,sp,16
    35c0:	e13fff15 	stw	r4,-4(fp)
  struct dhcp *dhcp = netif->dhcp;
    35c4:	e0bfff17 	ldw	r2,-4(fp)
    35c8:	10800817 	ldw	r2,32(r2)
    35cc:	e0bffd15 	stw	r2,-12(fp)
  err_t result;
  u16_t msecs;
  LWIP_DEBUGF(DHCP_DEBUG | LWIP_DBG_TRACE, ("dhcp_renew()\n"));
  dhcp_set_state(dhcp, DHCP_RENEWING);
    35d0:	e13ffd17 	ldw	r4,-12(fp)
    35d4:	01400144 	movi	r5,5
    35d8:	0003c800 	call	3c80 <dhcp_set_state>

  /* create and initialize the DHCP message header */
  result = dhcp_create_msg(netif, dhcp, DHCP_REQUEST);
    35dc:	e13fff17 	ldw	r4,-4(fp)
    35e0:	e17ffd17 	ldw	r5,-12(fp)
    35e4:	018000c4 	movi	r6,3
    35e8:	0004cac0 	call	4cac <dhcp_create_msg>
    35ec:	e0bffe05 	stb	r2,-8(fp)
  if (result == ERR_OK) {
    35f0:	e0bffe07 	ldb	r2,-8(fp)
    35f4:	1000231e 	bne	r2,zero,3684 <dhcp_renew+0xd4>
    dhcp_option(dhcp, DHCP_OPTION_MAX_MSG_SIZE, DHCP_OPTION_MAX_MSG_SIZE_LEN);
    35f8:	e13ffd17 	ldw	r4,-12(fp)
    35fc:	01400e44 	movi	r5,57
    3600:	01800084 	movi	r6,2
    3604:	0003cd80 	call	3cd8 <dhcp_option>
    dhcp_option_short(dhcp, DHCP_MAX_MSG_LEN(netif));
    3608:	e0bfff17 	ldw	r2,-4(fp)
    360c:	1080090b 	ldhu	r2,36(r2)
    3610:	10bfffcc 	andi	r2,r2,65535
    3614:	e13ffd17 	ldw	r4,-12(fp)
    3618:	100b883a 	mov	r5,r2
    361c:	0003e580 	call	3e58 <dhcp_option_short>
#if LWIP_NETIF_HOSTNAME
    dhcp_option_hostname(dhcp, netif);
#endif /* LWIP_NETIF_HOSTNAME */

    /* append DHCP message trailer */
    dhcp_option_trailer(dhcp);
    3620:	e13ffd17 	ldw	r4,-12(fp)
    3624:	00052600 	call	5260 <dhcp_option_trailer>

    pbuf_realloc(dhcp->p_out, sizeof(struct dhcp_msg) - DHCP_OPTIONS_LEN + dhcp->options_out_len);
    3628:	e0bffd17 	ldw	r2,-12(fp)
    362c:	10c00417 	ldw	r3,16(r2)
    3630:	e0bffd17 	ldw	r2,-12(fp)
    3634:	1080060b 	ldhu	r2,24(r2)
    3638:	10803c04 	addi	r2,r2,240
    363c:	10bfffcc 	andi	r2,r2,65535
    3640:	1809883a 	mov	r4,r3
    3644:	100b883a 	mov	r5,r2
    3648:	000a5b80 	call	a5b8 <pbuf_realloc>

    udp_sendto_if(dhcp->pcb, dhcp->p_out, &dhcp->server_ip_addr, DHCP_SERVER_PORT, netif);
    364c:	e0bffd17 	ldw	r2,-12(fp)
    3650:	11000117 	ldw	r4,4(r2)
    3654:	e0bffd17 	ldw	r2,-12(fp)
    3658:	10c00417 	ldw	r3,16(r2)
    365c:	e0bffd17 	ldw	r2,-12(fp)
    3660:	10800804 	addi	r2,r2,32
    3664:	e17fff17 	ldw	r5,-4(fp)
    3668:	d9400015 	stw	r5,0(sp)
    366c:	180b883a 	mov	r5,r3
    3670:	100d883a 	mov	r6,r2
    3674:	01c010c4 	movi	r7,67
    3678:	00157880 	call	15788 <udp_sendto_if>
    dhcp_delete_msg(dhcp);
    367c:	e13ffd17 	ldw	r4,-12(fp)
    3680:	00051800 	call	5180 <dhcp_delete_msg>

    LWIP_DEBUGF(DHCP_DEBUG | LWIP_DBG_TRACE | LWIP_DBG_STATE, ("dhcp_renew: RENEWING\n"));
  } else {
    LWIP_DEBUGF(DHCP_DEBUG | LWIP_DBG_TRACE | LWIP_DBG_LEVEL_SERIOUS, ("dhcp_renew: could not allocate DHCP request\n"));
  }
  dhcp->tries++;
    3684:	e0bffd17 	ldw	r2,-12(fp)
    3688:	10800343 	ldbu	r2,13(r2)
    368c:	10800044 	addi	r2,r2,1
    3690:	1007883a 	mov	r3,r2
    3694:	e0bffd17 	ldw	r2,-12(fp)
    3698:	10c00345 	stb	r3,13(r2)
  /* back-off on retries, but to a maximum of 20 seconds */
  msecs = dhcp->tries < 10 ? dhcp->tries * 2000 : 20 * 1000;
    369c:	e0bffd17 	ldw	r2,-12(fp)
    36a0:	10800343 	ldbu	r2,13(r2)
    36a4:	10803fcc 	andi	r2,r2,255
    36a8:	108002a8 	cmpgeui	r2,r2,10
    36ac:	1000051e 	bne	r2,zero,36c4 <dhcp_renew+0x114>
    36b0:	e0bffd17 	ldw	r2,-12(fp)
    36b4:	10800343 	ldbu	r2,13(r2)
    36b8:	10803fcc 	andi	r2,r2,255
    36bc:	1081f424 	muli	r2,r2,2000
    36c0:	00000106 	br	36c8 <dhcp_renew+0x118>
    36c4:	00938804 	movi	r2,20000
    36c8:	e0bffe8d 	sth	r2,-6(fp)
  dhcp->request_timeout = (msecs + DHCP_FINE_TIMER_MSECS - 1) / DHCP_FINE_TIMER_MSECS;
    36cc:	e0bffe8b 	ldhu	r2,-6(fp)
    36d0:	10c07cc4 	addi	r3,r2,499
    36d4:	00807d04 	movi	r2,500
    36d8:	1885283a 	div	r2,r3,r2
    36dc:	1007883a 	mov	r3,r2
    36e0:	e0bffd17 	ldw	r2,-12(fp)
    36e4:	10c0068d 	sth	r3,26(r2)
  LWIP_DEBUGF(DHCP_DEBUG | LWIP_DBG_TRACE | LWIP_DBG_STATE, ("dhcp_renew(): set request timeout %"U16_F" msecs\n", msecs));
  return result;
    36e8:	e0bffe03 	ldbu	r2,-8(fp)
}
    36ec:	e037883a 	mov	sp,fp
    36f0:	dfc00117 	ldw	ra,4(sp)
    36f4:	df000017 	ldw	fp,0(sp)
    36f8:	dec00204 	addi	sp,sp,8
    36fc:	f800283a 	ret

00003700 <dhcp_rebind>:
 *
 * @param netif network interface which must rebind with a DHCP server
 */
static err_t
dhcp_rebind(struct netif *netif)
{
    3700:	defffa04 	addi	sp,sp,-24
