
FreeLwIP.elf:     file format elf32-littlenios2
FreeLwIP.elf
architecture: nios2, flags 0x00000112:
EXEC_P, HAS_SYMS, D_PAGED
start address 0x00000224

Program Header:
    LOAD off    0x00001020 vaddr 0x00000020 paddr 0x00000020 align 2**12
         filesz 0x00043510 memsz 0x00043510 flags r-x
    LOAD off    0x00044530 vaddr 0x00043530 paddr 0x0004577c align 2**12
         filesz 0x0000224c memsz 0x0000224c flags rw-
    LOAD off    0x000469c8 vaddr 0x000479c8 paddr 0x000479c8 align 2**12
         filesz 0x00000000 memsz 0x00023c34 flags rw-
    LOAD off    0x00047000 vaddr 0x05000000 paddr 0x05000000 align 2**12
         filesz 0x00000020 memsz 0x00000020 flags r-x

Sections:
Idx Name          Size      VMA       LMA       File off  Algn
  0 .entry        00000020  05000000  05000000  00047000  2**5
                  CONTENTS, ALLOC, LOAD, READONLY, CODE
  1 .exceptions   00000204  00000020  00000020  00001020  2**2
                  CONTENTS, ALLOC, LOAD, READONLY, CODE
  2 .text         0003f58c  00000224  00000224  00001224  2**2
                  CONTENTS, ALLOC, LOAD, READONLY, CODE
  3 .rodata       00003d80  0003f7b0  0003f7b0  000407b0  2**2
                  CONTENTS, ALLOC, LOAD, READONLY, DATA
  4 .rwdata       0000224c  00043530  0004577c  00044530  2**2
                  CONTENTS, ALLOC, LOAD, DATA, SMALL_DATA
  5 .bss          00023c34  000479c8  000479c8  000469c8  2**2
                  ALLOC, SMALL_DATA
  6 .comment      00000023  00000000  00000000  00047020  2**0
                  CONTENTS, READONLY
  7 .debug_aranges 00001818  00000000  00000000  00047048  2**3
                  CONTENTS, READONLY, DEBUGGING
  8 .debug_info   0005195d  00000000  00000000  00048860  2**0
                  CONTENTS, READONLY, DEBUGGING
  9 .debug_abbrev 000109fb  00000000  00000000  0009a1bd  2**0
                  CONTENTS, READONLY, DEBUGGING
 10 .debug_line   00017839  00000000  00000000  000aabb8  2**0
                  CONTENTS, READONLY, DEBUGGING
 11 .debug_frame  00006700  00000000  00000000  000c23f4  2**2
                  CONTENTS, READONLY, DEBUGGING
 12 .debug_str    0000ba5d  00000000  00000000  000c8af4  2**0
                  CONTENTS, READONLY, DEBUGGING
 13 .debug_loc    00018bcf  00000000  00000000  000d4551  2**0
                  CONTENTS, READONLY, DEBUGGING
 14 .debug_alt_sim_info 00000050  00000000  00000000  000ed120  2**2
                  CONTENTS, READONLY, DEBUGGING
 15 .debug_ranges 00000b18  00000000  00000000  000ed170  2**3
                  CONTENTS, READONLY, DEBUGGING
 16 .thread_model 00000008  00000000  00000000  000f8af9  2**0
                  CONTENTS, READONLY
 17 .cpu          00000003  00000000  00000000  000f8b01  2**0
                  CONTENTS, READONLY
 18 .qsys         00000001  00000000  00000000  000f8b04  2**0
                  CONTENTS, READONLY
 19 .simulation_enabled 00000001  00000000  00000000  000f8b05  2**0
                  CONTENTS, READONLY
 20 .sysid_hash   00000004  00000000  00000000  000f8b06  2**0
                  CONTENTS, READONLY
 21 .sysid_base   00000004  00000000  00000000  000f8b0a  2**0
                  CONTENTS, READONLY
 22 .sysid_time   00000004  00000000  00000000  000f8b0e  2**0
                  CONTENTS, READONLY
 23 .stderr_dev   00000009  00000000  00000000  000f8b12  2**0
                  CONTENTS, READONLY
 24 .stdin_dev    00000009  00000000  00000000  000f8b1b  2**0
                  CONTENTS, READONLY
 25 .stdout_dev   00000009  00000000  00000000  000f8b24  2**0
                  CONTENTS, READONLY
 26 .sopc_system_name 0000000c  00000000  00000000  000f8b2d  2**0
                  CONTENTS, READONLY
 27 .quartus_project_dir 0000002e  00000000  00000000  000f8b39  2**0
                  CONTENTS, READONLY
 28 .jdi          00005066  00000000  00000000  000f8b67  2**0
                  CONTENTS, READONLY
 29 .sopcinfo     001a200d  00000000  00000000  000fdbcd  2**0
                  CONTENTS, READONLY
SYMBOL TABLE:
05000000 l    d  .entry	00000000 .entry
00000020 l    d  .exceptions	00000000 .exceptions
00000224 l    d  .text	00000000 .text
0003f7b0 l    d  .rodata	00000000 .rodata
00043530 l    d  .rwdata	00000000 .rwdata
000479c8 l    d  .bss	00000000 .bss
00000000 l    d  .comment	00000000 .comment
00000000 l    d  .debug_aranges	00000000 .debug_aranges
00000000 l    d  .debug_info	00000000 .debug_info
00000000 l    d  .debug_abbrev	00000000 .debug_abbrev
00000000 l    d  .debug_line	00000000 .debug_line
00000000 l    d  .debug_frame	00000000 .debug_frame
00000000 l    d  .debug_str	00000000 .debug_str
00000000 l    d  .debug_loc	00000000 .debug_loc
00000000 l    d  .debug_alt_sim_info	00000000 .debug_alt_sim_info
00000000 l    d  .debug_ranges	00000000 .debug_ranges
00000000 l    df *ABS*	00000000 ../FreeLwIP_bsp//obj/HAL/src/crt0.o
0000029c l       .text	00000000 alt_after_alt_main
00000000 l    df *ABS*	00000000 port_asm.o
00000020 l       .exceptions	00000000 save_context
000000a8 l       .exceptions	00000000 save_sp_to_pxCurrentTCB
000000c0 l       .exceptions	00000000 hw_irq_test
00000178 l       .exceptions	00000000 soft_exceptions
000000d4 l       .exceptions	00000000 hw_irq_handler
000000d8 l       .exceptions	00000000 alt_irq_handler
000000f0 l       .exceptions	00000000 restore_context
00000198 l       .exceptions	00000000 call_scheduler
00000000 l    df *ABS*	00000000 alt_instruction_exception_entry.c
00000000 l    df *ABS*	00000000 BasicWEB.c
0000031c l     F .text	000001e4 prvweb_ParseHTMLRequest
000479c8 l     O .bss	00000004 ulPageHits.3844
00000000 l    df *ABS*	00000000 BlockQ.c
000479cc l     O .bss	00000006 sBlockingConsumerCount
000479d2 l     O .bss	00000006 sBlockingProducerCount
0000083c l     F .text	000000a8 vBlockingQueueConsumer
000007b4 l     F .text	00000088 vBlockingQueueProducer
000479d8 l     O .bss	00000006 sLastBlockingConsumerCount.2291
000479de l     O .bss	00000006 sLastBlockingProducerCount.2292
00000000 l    df *ABS*	00000000 GenQTest.c
000479e4 l     O .bss	00000004 xErrorDetected
000479e8 l     O .bss	00000004 ulLoopCounter
000479ec l     O .bss	00000004 ulLoopCounter2
000479f0 l     O .bss	00000004 ulGuardedVariable
000479f4 l     O .bss	00000004 xHighPriorityMutexTask
000479f8 l     O .bss	00000004 xMediumPriorityMutexTask
00000b18 l     F .text	00000464 prvSendFrontAndBackTest
00000f7c l     F .text	00000128 prvLowPriorityMutexTask
000010a4 l     F .text	0000002c prvMediumPriorityMutexTask
000010d0 l     F .text	00000078 prvHighPriorityMutexTask
000479fc l     O .bss	00000004 ulLastLoopCounter.2305
00047a00 l     O .bss	00000004 ulLastLoopCounter2.2306
00000000 l    df *ABS*	00000000 PollQ.c
00047a04 l     O .bss	00000004 xPollingConsumerCount
00047a08 l     O .bss	00000004 xPollingProducerCount
00047a0c l     O .bss	00000004 xPolledQueue.2258
000012f8 l     F .text	000000c8 vPolledQueueConsumer
00001244 l     F .text	000000b4 vPolledQueueProducer
00000000 l    df *ABS*	00000000 QPeek.c
00047a10 l     O .bss	00000004 xErrorDetected
00047a14 l     O .bss	00000004 ulLoopCounter
000017c0 l     F .text	0000016c prvLowPriorityPeekTask
00001734 l     F .text	0000008c prvMediumPriorityPeekTask
0000166c l     F .text	000000c8 prvHighPriorityPeekTask
00001508 l     F .text	00000164 prvHighestPriorityPeekTask
00047a18 l     O .bss	00000004 ulLastLoopCounter.2294
00000000 l    df *ABS*	00000000 blocktim.c
00047a28 l     O .bss	00000004 xTestQueue
00047a2c l     O .bss	00000004 xSecondary
00047a30 l     O .bss	00000004 xPrimaryCycles
00047a34 l     O .bss	00000004 xSecondaryCycles
00047a38 l     O .bss	00000004 xErrorOccurred
00047a3c l     O .bss	00000004 xRunIndicator
00001a0c l     F .text	0000041c vPrimaryBlockTimeTestTask
00001e28 l     F .text	00000128 vSecondaryBlockTimeTestTask
00047a40 l     O .bss	00000004 xLastPrimaryCycleCount.1959
00047a44 l     O .bss	00000004 xLastSecondaryCycleCount.1960
00000000 l    df *ABS*	00000000 countsem.c
00047a48 l     O .bss	00000004 xErrorDetected
00047c38 l     O .bss	00000018 xParameters
00002258 l     F .text	000000b0 prvCountingSemaphoreTask
000020c0 l     F .text	000000cc prvDecrementSemaphoreCount
0000218c l     F .text	000000cc prvIncrementSemaphoreCount
00047a4c l     O .bss	00000004 uxLastCount0.1940
00047a50 l     O .bss	00000004 uxLastCount1.1941
00000000 l    df *ABS*	00000000 death.c
00047a54 l     O .bss	00000002 usCreationCount
00047a58 l     O .bss	00000004 uxTasksRunningAtStart
000456f0 l     O .rwdata	00000004 uxMaxNumberOfExtraTasksRunning
000024b0 l     F .text	000000b0 vCreateTasks
00002424 l     F .text	0000008c vSuicidalTask
000456f4 l     O .rwdata	00000002 usLastCreationCount.2200
00047a5c l     O .bss	00000004 uxTasksRunningNow.2202
00000000 l    df *ABS*	00000000 dynamic.c
00047a64 l     O .bss	00000004 xContinousIncrementHandle
00047a68 l     O .bss	00000004 xLimitedIncrementHandle
00047a6c l     O .bss	00000004 ulCounter
00047a70 l     O .bss	00000002 usCheckVariable
00047a74 l     O .bss	00000004 xSuspendedQueueSendError
00047a78 l     O .bss	00000004 xSuspendedQueueReceiveError
00002764 l     F .text	00000060 vContinuousIncrementTask
00002708 l     F .text	0000005c vLimitedIncrementTask
000027c4 l     F .text	000000ec vCounterControlTask
000028b0 l     F .text	0000005c vQueueSendWhenSuspendedTask
0000290c l     F .text	00000078 vQueueReceiveWhenSuspendedTask
00047a88 l     O .bss	00000004 ulValueToSend.2294
00047a80 l     O .bss	00000004 ulReceivedValue.2300
00047a84 l     O .bss	00000004 ulExpectedValue.2299
00047a7c l     O .bss	00000002 usLastTaskCheck.2308
00000000 l    df *ABS*	00000000 echo_server.c
00000000 l    df *ABS*	00000000 ethernet.c
00002bc0 l     F .text	00000040 StatusCallback
00002c00 l     F .text	00000020 LinkCallback
00002c68 l     F .text	000001d4 WaitOnPHY
00000000 l    df *ABS*	00000000 integer.c
00047a90 l     O .bss	00000004 xTaskCheck
000031f0 l     F .text	000000a8 vCompeteingIntMathTask
00000000 l    df *ABS*	00000000 main.c
000034b8 l     F .text	00000240 prvCheckTask
000036f8 l     F .text	00000174 prvFirstRegTestTask
0000386c l     F .text	00000170 prvSecondRegTestTask
00003780 l       .text	00000000 RegTest1
00003854 l       .text	00000000 RegTest1Error
000038f4 l       .text	00000000 RegTest2
000039c4 l       .text	00000000 RegTest2Error
00000000 l    df *ABS*	00000000 recmutex.c
00047a9c l     O .bss	00000004 xMutex
00047aa0 l     O .bss	00000004 xErrorOccurred
00047aa4 l     O .bss	00000004 xControllingIsSuspended
00047aa8 l     O .bss	00000004 xBlockingIsSuspended
00047aac l     O .bss	00000004 uxControllingCycles
00047ab0 l     O .bss	00000004 uxBlockingCycles
00047ab4 l     O .bss	00000004 uxPollingCycles
00047ab8 l     O .bss	00000004 xControllingTaskHandle
00047abc l     O .bss	00000004 xBlockingTaskHandle
00003aa8 l     F .text	000000fc prvRecursiveMutexControllingTask
00003ba4 l     F .text	000000a8 prvRecursiveMutexBlockingTask
00003c4c l     F .text	000000bc prvRecursiveMutexPollingTask
00047ac0 l     O .bss	00000004 uxLastControllingCycles.1939
00047ac4 l     O .bss	00000004 uxLastBlockingCycles.1940
00047ac8 l     O .bss	00000004 uxLastPollingCycles.1941
00000000 l    df *ABS*	00000000 semtest.c
00047acc l     O .bss	00000008 sCheckVariables
00047ad4 l     O .bss	00000002 sNextCheckVariable
00003fa0 l     F .text	00000198 prvSemaphoreTest
00047ad6 l     O .bss	00000008 sLastCheckVariables.2281
00000000 l    df *ABS*	00000000 memcpy.c
00000000 l    df *ABS*	00000000 memset.c
00000000 l    df *ABS*	00000000 perror.c
00000000 l    df *ABS*	00000000 printf.c
00000000 l    df *ABS*	00000000 puts.c
00000000 l    df *ABS*	00000000 sprintf.c
00000000 l    df *ABS*	00000000 strcat.c
00000000 l    df *ABS*	00000000 strcpy.c
00000000 l    df *ABS*	00000000 strerror.c
00000000 l    df *ABS*	00000000 strlen.c
00000000 l    df *ABS*	00000000 strncmp.c
00000000 l    df *ABS*	00000000 u_strerr.c
00000000 l    df *ABS*	00000000 vfprintf.c
00004f2c l     F .text	00000034 __sprint_r
000406e2 l     O .rodata	00000010 blanks.3515
000406f2 l     O .rodata	00000010 zeroes.3516
00000000 l    df *ABS*	00000000 wsetup.c
00000000 l    df *ABS*	00000000 dtoa.c
00006ef0 l     F .text	00000208 quorem
00000000 l    df *ABS*	00000000 fflush.c
00000000 l    df *ABS*	00000000 findfp.c
0000892c l     F .text	00000008 __fp_lock
00008934 l     F .text	00000008 __fp_unlock
00000000 l    df *ABS*	00000000 fputc.c
00000000 l    df *ABS*	00000000 fputs.c
00000000 l    df *ABS*	00000000 mallocr.c
00000000 l    df *ABS*	00000000 fvwrite.c
00000000 l    df *ABS*	00000000 fwalk.c
00000000 l    df *ABS*	00000000 impure.c
00043530 l     O .rwdata	00000400 impure_data
00000000 l    df *ABS*	00000000 locale.c
00040728 l     O .rodata	00000030 lconv
00000000 l    df *ABS*	00000000 makebuf.c
00000000 l    df *ABS*	00000000 mallocr.c
00000000 l    df *ABS*	00000000 memchr.c
00000000 l    df *ABS*	00000000 memmove.c
00000000 l    df *ABS*	00000000 mprec.c
00040870 l     O .rodata	0000000c p05.2435
00000000 l    df *ABS*	00000000 putc.c
00000000 l    df *ABS*	00000000 mallocr.c
00000000 l    df *ABS*	00000000 s_isinfd.c
00000000 l    df *ABS*	00000000 s_isnand.c
00000000 l    df *ABS*	00000000 sbrkr.c
00000000 l    df *ABS*	00000000 stdio.c
00000000 l    df *ABS*	00000000 strcmp.c
00000000 l    df *ABS*	00000000 wbuf.c
00000000 l    df *ABS*	00000000 writer.c
00000000 l    df *ABS*	00000000 mallocr.c
00000000 l    df *ABS*	00000000 closer.c
00000000 l    df *ABS*	00000000 fclose.c
00000000 l    df *ABS*	00000000 fstatr.c
00000000 l    df *ABS*	00000000 int_errno.c
00000000 l    df *ABS*	00000000 isattyr.c
00000000 l    df *ABS*	00000000 lseekr.c
00000000 l    df *ABS*	00000000 readr.c
00000000 l    df *ABS*	00000000 libgcc2.c
00000000 l    df *ABS*	00000000 libgcc2.c
00000000 l    df *ABS*	00000000 fp-bit.c
0000ced8 l     F .text	00000354 _fpadd_parts
00000000 l    df *ABS*	00000000 fp-bit.c
00000000 l    df *ABS*	00000000 fp-bit.c
00000000 l    df *ABS*	00000000 fp-bit.c
00000000 l    df *ABS*	00000000 fp-bit.c
00000000 l    df *ABS*	00000000 fp-bit.c
00000000 l    df *ABS*	00000000 fp-bit.c
00000000 l    df *ABS*	00000000 fp-bit.c
00000000 l    df *ABS*	00000000 fp-bit.c
00000000 l    df *ABS*	00000000 fp-bit.c
00000000 l    df *ABS*	00000000 fp-bit.c
00000000 l    df *ABS*	00000000 fp-bit.c
00000000 l    df *ABS*	00000000 lib2-divmod.c
0000dc18 l     F .text	00000074 udivmodsi4
00000000 l    df *ABS*	00000000 libgcc2.c
00000000 l    df *ABS*	00000000 libgcc2.c
00000000 l    df *ABS*	00000000 libgcc2.c
00000000 l    df *ABS*	00000000 fp-bit.c
00000000 l    df *ABS*	00000000 fp-bit.c
00000000 l    df *ABS*	00000000 fp-bit.c
00000000 l    df *ABS*	00000000 libgcc2.c
00000000 l    df *ABS*	00000000 libgcc2.c
00000000 l    df *ABS*	00000000 alt_main.c
00000000 l    df *ABS*	00000000 alt_malloc_lock.c
00000000 l    df *ABS*	00000000 heap_3.c
00000000 l    df *ABS*	00000000 queue.c
0000f038 l     F .text	00000158 prvCopyDataToQueue
0000f3d8 l     F .text	00000060 prvIsQueueFull
0000f228 l     F .text	00000120 prvUnlockQueue
0000f190 l     F .text	00000098 prvCopyDataFromQueue
0000f348 l     F .text	00000058 prvIsQueueEmpty
00000000 l    df *ABS*	00000000 tasks.c
00047c78 l     O .bss	00000064 pxReadyTasksLists
00047cdc l     O .bss	00000014 xDelayedTaskList1
00047cf0 l     O .bss	00000014 xDelayedTaskList2
00047b10 l     O .bss	00000004 pxDelayedTaskList
00047b14 l     O .bss	00000004 pxOverflowDelayedTaskList
00047d04 l     O .bss	00000014 xPendingReadyList
00047d18 l     O .bss	00000014 xTasksWaitingTermination
00047b18 l     O .bss	00000004 uxTasksDeleted
00047d2c l     O .bss	00000014 xSuspendedTaskList
00047b1c l     O .bss	00000004 uxCurrentNumberOfTasks
00047b20 l     O .bss	00000004 xTickCount
00047b24 l     O .bss	00000004 uxTopUsedPriority
00047b28 l     O .bss	00000004 uxTopReadyPriority
00047b2c l     O .bss	00000004 xSchedulerRunning
00047b30 l     O .bss	00000004 uxSchedulerSuspended
00047b34 l     O .bss	00000004 uxMissedTicks
00047b38 l     O .bss	00000004 xMissedYield
00047b3c l     O .bss	00000004 xNumOfOverflows
00047b40 l     O .bss	00000004 uxTaskNumber
0004570c l     O .rwdata	00000004 xNextTaskUnblockTime
00010b84 l     F .text	000000b4 prvAllocateTCBAndStack
000108bc l     F .text	000000dc prvInitialiseTCBVariables
00010998 l     F .text	000000b4 prvInitialiseTaskLists
00010afc l     F .text	00000088 prvAddCurrentTaskToDelayedList
000108a0 l     F .text	0000001c prvIdleTask
00010c38 l     F .text	00000154 prvListTaskWithinSingleList
000409ba l     O .rodata	00000014 ucExpectedStackBytes.3200
00010a4c l     F .text	000000b0 prvCheckTasksWaitingTermination
00010e54 l     F .text	00000040 prvDeleteTCB
00010d8c l     F .text	00000068 usTaskCheckFreeStackSpace
00047d40 l     O .bss	00000046 pcStatusString.3280
00000000 l    df *ABS*	00000000 timers.c
00047d88 l     O .bss	00000014 xActiveTimerList1
00047d9c l     O .bss	00000014 xActiveTimerList2
00047b44 l     O .bss	00000004 pxCurrentTimerList
00047b48 l     O .bss	00000004 pxOverflowTimerList
00047b4c l     O .bss	00000004 xTimerQueue
0001192c l     F .text	00000088 prvCheckForValidListAndQueue
0001140c l     F .text	0000003c prvTimerTask
00011358 l     F .text	000000b4 prvProcessExpiredTimer
000115bc l     F .text	000000dc prvInsertTimerInActiveList
000114f0 l     F .text	00000060 prvGetNextExpireTime
00011448 l     F .text	000000a8 prvProcessTimerOrBlockTask
00011698 l     F .text	00000184 prvProcessReceivedCommands
00011550 l     F .text	0000006c prvSampleTimeNow
00047b50 l     O .bss	00000004 xLastTime.2004
0001181c l     F .text	00000110 prvSwitchTimerLists
00000000 l    df *ABS*	00000000 alt_dev.c
00011a44 l     F .text	0000002c alt_dev_null_write
00000000 l    df *ABS*	00000000 alt_do_ctors.c
00000000 l    df *ABS*	00000000 alt_do_dtors.c
00000000 l    df *ABS*	00000000 alt_fstat.c
00011b28 l     F .text	00000050 alt_get_errno
00000000 l    df *ABS*	00000000 alt_io_redirect.c
00011c24 l     F .text	000000c0 alt_open_fd
00000000 l    df *ABS*	00000000 alt_isatty.c
00011d5c l     F .text	00000050 alt_get_errno
00000000 l    df *ABS*	00000000 alt_load.c
00011e4c l     F .text	0000006c alt_load_section
00000000 l    df *ABS*	00000000 alt_lseek.c
00011f38 l     F .text	00000050 alt_get_errno
00000000 l    df *ABS*	00000000 alt_open.c
00012058 l     F .text	00000050 alt_get_errno
000120a8 l     F .text	000000cc alt_file_locked
00000000 l    df *ABS*	00000000 alt_release_fd.c
00000000 l    df *ABS*	00000000 alt_sbrk.c
00045724 l     O .rwdata	00000004 heap_end
00000000 l    df *ABS*	00000000 alt_usleep.c
00000000 l    df *ABS*	00000000 api_lib.c
00012cb8 l     F .text	0000028c netconn_recv_data
000134c8 l     F .text	000000cc netconn_close_shutdown
00000000 l    df *ABS*	00000000 api_msg.c
00013634 l     F .text	00000178 recv_raw
000137ac l     F .text	0000012c recv_udp
000138d8 l     F .text	00000140 recv_tcp
00013a18 l     F .text	000000fc poll_tcp
0001537c l     F .text	00000308 do_writemore
00014498 l     F .text	00000288 do_close_internal
00013b14 l     F .text	000000fc sent_tcp
00013c10 l     F .text	000001b0 err_tcp
00013dc0 l     F .text	00000084 setup_tcp
00013e44 l     F .text	00000168 accept_function
00013fac l     F .text	000001a0 pcb_new
00014320 l     F .text	00000178 netconn_drain
00014a54 l     F .text	00000154 do_connected
00000000 l    df *ABS*	00000000 netbuf.c
00000000 l    df *ABS*	00000000 sockets.c
00047db0 l     O .bss	000003f0 sockets
00047b58 l     O .bss	00000004 select_cb_list
00047b5c l     O .bss	00000004 select_cb_ctr
00040dd0 l     O .rodata	00000040 err_to_errno_table
00016094 l     F .text	00000078 get_socket
0001610c l     F .text	00000080 tryget_socket
0001618c l     F .text	000001a0 alloc_socket
0001632c l     F .text	00000094 free_socket
00017db4 l     F .text	000003b0 event_callback
00017554 l     F .text	0000038c lwip_selscan
000182d0 l     F .text	0000010c lwip_getaddrname
00018724 l     F .text	000003fc lwip_getsockopt_internal
00018db0 l     F .text	0000033c lwip_setsockopt_internal
00000000 l    df *ABS*	00000000 tcpip.c
00047b60 l     O .bss	00000004 tcpip_init_done
00047b64 l     O .bss	00000004 tcpip_init_done_arg
00047b68 l     O .bss	00000004 mbox
000192dc l     F .text	000001c0 tcpip_thread
0001990c l     F .text	00000038 pbuf_free_int
00000000 l    df *ABS*	00000000 alt_lwip_close.c
00000000 l    df *ABS*	00000000 alt_lwip_read.c
00000000 l    df *ABS*	00000000 alt_lwip_write.c
00000000 l    df *ABS*	00000000 lwip_main.c
00047b6c l     O .bss	00000004 status_callback
00047b70 l     O .bss	00000004 link_callback
00019c74 l     F .text	00000250 lwip_handle_interfaces
0001a254 l     F .text	0000003c lwip_status_callback
0001a0c8 l     F .text	000000d4 lwip_handle_ethernet_input
0001a018 l     F .text	000000b0 lwip_check_link_status
00000000 l    df *ABS*	00000000 lwip_tse_mac.c
00000000 l    df *ABS*	00000000 sys_arch.c
00000000 l    df *ABS*	00000000 dhcp.c
0001b9a4 l     F .text	00000060 dhcp_clear_assignment
0001ba04 l     F .text	00000050 dhcp_handle_nak
0001d5ec l     F .text	00000058 dhcp_set_state
0001cb14 l     F .text	000001a0 dhcp_discover
0001ba54 l     F .text	00000098 dhcp_check
0001baec l     F .text	000000e8 dhcp_handle_offer
0001bbd4 l     F .text	00000260 dhcp_select
0001e5b4 l     F .text	00000540 dhcp_create_msg
0001d644 l     F .text	00000098 dhcp_option
0001d738 l     F .text	00000094 dhcp_option_short
0001d7cc l     F .text	00000108 dhcp_option_long
0001d6dc l     F .text	0000005c dhcp_option_byte
0001d8d4 l     F .text	000000e4 dhcp_option_hostname
0001eb74 l     F .text	000000f8 dhcp_option_trailer
0001eaf4 l     F .text	00000080 dhcp_delete_msg
0001c1b0 l     F .text	00000078 dhcp_t2_timeout
0001c138 l     F .text	00000078 dhcp_t1_timeout
0001bfa4 l     F .text	00000194 dhcp_timeout
0001ccb4 l     F .text	00000280 dhcp_bind
0001d090 l     F .text	0000015c dhcp_rebind
0001d1ec l     F .text	000001a4 dhcp_reboot
0001c228 l     F .text	00000214 dhcp_handle_ack
0001e260 l     F .text	00000354 dhcp_recv
0001c9b0 l     F .text	00000164 dhcp_decline
0001d9b8 l     F .text	000008a8 dhcp_parse_reply
00045728 l     O .rwdata	00000004 xid.3666
00000000 l    df *ABS*	00000000 init.c
00000000 l    df *ABS*	00000000 ip.c
00047b84 l     O .bss	00000002 ip_id
00000000 l    df *ABS*	00000000 ip_addr.c
000481a0 l     O .bss	00000010 str.3082
00000000 l    df *ABS*	00000000 ip_frag.c
00047b98 l     O .bss	00000004 reassdatagrams
00047b9c l     O .bss	00000002 ip_reass_pbufcount
0002029c l     F .text	00000190 ip_reass_free_complete_datagram
00020694 l     F .text	00000064 ip_reass_dequeue_datagram
0002042c l     F .text	00000190 ip_reass_remove_oldest_datagram
000205bc l     F .text	000000d8 ip_reass_enqueue_new_datagram
000206f8 l     F .text	00000684 ip_reass_chain_frag_into_datagram_and_validate
0002136c l     F .text	0000002c ip_frag_alloc_pbuf_custom_ref
00021398 l     F .text	00000034 ip_frag_free_pbuf_custom_ref
000213cc l     F .text	00000054 ipfrag_free_pbuf_custom
00000000 l    df *ABS*	00000000 mem.c
00047ba0 l     O .bss	00000004 ram
00047ba4 l     O .bss	00000004 ram_end
00047ba8 l     O .bss	00000004 lfree
00047bac l     O .bss	00000004 mem_mutex
0002187c l     F .text	00000124 plug_holes
00000000 l    df *ABS*	00000000 memp.c
000481b0 l     O .bss	0000003c memp_tab
00041190 l     O .rodata	0000001e memp_sizes
000411ae l     O .rodata	0000001e memp_num
000481ec l     O .bss	0001a16f memp_memory
00000000 l    df *ABS*	00000000 netif.c
00047bb0 l     O .bss	00000001 netif_num
00000000 l    df *ABS*	00000000 pbuf.c
00022e50 l     F .text	00000090 pbuf_free_ooseq
00022ee0 l     F .text	0000002c pbuf_free_ooseq_callback
00022f0c l     F .text	00000094 pbuf_pool_is_empty
00000000 l    df *ABS*	00000000 raw.c
00047bc0 l     O .bss	00000004 raw_pcbs
00000000 l    df *ABS*	00000000 stats.c
00000000 l    df *ABS*	00000000 tcp.c
00045734 l     O .rwdata	00000002 tcp_port
00047bc4 l     O .bss	00000001 tcp_timer
00047bc5 l     O .bss	00000001 tcp_timer_ctr
00024a8c l     F .text	00000358 tcp_close_shutdown
000256bc l     F .text	000000e8 tcp_new_port
00025290 l     F .text	00000030 tcp_accept_null
00026668 l     F .text	000000d4 tcp_kill_prio
0002673c l     F .text	00000090 tcp_kill_timewait
00045740 l     O .rwdata	00000004 iss.3777
00000000 l    df *ABS*	00000000 tcp_in.c
0006235c l     O .bss	00000014 inseg
00047be0 l     O .bss	00000004 tcphdr
00047be4 l     O .bss	00000004 iphdr
00047be8 l     O .bss	00000004 seqno
00047bec l     O .bss	00000004 ackno
00047bf0 l     O .bss	00000001 flags
00047bf2 l     O .bss	00000002 tcplen
00047bf4 l     O .bss	00000001 recv_flags
00047bf8 l     O .bss	00000004 recv_data
00028034 l     F .text	0000014c tcp_timewait_input
00027d24 l     F .text	00000310 tcp_listen_input
00028180 l     F .text	00000c00 tcp_process
0002af90 l     F .text	00000228 tcp_parseopt
00029008 l     F .text	00001f88 tcp_receive
00028d80 l     F .text	00000288 tcp_oos_insert_segment
00000000 l    df *ABS*	00000000 tcp_out.c
0002b1b8 l     F .text	00000368 tcp_output_alloc_header
0002b654 l     F .text	00000344 tcp_create_segment
0002b998 l     F .text	00000124 tcp_pbuf_prealloc
0002babc l     F .text	000000b4 tcp_seg_add_chksum
0002bb70 l     F .text	00000124 tcp_write_checks
0002d46c l     F .text	000005c4 tcp_output_segment
00000000 l    df *ABS*	00000000 timers.c
00047c00 l     O .bss	00000004 next_timeout
00047c04 l     O .bss	00000004 tcpip_tcp_timer_active
0002e654 l     F .text	00000068 tcpip_tcp_timer
0002e724 l     F .text	00000040 ip_reass_timer
0002e764 l     F .text	00000040 arp_timer
0002e7a4 l     F .text	00000040 dhcp_timer_coarse
0002e7e4 l     F .text	00000040 dhcp_timer_fine
00000000 l    df *ABS*	00000000 udp.c
00045744 l     O .rwdata	00000002 udp_port
0002ec38 l     F .text	000000ac udp_new_port
00000000 l    df *ABS*	00000000 etharp.c
00062370 l     O .bss	000001f4 arp_table
0002fcd0 l     F .text	00000064 free_etharp_q
0002fd34 l     F .text	00000098 etharp_free_entry
0002ff40 l     F .text	00000318 etharp_find_entry
00030258 l     F .text	000000a4 etharp_send_ip
000302fc l     F .text	000001ec etharp_update_arp_entry
00030648 l     F .text	000000e0 etharp_ip_input
00030728 l     F .text	0000038c etharp_arp_input
00030ab4 l     F .text	0000010c etharp_output_to_arp_index
00031260 l     F .text	0000023c etharp_raw
00000000 l    df *ABS*	00000000 alt_sys_init.c
00031758 l     F .text	00000038 alt_dev_reg
00043eec l     O .rwdata	0000009c vic_0
00043f88 l     O .rwdata	000000d8 cfi_flash
00044060 l     O .rwdata	00001068 jtag_uart
000450c8 l     O .rwdata	00000124 lcd
000451ec l     O .rwdata	00000030 sgdma_rx
0004521c l     O .rwdata	00000030 sgdma_tx
0004524c l     O .rwdata	000000cc rs232
00045318 l     O .rwdata	000000cc uart_0
000453e4 l     O .rwdata	000000cc uart_1
00000000 l    df *ABS*	00000000 altera_avalon_cfi_flash.c
000318e0 l     F .text	00000038 alt_flash_device_register
00000000 l    df *ABS*	00000000 altera_avalon_cfi_flash_table.c
00032718 l     F .text	00000080 alt_read_16bit_query_entry
00000000 l    df *ABS*	00000000 altera_avalon_jtag_uart_fd.c
00000000 l    df *ABS*	00000000 altera_avalon_jtag_uart_init.c
00033848 l     F .text	00000204 altera_avalon_jtag_uart_irq
00033a4c l     F .text	000000a4 altera_avalon_jtag_uart_timeout
00000000 l    df *ABS*	00000000 altera_avalon_jtag_uart_ioctl.c
00000000 l    df *ABS*	00000000 altera_avalon_jtag_uart_read.c
00000000 l    df *ABS*	00000000 altera_avalon_jtag_uart_write.c
00000000 l    df *ABS*	00000000 altera_avalon_lcd_16207.c
00045752 l     O .rwdata	00000004 colstart
00034170 l     F .text	000000b4 lcd_write_command
00034224 l     F .text	000000d0 lcd_write_data
000342f4 l     F .text	000000cc lcd_clear_screen
000343c0 l     F .text	000001ec lcd_repaint_screen
000345ac l     F .text	000000cc lcd_scroll_up
00034678 l     F .text	000002bc lcd_handle_escape
00034e60 l     F .text	000000ac alt_lcd_16207_timeout
00000000 l    df *ABS*	00000000 altera_avalon_lcd_16207_fd.c
00000000 l    df *ABS*	00000000 altera_avalon_sgdma.c
000350e4 l     F .text	00000050 alt_get_errno
00035c88 l     F .text	000000e4 alt_avalon_sgdma_irq
00000000 l    df *ABS*	00000000 altera_avalon_timer_sc.c
00035e10 l     F .text	000000a0 alt_avalon_timer_sc_irq
00000000 l    df *ABS*	00000000 altera_avalon_tse.c
00047c0f l     O .bss	00000001 tse_system_count.3776
00047c0e l     O .bss	00000001 is_init.3858
00000000 l    df *ABS*	00000000 altera_avalon_tse_system_info.c
00000000 l    df *ABS*	00000000 altera_avalon_uart_fd.c
00000000 l    df *ABS*	00000000 altera_avalon_uart_init.c
0003b128 l     F .text	00000098 altera_avalon_uart_irq
0003b1c0 l     F .text	000000d8 altera_avalon_uart_rxirq
0003b298 l     F .text	0000013c altera_avalon_uart_txirq
00000000 l    df *ABS*	00000000 altera_avalon_uart_read.c
0003b428 l     F .text	00000050 alt_get_errno
00000000 l    df *ABS*	00000000 altera_avalon_uart_write.c
0003b71c l     F .text	00000050 alt_get_errno
00000000 l    df *ABS*	00000000 altera_vic_irq_init.c
00043284 l     O .rodata	00000020 VEC_SIZE_ARRAY.1688
00000000 l    df *ABS*	00000000 altera_vic_isr_register.c
00000000 l    df *ABS*	00000000 alt_env_lock.c
00000000 l    df *ABS*	00000000 list.c
00000000 l    df *ABS*	00000000 port.c
0003c18c l     F .text	00000028 prvReadGp
00047c18 l     O .bss	00000004 lastContext
00000000 l    df *ABS*	00000000 alt_alarm_start.c
00000000 l    df *ABS*	00000000 alt_busy_sleep.c
00000000 l    df *ABS*	00000000 alt_close.c
0003c664 l     F .text	00000050 alt_get_errno
00000000 l    df *ABS*	00000000 alt_dcache_flush.c
00000000 l    df *ABS*	00000000 alt_dcache_flush_all.c
00000000 l    df *ABS*	00000000 alt_dev_llist_insert.c
0003c7bc l     F .text	00000050 alt_get_errno
00000000 l    df *ABS*	00000000 alt_errno.c
00000000 l    df *ABS*	00000000 alt_find_dev.c
00000000 l    df *ABS*	00000000 alt_find_file.c
00000000 l    df *ABS*	00000000 alt_flash_dev.c
00000000 l    df *ABS*	00000000 alt_get_fd.c
00000000 l    df *ABS*	00000000 alt_gettod.c
00000000 l    df *ABS*	00000000 alt_icache_flush_all.c
00000000 l    df *ABS*	00000000 alt_read.c
0003cee0 l     F .text	00000050 alt_get_errno
00000000 l    df *ABS*	00000000 alt_remap_uncached.c
00000000 l    df *ABS*	00000000 alt_tick.c
00000000 l    df *ABS*	00000000 alt_uncached_malloc.c
00000000 l    df *ABS*	00000000 alt_write.c
0003d280 l     F .text	00000050 alt_get_errno
00000000 l    df *ABS*	00000000 altera_tse_ethernetif.c
0003d3bc l     F .text	00000070 low_level_init
0003d42c l     F .text	00000170 low_level_input
00000000 l    df *ABS*	00000000 icmp.c
0003de9c l     F .text	000001c8 icmp_send_response
00000000 l    df *ABS*	00000000 inet_chksum.c
0003e064 l     F .text	00000248 lwip_standard_chksum
00000000 l    df *ABS*	00000000 altera_avalon_cfi_flash_amd.c
0003ec10 l     F .text	000000cc alt_write_word_amd
0003eaf4 l     F .text	0000011c alt_wait_for_command_to_complete_amd
00000000 l    df *ABS*	00000000 altera_avalon_cfi_flash_intel.c
0003eec4 l     F .text	0000017c alt_unlock_block_intel
0003f040 l     F .text	000000d4 alt_write_word_intel
00000000 l    df *ABS*	00000000 alt_icache_flush.c
00000000 l    df *ABS*	00000000 atexit.c
00000000 l    df *ABS*	00000000 ctype_.c
000433ad l     O .rodata	00000180 _ctype_b
00000000 l    df *ABS*	00000000 errno.c
00000000 l    df *ABS*	00000000 exit.c
00000000 l    df *ABS*	00000000 malloc.c
00000000 l    df *ABS*	00000000 memcmp.c
00000000 l    df *ABS*	00000000 snprintf.c
00000000 l    df *ABS*	00000000 strncpy.c
00000000 l    df *ABS*	00000000 __atexit.c
00000000 l    df *ABS*	00000000 __call_atexit.c
00000000 l    df *ABS*	00000000 alt_exit.c
00000000 l    df *ABS*	00000000 
00047c2c g     O .bss	00000004 alt_instruction_exception_handler
00016078 g     F .text	0000001c lwip_socket_init
000148f8 g     F .text	0000015c do_bind
00047b88 g     O .bss	00000004 current_iphdr_src
0003e6d4 g     F .text	00000044 inet_chksum
00024654 g     F .text	00000048 raw_bind
0000b1e4 g     F .text	00000074 _mprec_log10
00020d7c g     F .text	000005f0 ip_reass
000371a0 g     F .text	000000d8 alt_tse_get_mac_info
00023450 g     F .text	00000160 pbuf_realloc
00000500 g     F .text	000002b4 vStartBlockingQueueTasks
0000b2d4 g     F .text	00000084 __any_on
0000c248 g     F .text	00000064 _isatty_r
00040758 g     O .rodata	00000028 __mprec_tinytens
0000e30c g     F .text	000000e8 alt_main
000046a4 g     F .text	00000094 strcpy
00026da0 g     F .text	00000030 tcp_next_iss
0000e290 g     F .text	00000044 __ashldi3
000044b0 g     F .text	00000084 _puts_r
000321f0 g     F .text	00000040 alt_read_query_entry_32bit
00025528 g     F .text	000000f0 tcp_update_rcv_ann_wnd
0000c2ac g     F .text	0000006c _lseek_r
000000d8 g       .exceptions	00000000 restore_sp_from_pxCurrentTCB
00047bb4 g     O .bss	00000004 netif_list
000319a8 g     F .text	000002ac alt_flash_cfi_write
0001c484 g     F .text	0000004c dhcp_cleanup
0003ad60 g     F .text	000000f0 marvell_cfg_rgmii
0004577c g       *ABS*	00000000 __flash_rwdata_start
0003c200 g     F .text	00000064 enh_alt_irq_enable_all
0001a19c g     F .text	000000b8 print_ipad
0000d778 g     F .text	0000005c __eqdf2
0002da30 g     F .text	0000035c tcp_rst
000243b0 g     F .text	000000c8 pbuf_memfind
0003837c g     F .text	00000210 alt_tse_phy_print_profile
00047a94 g     O .bss	00000004 ulRegTest1Counter
0006b5fc g       *ABS*	00000000 __alt_heap_start
0003ab00 g     F .text	00000098 marvell_phy_cfg
0000f934 g     F .text	00000068 uxTaskPriorityGet
000111d4 g     F .text	000000ac xTimerCreate
0000192c g     F .text	00000044 xAreQueuePeekTasksStillRunning
0003149c g     F .text	00000074 etharp_request
0002f2f4 g     F .text	00000074 udp_send_chksum
000142d4 g     F .text	0000004c netconn_free
00004474 g     F .text	0000003c printf
0001c4d0 g     F .text	000001f0 dhcp_start
00035258 g     F .text	00000110 alt_avalon_sgdma_do_sync_transfer
00026a88 g     F .text	00000030 tcp_err
0004572c g     O .rwdata	00000004 ip_addr_any
0003e2ac g     F .text	000001f8 inet_chksum_pseudo
0001c86c g     F .text	000000a8 dhcp_network_changed
05000000 g       *ABS*	00000000 __alt_mem_sram
0000bca4 g     F .text	0000005c __sseek
0002fbdc g     F .text	0000009c udp_remove
000089bc g     F .text	0000010c __sinit
0000bdac g     F .text	0000013c __swbuf_r
0000f478 g     F .text	0000009c vQueueWaitForMessageRestricted
00062564 g     O .bss	00000c00 cDynamicPage
0001f308 g     F .text	000005b4 ip_output_if
00009788 g     F .text	0000009c _setlocale_r
00008948 g     F .text	00000064 __sfmoreglue
00022590 g     F .text	000000e0 memp_free
0000e454 g     F .text	00000044 __malloc_unlock
00019f70 g     F .text	00000034 lwip_set_status_callback
00023760 g     F .text	00000144 pbuf_free
00026a28 g     F .text	00000030 tcp_recv
00004738 g     F .text	00000664 strerror
00014720 g     F .text	000001d8 do_delconn
000373e4 g     F .text	00000a68 getPHYSpeed
00023950 g     F .text	000000d0 pbuf_cat
00003008 g     F .text	000000bc get_ip_addr
00001148 g     F .text	00000060 xAreGenericQueueTasksStillRunning
00035944 g     F .text	00000344 alt_avalon_sgdma_construct_descriptor_burst
00016b24 g     F .text	000004d4 lwip_recvfrom
0000a288 g     F .text	00000128 memmove
0001f8bc g     F .text	000000b4 ip_output
000304e8 g     F .text	000000a0 etharp_cleanup_netif
00001f50 g     F .text	00000068 xAreBlockTimeTestTasksStillRunning
0002f368 g     F .text	00000058 udp_sendto
000110d0 g     F .text	00000040 vTaskEnterCritical
00019be4 g     F .text	00000090 lwip_wait_for_an
000089ac g     F .text	00000010 _cleanup
0003f344 g     F .text	000000ac snprintf
0000eb0c g     F .text	000000cc xQueueGenericSendFromISR
0000a3b0 g     F .text	000000a8 _Balloc
0001fbd0 g     F .text	00000044 ipaddr_addr
0002e20c g     F .text	00000180 tcp_keepalive
0002fdcc g     F .text	00000174 etharp_tmr
00039d78 g     F .text	000001bc alt_tse_phy_set_adv_1000
00015b18 g     F .text	00000070 netbuf_delete
00045760 g     O .rwdata	00000001 max_mac_system
000267cc g     F .text	00000200 tcp_alloc
00036458 g     F .text	000009fc alt_tse_system_add_sys
0000d830 g     F .text	00000064 __gtdf2
0003f1b4 g     F .text	00000010 __errno
000197b4 g     F .text	00000070 tcpip_callbackmsg_new
00015b88 g     F .text	000000c4 netbuf_alloc
0002f478 g     F .text	00000060 udp_sendto_if
0003237c g     F .text	0000004c alt_write_flash_command_32bit_device_16bit_mode
05000000 g     F .entry	0000001c __reset
0000e7dc g     F .text	00000088 xQueueGiveMutexRecursive
000135c8 g     F .text	0000006c netconn_shutdown
000039dc g     F .text	000000cc vStartRecursiveMutexTasks
000269f8 g     F .text	00000030 tcp_arg
00047b0c g     O .bss	00000004 pxCurrentTCB
0002e824 g     F .text	00000074 sys_timeouts_init
00047bc6 g     O .bss	00000001 tcp_active_pcbs_changed
00019fd8  w    F .text	00000040 lwip_is_interface_up
0001b570 g     F .text	00000054 sys_mutex_free
00047bc8 g     O .bss	00000004 tcp_active_pcbs
000354b4 g     F .text	00000074 alt_avalon_sgdma_construct_stream_to_mem_desc_burst
00022e18 g     F .text	00000038 netif_set_link_callback
00000020 g       *ABS*	00000000 __flash_exceptions_start
00047c08 g     O .bss	00000004 udp_pcbs
0000c1e0 g     F .text	00000068 _fstat_r
000454b0 g     O .rwdata	00000240 tse_mac_device
00031e9c g     F .text	000002d8 alt_flash_program_block
00047af8 g     O .bss	00000004 errno
00031510 g     F .text	00000248 ethernet_input
00024e40 g     F .text	000000f0 tcp_shutdown
00013160 g     F .text	0000007c netconn_recved
0003a64c g     F .text	000004b4 alt_tse_phy_set_common_speed
000238f0 g     F .text	00000060 pbuf_ref
0000e2d4  w    F .text	0000001c pre_constructors
0006b42c g     O .bss	00000020 pmac_groups
00022b04 g     F .text	00000044 netif_set_netmask
0001b748 g     F .text	00000060 sys_mbox_trypost
00047b00 g     O .bss	00000004 alt_argv
0004d6f0 g       *ABS*	00000000 _gp
000265ec g     F .text	0000007c tcp_recv_null
00012430 g     F .text	00000108 usleep
00047b8c g     O .bss	00000004 current_netif
00013594 g     F .text	00000034 netconn_close
0002c55c g     F .text	000002ec tcp_enqueue_flags
00015aa4 g     F .text	00000074 netbuf_new
0000f99c g     F .text	00000194 vTaskPrioritySet
00047b08 g     O .bss	00000004 alt_heapsem
00024de4 g     F .text	0000005c tcp_close
00025618 g     F .text	000000a4 tcp_recved
0003d228 g     F .text	00000058 alt_uncached_malloc
00026b2c g     F .text	0000016c tcp_pcb_purge
00035f64 g     F .text	00000060 tse_mac_initTransInfo2
00019ad4 g     F .text	00000110 lwip_initialize
00043d6c g     O .rwdata	00000180 alt_fd_list
00012940 g     F .text	000000bc netconn_disconnect
00020014 g     F .text	0000003c ipaddr_ntoa
000030fc g     F .text	00000048 get_iface_name
00045736 g     O .rwdata	00000007 tcp_persist_backoff
0003c354 g     F .text	0000002c xPortStartScheduler
0003b9b4 g       .text	00000000 VIC_0_VECTOR_TABLE
0000fec8 g     F .text	00000030 vTaskEndScheduler
0003c8ac g     F .text	00000090 alt_find_dev
000041f0 g     F .text	000000f8 memcpy
00021a54 g     F .text	0000010c mem_free
000361d0 g     F .text	00000054 tse_mac_setMIImode
000104f4 g     F .text	00000090 vTaskPlaceOnEventList
000240d4 g     F .text	0000010c pbuf_fill_chksum
00003d08 g     F .text	0000009c xAreRecursiveMutexTasksStillRunning
00047bcc g     O .bss	00000004 tcp_ticks
00047bd0 g     O .bss	00000004 tcp_listen_pcbs
0000f514 g     F .text	000001f0 xTaskGenericCreate
00037e4c g     F .text	00000048 alt_tse_phy_rd_mdio_addr
0000fc14 g     F .text	0000006c xTaskIsTaskSuspended
0002f4d8 g     F .text	00000414 udp_sendto_if_chksum
0002dd8c g     F .text	000000b4 tcp_rexmit_rto
0000893c g     F .text	0000000c _cleanup_r
0000d954 g     F .text	000000d4 __floatsidf
00047a1c g     O .bss	00000004 xHighPriorityTask
00035fc4 g     F .text	000000e0 tse_mac_sTxWrite
00004434 g     F .text	00000014 perror
00011ce4 g     F .text	00000078 alt_io_redirect
000269cc g     F .text	0000002c tcp_new
0000d8f8 g     F .text	0000005c __ltdf2
00023d58 g     F .text	0000019c pbuf_copy_partial
0002fb50 g     F .text	0000004c udp_disconnect
0001b154 g     F .text	00000020 sys_init
0001b2f0 g     F .text	00000044 sys_sem_signal
0003f7b0 g       *ABS*	00000000 __DTOR_END__
0000e2f0  w    F .text	0000001c post_constructors
0003c6b4 g     F .text	000000c8 alt_close
0002e898 g     F .text	0000017c sys_timeout
00004534 g     F .text	00000014 puts
0003ce40 g     F .text	000000a0 alt_exception_cause_generated_bad_addr
0000e4d8 g     F .text	00000040 vPortFree
0001d390 g     F .text	000001a8 dhcp_release
00041430 g     O .rodata	0000002c tcp_state_str
0000b140 g     F .text	000000a4 __ratio
000248ac g     F .text	00000044 raw_send
0003e718 g     F .text	0000010c inet_chksum_pbuf
00023ef4 g     F .text	00000154 pbuf_take
000355a4 g     F .text	00000088 alt_avalon_sgdma_construct_mem_to_stream_desc_burst
00033c4c g     F .text	0000028c altera_avalon_jtag_uart_read
0003f1fc g     F .text	00000014 malloc
00004448 g     F .text	0000002c _printf_r
00047b90 g     O .bss	00000004 current_iphdr_dest
0000dd38 g     F .text	00000008 __udivsi3
00047b84 g     O .bss	00000000 tse
00011dac g     F .text	000000a0 isatty
00036e54 g     F .text	00000164 alt_tse_sys_enable_mdio_sharing
0003d864 g     F .text	000005b0 icmp_input
000407a8 g     O .rodata	000000c8 __mprec_tens
00037120 g     F .text	00000080 alt_tse_get_mac_info_index
00047a20 g     O .bss	00000004 xMediumPriorityTask
00010df4 g     F .text	00000060 uxTaskGetStackHighWaterMark
0002268c g     F .text	000000f0 netif_add
00009824 g     F .text	0000000c __locale_charset
00019858 g     F .text	00000044 tcpip_trycallback
00047c1c g     O .bss	00000008 alt_timezone
0001b420 g     F .text	000000bc sys_mutex_new
000264a8 g     F .text	00000050 tcp_segs_free
0003bf90 g     F .text	00000098 vListInsertEnd
0003f114 g     F .text	0000008c alt_icache_flush
00017094 g     F .text	00000140 lwip_send
00047af4 g     O .bss	00000004 __malloc_top_pad
0003c0fc g     F .text	00000090 vListRemove
00047b54 g     O .bss	00000004 alt_fd_list_lock
00045700 g     O .rwdata	00000004 __mb_cur_max
000025e8 g     F .text	00000120 vStartDynamicPriorityTasks
00009830 g     F .text	0000000c _localeconv_r
00019824 g     F .text	00000034 tcpip_callbackmsg_delete
0001f970 g     F .text	000000d0 ip_output_hinted
0002298c g     F .text	00000134 netif_set_ipaddr
0000a7b0 g     F .text	0000003c __i2b
00009144 g     F .text	000004e4 __sfvwrite_r
000356d0 g     F .text	00000058 alt_avalon_sgdma_stop
00037eec g     F .text	0000012c alt_tse_phy_wr_mdio_reg
0000bb64 g     F .text	00000064 _sbrk_r
0003ecdc g     F .text	00000080 alt_program_intel
0003858c g     F .text	0000069c alt_tse_mac_group_init
0002bc94 g     F .text	000008c8 tcp_write
0001a484 g     F .text	00000850 tse_mac_init
0000fd5c g     F .text	000000e4 xTaskResumeFromISR
00030588 g     F .text	000000c0 etharp_find_addr
0001b7a8 g     F .text	00000108 sys_arch_mbox_fetch
00018164 g     F .text	0000016c lwip_shutdown
00019f2c g     F .text	00000044 get_netif
0000c318 g     F .text	0000006c _read_r
0003bf68 g     F .text	00000028 vListInitialiseItem
0003c77c g     F .text	00000024 alt_dcache_flush
00043930 g     O .rwdata	0000000c __lc_ctype
00045720 g     O .rwdata	00000004 alt_max_fd
00032174 g     F .text	0000003c alt_read_query_entry_8bit
0003c39c g     F .text	00000034 vPortSysTickHandler
0000e078 g     F .text	00000104 __unpack_d
0000c090 g     F .text	0000013c _fclose_r
0003ed5c g     F .text	00000168 alt_erase_block_intel
000250c0 g     F .text	000001d0 tcp_bind
000088fc g     F .text	00000030 fflush
00047af0 g     O .bss	00000004 __malloc_max_sbrked_mem
0003de58 g     F .text	00000044 icmp_time_exceeded
0002508c g     F .text	00000034 tcp_abort
00012ac8 g     F .text	000001f0 netconn_accept
00021420 g     F .text	0000045c ip_frag
0000d22c g     F .text	00000054 __adddf3
00016a14 g     F .text	00000110 lwip_listen
0000aeb4 g     F .text	00000148 __b2d
0000c94c g     F .text	0000058c __umoddi3
00011f88 g     F .text	000000d0 lseek
00024724 g     F .text	00000188 raw_sendto
000380e4 g     F .text	00000298 alt_tse_phy_add_profile_default
000397e4 g     F .text	00000594 alt_tse_phy_get_cap
000456f8 g     O .rwdata	00000004 _global_impure_ptr
00015974 g     F .text	00000130 do_close
0003cf30 g     F .text	000000f0 alt_read
0000b504 g     F .text	000005fc _realloc_r
0006b5fc g       *ABS*	00000000 __bss_end
00035134 g     F .text	00000124 alt_avalon_sgdma_do_async_transfer
000008e4 g     F .text	00000128 xAreBlockingQueuesStillRunning
0003d124 g     F .text	00000104 alt_tick
000166c0 g     F .text	00000150 lwip_bind
0000c384 g     F .text	000005c8 __udivdi3
0001d538 g     F .text	000000b4 dhcp_stop
00039684 g     F .text	00000160 alt_tse_phy_check_link
00040780 g     O .rodata	00000028 __mprec_bigtens
0000a594 g     F .text	00000104 __s2b
000183dc g     F .text	00000044 lwip_getpeername
0000dafc g     F .text	0000011c __floatunsidf
0003ac7c g     F .text	000000e4 marvell_cfg_sgmii
00023afc g     F .text	0000025c pbuf_copy
000394c0 g     F .text	000001c4 alt_tse_phy_restart_an
0002de40 g     F .text	000002a8 tcp_rexmit
0000ac54 g     F .text	00000058 __mcmp
0000e498 g     F .text	00000040 pvPortMalloc
0003afd8 g     F .text	00000150 altera_avalon_uart_init
000013c0 g     F .text	00000048 xArePollingQueuesStillRunning
00015e84 g     F .text	000000f4 netbuf_data
00045778 g     O .rwdata	00000004 __ctype_ptr
00008bd4 g     F .text	00000018 __fp_lock_all
00012654 g     F .text	0000013c netconn_getaddr
0006b44c g     O .bss	00000020 pphy_profiles
0000ef74 g     F .text	00000040 vQueueDelete
0003c380 g     F .text	0000001c vPortEndScheduler
00022b70 g     F .text	000000ac netif_set_up
0003bf04 g     F .text	00000064 vListInitialise
0003d060 g     F .text	000000c4 alt_alarm_stop
00019fa4 g     F .text	00000034 lwip_set_link_callback
02001000 g       *ABS*	00000000 __alt_mem_descriptor_memory
000173c8 g     F .text	00000148 lwip_socket
0004146c g     O .rodata	00000010 tcp_pcb_lists
0001989c g     F .text	00000070 tcpip_init
00043d44 g     O .rwdata	00000028 alt_dev_null
0001006c g     F .text	00000048 xTaskGetTickCount
0000e95c g     F .text	000001b0 xQueueGenericSend
00003144 g     F .text	00000024 is_interface_active
0001fb0c g     F .text	000000c4 ip4_addr_netmask_valid
00047bd4 g     O .bss	00000004 tcp_tmp_pcb
00012868 g     F .text	000000d8 netconn_connect
000393a8 g     F .text	00000118 alt_tse_phy_init
0003267c g     F .text	0000009c alt_set_flash_algorithm_func
00035728 g     F .text	00000064 alt_avalon_sgdma_check_descriptor_status
000131dc g     F .text	00000080 netconn_sendto
0003c7a0 g     F .text	0000001c alt_dcache_flush_all
0000a698 g     F .text	00000068 __hi0bits
00000a0c g     F .text	0000010c vStartGenericQueueTasks
0001ae10 g     F .text	0000016c tse_mac_raw_send
0000da28 g     F .text	000000d4 __fixdfsi
0001ad7c g     F .text	00000094 tse_sgdma_rx_isr
00002308 g     F .text	0000008c xAreCountingSemaphoreTasksStillRunning
000219a0 g     F .text	000000b4 mem_init
0003d2d0 g     F .text	000000ec alt_write
0003bbb4 g       .text	00000000 alt_shadow_non_preemptive_interrupt
00032230 g     F .text	00000044 alt_write_flash_command_8bit_device_8bit_mode
0001689c g     F .text	00000178 lwip_connect
0002b520 g     F .text	00000134 tcp_send_fin
0004577c g       *ABS*	00000000 __ram_rwdata_end
0002c9d0 g     F .text	00000a9c tcp_output
00047b74 g     O .bss	00000004 tx_counter
00045718 g     O .rwdata	00000008 alt_dev_list
00008c04 g     F .text	00000044 _fputc_r
00021b60 g     F .text	00000308 mem_trim
00019a70 g     F .text	00000064 write
00035864 g     F .text	00000080 alt_avalon_sgdma_enable_desc_poll
0000b358 g     F .text	000000bc _putc_r
000105ec g     F .text	000000ec xTaskRemoveFromEventList
0000346c g     F .text	00000030 vApplicationMallocFailedHook
00043530 g       *ABS*	00000000 __ram_rodata_end
00015c4c g     F .text	00000088 netbuf_free
00011b78 g     F .text	000000ac fstat
0000e24c g     F .text	00000044 __lshrdi3
000129fc g     F .text	000000cc netconn_listen_with_backlog
00047bfc g     O .bss	00000004 tcp_input_pcb
0002451c g     F .text	00000138 raw_input
0003ae50 g     F .text	00000078 DP83848C_link_status_read
0002c848 g     F .text	00000188 tcp_send_empty_ack
0000460c g     F .text	00000098 strcat
000334d0 g     F .text	000000d4 alt_check_primary_table
0002e0e8 g     F .text	00000124 tcp_rexmit_fast
0001b1bc g     F .text	000000e0 sys_sem_new
0000a9cc g     F .text	0000012c __pow5mult
00047ae8 g     O .bss	00000004 __nlocale_changed
000196b8 g     F .text	0000008c tcpip_untimeout
0000dd40 g     F .text	00000008 __umodsi3
00031ce0 g     F .text	00000064 alt_flash_cfi_read
00032414 g     F .text	00000038 alt_write_native_8bit
00047a98 g     O .bss	00000004 ulRegTest2Counter
0001fc14 g     F .text	00000400 ipaddr_aton
0001fa40 g     F .text	000000cc ip4_addr_isbroadcast
00022b48 g     F .text	00000028 netif_set_default
00035528 g     F .text	0000007c alt_avalon_sgdma_construct_mem_to_stream_desc
0002fb9c g     F .text	00000040 udp_recv
0003562c g     F .text	00000050 alt_avalon_sgdma_register_callback
0006b5fc g       *ABS*	00000000 end
00032274 g     F .text	00000074 alt_write_flash_command_16bit_device_8bit_mode
00034934 g     F .text	0000052c altera_avalon_lcd_16207_write
0000f704 g     F .text	000000d8 vTaskDelete
0002eb04 g     F .text	00000118 sys_timeouts_mbox_fetch
00022c1c g     F .text	00000090 netif_set_down
00002560 g     F .text	00000088 xIsCreateTaskStillRunning
00047b78 g     O .bss	00000004 rx_counter
00022fa0 g     F .text	00000370 pbuf_alloc
00022ce4 g     F .text	000000c0 netif_set_link_up
0001b690 g     F .text	0000006c sys_mbox_free
0003b76c g     F .text	00000248 altera_avalon_uart_write
00036274 g     F .text	000001e4 alt_tse_phy_add_profile
00032798 g     F .text	000005c8 alt_read_cfi_table
00033708 g     F .text	00000140 altera_avalon_jtag_uart_init
000001b0 g     F .exceptions	00000074 alt_instruction_exception_entry
0003f7b0 g       *ABS*	00000000 __CTOR_LIST__
02000000 g       *ABS*	00000000 __alt_stack_pointer
000358e4 g     F .text	00000060 alt_avalon_sgdma_disable_desc_poll
000125f4 g     F .text	00000060 netconn_delete
00035eb0 g     F .text	00000088 alt_avalon_timer_sc_init
0003af28 g     F .text	00000060 altera_avalon_uart_write_fd
0000dda8 g     F .text	000000ac __clzsi2
0003f2a0 g     F .text	000000a4 _snprintf_r
0003af88 g     F .text	00000050 altera_avalon_uart_close_fd
00015f78 g     F .text	0000009c netbuf_next
000029ec g     F .text	000001d4 prvMySocketTest
00033ed8 g     F .text	00000298 altera_avalon_jtag_uart_write
00035368 g     F .text	00000070 alt_avalon_sgdma_construct_mem_to_mem_desc
00016014 g     F .text	00000064 netbuf_first
00031918 g     F .text	00000090 alt_flash_cfi_init
00008bc4 g     F .text	00000004 __sfp_lock_acquire
0000a190 g     F .text	000000f8 memchr
00045730 g     O .rwdata	00000004 ip_addr_broadcast
00004f60 g     F .text	00001df8 ___vfprintf_internal_r
000171d4 g     F .text	000001f4 lwip_sendto
00020200 g     F .text	0000009c ip_reass_tmr
00004548 g     F .text	00000058 _sprintf_r
00010710 g     F .text	000000e4 xTaskCheckForTimeOut
00035458 g     F .text	0000005c alt_avalon_sgdma_construct_stream_to_mem_desc
00008e74 g     F .text	000002d0 _free_r
0002fa48 g     F .text	00000108 udp_connect
0003f5d8 g     F .text	000001a0 __call_exitprocs
000141a8 g     F .text	0000012c netconn_alloc
00047b94 g     O .bss	00000004 current_header
000178e0 g     F .text	000004d4 lwip_select
00016ff8 g     F .text	0000004c lwip_read
00047b80 g     O .bss	00000004 rx_faulty_packets
00047ae4 g     O .bss	00000004 __mlocale_changed
0001af7c g     F .text	000001d8 tse_mac_rcv
0002277c g     F .text	00000058 netif_set_addr
0001c914 g     F .text	0000009c dhcp_arp_reply
00045704 g     O .rwdata	00000004 __malloc_sbrk_base
00000224 g     F .text	0000007c _start
00047c30 g     O .bss	00000004 _alt_tick_rate
0000fef8 g     F .text	00000028 vTaskSuspendAll
00024478 g     F .text	000000a4 pbuf_strstr
0003578c g     F .text	00000050 alt_avalon_sgdma_open
000100b4 g     F .text	0000002c xTaskGetTickCountFromISR
00004f24 g     F .text	00000008 _user_strerror
00002eec g     F .text	0000011c get_mac_addr
000223cc g     F .text	000001c4 memp_malloc
0000aaf8 g     F .text	0000015c __lshift
0002e38c g     F .text	000002c8 tcp_zero_window_probe
00047c34 g     O .bss	00000004 _alt_nticks
00038018 g     F .text	000000cc alt_tse_phy_rd_mdio_reg
00019a04 g     F .text	0000006c read
00015684 g     F .text	00000114 do_write
000317d0 g     F .text	00000110 alt_sys_init
0001bee8 g     F .text	000000bc dhcp_fine_tmr
00063170 g     O .bss	0000000a dhcp_rx_options_given
0003f4a8 g     F .text	00000130 __register_exitproc
000002a0 g     F .text	0000007c vBasicWEBServer
00011004 g     F .text	000000cc vTaskPriorityDisinherit
00047c0c g     O .bss	00000001 phy_profile_count
00004e28 g     F .text	000000fc strncmp
000370ac g     F .text	00000074 alt_tse_get_mac_group_index
000321b0 g     F .text	00000040 alt_read_query_entry_16bit
0003d020 g     F .text	00000040 alt_remap_uncached
00020050 g     F .text	000001b0 ipaddr_ntoa_r
0000a7ec g     F .text	000001e0 __multiply
00033af0 g     F .text	00000068 altera_avalon_jtag_uart_close
00010f08 g     F .text	000000fc vTaskPriorityInherit
00043530 g       *ABS*	00000000 __ram_rwdata_start
0003f7b0 g       *ABS*	00000000 __ram_rodata_start
0003f3f0 g     F .text	000000b8 strncpy
00047c50 g     O .bss	00000028 __malloc_current_mallinfo
00047bd8 g     O .bss	00000004 tcp_bound_pcbs
0000fc80 g     F .text	000000dc vTaskResume
000324b8 g     F .text	000001c4 alt_set_flash_width_func
0000affc g     F .text	00000144 __d2b
0001b29c g     F .text	00000054 sys_sem_free
000264f8 g     F .text	00000058 tcp_seg_free
000103c0 g     F .text	00000134 vTaskSwitchContext
00024290 g     F .text	00000120 pbuf_memcmp
00019980 g     F .text	0000003c mem_free_callback
00037e94 g     F .text	00000058 alt_tse_phy_wr_mdio_addr
000335a4 g     F .text	00000060 altera_avalon_jtag_uart_read_fd
0003cb08 g     F .text	0000010c alt_get_fd
00010584 g     F .text	00000068 vTaskPlaceOnEventListRestricted
00015798 g     F .text	000001dc do_getaddr
0003c53c g     F .text	00000128 alt_busy_sleep
00015dc8 g     F .text	000000bc netbuf_chain
0000e17c g     F .text	000000d0 __fpcmp_parts_d
00024a28 g     F .text	0000001c tcp_init
000257a4 g     F .text	00000390 tcp_connect
0003e4a4 g     F .text	00000230 inet_chksum_pseudo_partial
0000c02c g     F .text	00000064 _close_r
00021e68 g     F .text	00000330 mem_malloc
0003a324 g     F .text	00000328 alt_tse_phy_get_common_speed
0003e8e4 g     F .text	00000210 alt_erase_block_amd
0003f224 g     F .text	0000007c memcmp
00033664 g     F .text	00000050 altera_avalon_jtag_uart_close_fd
0006b5fc g       *ABS*	00000000 __alt_stack_base
000336b4 g     F .text	00000054 altera_avalon_jtag_uart_ioctl_fd
00047c0d g     O .bss	00000001 mac_group_count
00022da4 g     F .text	00000074 netif_set_link_down
0001cf34 g     F .text	0000015c dhcp_renew
00011280 g     F .text	000000d8 xTimerGenericCommand
00010860 g     F .text	00000040 vTaskSetTaskNumber
00014de0 g     F .text	00000080 do_disconnect
00006d7c g     F .text	00000174 __swsetup_r
00032d60 g     F .text	00000770 alt_read_cfi_width
00003430 g     F .text	0000003c vApplicationStackOverflowHook
0001acd4 g     F .text	000000a8 tse_sgdma_read_init
0000fb30 g     F .text	000000e4 vTaskSuspend
0000d5c4 g     F .text	000001b4 __divdf3
00008ac8 g     F .text	000000fc __sfp
0000b258 g     F .text	0000007c __copybits
000100e0 g     F .text	00000020 uxTaskGetNumberOfTasks
00000000         *UND*	00000000 save_context
00026dd0 g     F .text	0000008c tcp_eff_send_mss
0004393c g     O .rwdata	00000408 __malloc_av_
00008bd0 g     F .text	00000004 __sinit_lock_release
0001024c g     F .text	00000174 vTaskIncrementTick
00047b84 g     O .bss	00000000 eth_tse
0000d2e0 g     F .text	000002e4 __muldf3
0000bbc8 g     F .text	00000054 __sread
00038c28 g     F .text	00000418 alt_tse_mac_get_phy
0003c93c g     F .text	00000114 alt_find_file
00018b20 g     F .text	00000290 lwip_setsockopt
0003c80c g     F .text	000000a0 alt_dev_llist_insert
0000e3f4 g     F .text	00000060 __malloc_lock
00012328 g     F .text	00000108 sbrk
0000e864 g     F .text	000000a0 xQueueTakeMutexRecursive
0003567c g     F .text	00000054 alt_avalon_sgdma_start
0001c6c0 g     F .text	000001ac dhcp_inform
0000efb4 g     F .text	00000028 ucQueueGetQueueNumber
0001961c g     F .text	0000009c tcpip_timeout
00008714 g     F .text	000001e8 _fflush_r
00047a24 g     O .bss	00000004 xHighestPriorityTask
00037358 g     F .text	0000008c alt_tse_mac_set_duplex
0000bf70 g     F .text	000000bc _calloc_r
0002469c g     F .text	00000048 raw_connect
00012f44 g     F .text	00000074 netconn_recv_tcp_pbuf
00045768 g     O .rwdata	00000008 alt_flash_dev_list
00032334 g     F .text	00000048 alt_write_flash_command_16bit_device_16bit_mode
0003cc14 g     F .text	000001fc gettimeofday
0001b5c4 g     F .text	000000cc sys_mbox_new
0001a290 g     F .text	000001f4 lwip_initialize_phys
000479c8 g       *ABS*	00000000 __bss_start
00010100 g     F .text	0000014c vTaskList
00010818 g     F .text	00000048 uxTaskGetTaskNumber
000042e8 g     F .text	000000dc memset
00003314 g     F .text	0000011c main
00047b04 g     O .bss	00000004 alt_envp
00001970 g     F .text	0000009c vCreateBlockTimeTasks
00047aec g     O .bss	00000004 __malloc_max_total_mem
00033604 g     F .text	00000060 altera_avalon_jtag_uart_write_fd
0000bee8 g     F .text	0000001c __swbuf
0003c028 g     F .text	000000d4 vListInsert
0003de14 g     F .text	00000044 icmp_dest_unreach
00034f0c g     F .text	00000178 altera_avalon_lcd_16207_init
00045758 g     O .rwdata	00000008 alt_sgdma_list
00026a58 g     F .text	00000030 tcp_sent
0000bd00 g     F .text	00000008 __sclose
000241e0 g     F .text	000000b0 pbuf_get_at
02000000 g       *ABS*	00000000 __alt_heap_limit
0000c1cc g     F .text	00000014 fclose
00011168 g     F .text	0000006c xTimerCreateTimerTask
0006b46c g     O .bss	00000190 _atexit0
000070f8 g     F .text	0000161c _dtoa_r
0002498c g     F .text	00000080 raw_new
00009a0c g     F .text	00000784 _malloc_r
00036148 g     F .text	00000088 tse_mac_SwReset
00018420 g     F .text	00000044 lwip_getsockname
0000f010 g     F .text	00000028 ucQueueGetQueueType
0003d59c g     F .text	000000fc ethernetif_input
00045764 g     O .rwdata	00000004 alt_errno
0000f7dc g     F .text	000000e4 vTaskDelayUntil
000323c8 g     F .text	0000004c alt_write_flash_command_32bit_device_32bit_mode
00019944 g     F .text	0000003c pbuf_free_callback
00004138 g     F .text	000000b8 xAreSemaphoreTasksStillRunning
0003bec0 g     F .text	00000044 __env_unlock
00022cac g     F .text	00000038 netif_set_status_callback
00009628 g     F .text	000000a8 _fwalk
0001325c g     F .text	000000c8 netconn_send
0000ee24 g     F .text	000000d0 xQueueReceiveFromISR
00031d44 g     F .text	00000158 alt_write_value_to_flash
00012538 g     F .text	000000bc netconn_new_with_proto_and_callback
00010e94 g     F .text	00000028 xTaskGetCurrentTaskHandle
00013324 g     F .text	000001a4 netconn_write_partly
0003244c g     F .text	00000038 alt_write_native_16bit
0000b414 g     F .text	000000f0 putc
0000dc8c g     F .text	00000050 __divsi3
00036ff8 g     F .text	00000048 alt_tse_mac_set_common_speed
000248f0 g     F .text	0000009c raw_remove
04000000 g       *ABS*	00000000 __alt_mem_cfi_flash
0004087c g     O .rodata	00000014 __thenan_df
0000e638 g     F .text	000000cc xQueueGenericCreate
00008d38 g     F .text	0000013c _malloc_trim_r
0003f7b0 g       *ABS*	00000000 __CTOR_END__
00019ee4 g     F .text	00000048 get_mac_base
00047bbc g     O .bss	00000001 pbuf_free_ooseq_pending
0002f8ec g     F .text	0000015c udp_bind
00047c10 g     O .bss	00000004 alt_vic_dev_list
00024a44 g     F .text	00000048 tcp_tmr
00030eac g     F .text	000003b4 etharp_query
0000bd08 g     F .text	000000a4 strcmp
0001ec6c g     F .text	00000048 lwip_init
0000e904 g     F .text	00000058 xQueueCreateCountingSemaphore
0003f7b0 g       *ABS*	00000000 __flash_rodata_start
0001b91c g     F .text	00000088 sys_thread_new
0003f7b0 g       *ABS*	00000000 __DTOR_LIST__
00030bc0 g     F .text	000002ec etharp_output
00047a60 g     O .bss	00000004 xCreatedTask
0002f3c0 g     F .text	000000b8 udp_sendto_chksum
0000d7d4 g     F .text	0000005c __nedf2
0000efdc g     F .text	00000034 vQueueSetQueueNumber
00031790 g     F .text	00000040 alt_irq_init
00003168 g     F .text	00000088 vStartIntegerMathTasks
00036fb8 g     F .text	00000040 alt_tse_mac_get_common_speed
000122c8 g     F .text	00000060 alt_release_fd
00063164 g     O .bss	0000000b cPageHits
0000ff20 g     F .text	0000014c xTaskResumeAll
00019744 g     F .text	00000070 tcpip_apimsg
00023310 g     F .text	00000140 pbuf_alloced_custom
000045a0 g     F .text	0000006c sprintf
00022ac0 g     F .text	00000044 netif_set_gw
00040890 g     O .rodata	00000100 __clz_tab
0000fe40 g     F .text	00000088 vTaskStartScheduler
000238a4 g     F .text	0000004c pbuf_clen
00047ae0 g     O .bss	00000004 _PathLocale
0003f1a0 g     F .text	00000014 atexit
00019ec4 g     F .text	00000020 get_mac_count
0000bf04 g     F .text	0000006c _write_r
00026550 g     F .text	00000034 tcp_setprio
0002f2a0 g     F .text	00000054 udp_send
00018464 g     F .text	000002c0 lwip_getsockopt
0000983c g     F .text	0000001c setlocale
0000f438 g     F .text	00000040 xQueueIsQueueFullFromISR
00024048 g     F .text	0000008c pbuf_coalesce
00001408 g     F .text	00000100 vStartQueuePeekTasks
000246e4 g     F .text	00000040 raw_recv
00011a14 g     F .text	00000030 pvTimerGetTimerID
0001b52c g     F .text	00000044 sys_mutex_unlock
000227d4 g     F .text	000000d8 netif_remove
0001b4dc g     F .text	00000050 sys_mutex_lock
0001b334 g     F .text	000000ec sys_arch_sem_wait
000456fc g     O .rwdata	00000004 _impure_ptr
00047afc g     O .bss	00000004 alt_argc
00025b34 g     F .text	0000072c tcp_slowtmr
00011acc g     F .text	0000005c _do_dtors
00003298 g     F .text	0000007c xAreIntegerMathsTaskStillRunning
000011a8 g     F .text	0000009c vStartPolledQueueTasks
00001fb8 g     F .text	00000108 vStartCountingSemaphoreTasks
0003bbcc g     F .text	0000013c alt_vic_irq_init
0000ae54 g     F .text	00000060 __ulp
0000bb00 g     F .text	00000038 __isinfd
00026ab8 g     F .text	00000030 tcp_accept
00008bec g     F .text	00000018 __fp_unlock_all
00014e60 g     F .text	000001f8 do_listen
000107f4 g     F .text	00000024 vTaskMissedYield
00035084 g     F .text	00000060 altera_avalon_lcd_16207_write_fd
00008c48 g     F .text	00000060 fputc
0003d698 g     F .text	000001cc ethernetif_init
00045710 g     O .rwdata	00000008 alt_fs_list
000322e8 g     F .text	0000004c alt_write_flash_command_32bit_device_8bit_mode
0000eef4 g     F .text	00000050 uxQueueMessagesWaiting
0000ebd8 g     F .text	0000024c xQueueGenericReceive
00047c24 g     O .bss	00000008 alt_resettime
00000020 g       *ABS*	00000000 __ram_exceptions_start
00009858 g     F .text	0000000c localeconv
0001949c g     F .text	000000b0 tcpip_input
0a000000 g       *ABS*	00000000 __alt_mem_onchip_memory2
00047bdc g     O .bss	00000004 tcp_tw_pcbs
0003a17c g     F .text	000001a8 alt_tse_phy_set_adv_10
00002c20 g     F .text	00000048 InitNetwork
0003bd08 g     F .text	00000158 alt_ic_isr_register
0001b174 g     F .text	00000048 sys_now
0002ece4 g     F .text	000005bc udp_input
0000e518 g     F .text	00000120 xQueueGenericReset
0000349c g     F .text	0000001c _general_exception_handler
0004577c g       *ABS*	00000000 _edata
00002394 g     F .text	00000090 vCreateSuicidalTasks
0003aec8 g     F .text	00000060 altera_avalon_uart_read_fd
0006b5fc g       *ABS*	00000000 _end
0003ca50 g     F .text	00000068 alt_flash_open_dev
00039040 g     F .text	00000240 alt_tse_mac_associate_phy
00022670 g     F .text	0000001c netif_init
00000224 g       *ABS*	00000000 __ram_exceptions_end
00033b58 g     F .text	000000f4 altera_avalon_jtag_uart_ioctl
00008ca8 g     F .text	00000074 _fputs_r
0001ecb4 g     F .text	00000110 ip_route
000252c0 g     F .text	00000268 tcp_listen_with_backlog
0006b1b8 g     O .bss	00000274 lwip_stats
00015284 g     F .text	000000f8 do_recv
000235b0 g     F .text	000001b0 pbuf_header
000119b4 g     F .text	00000060 xTimerIsTimerActive
00047bb8 g     O .bss	00000004 netif_default
00026c98 g     F .text	00000108 tcp_pcb_remove
00047b7c g     O .bss	00000004 rx_missed_packets
000357dc g     F .text	00000088 alt_avalon_sgdma_construct_descriptor
0000bc1c g     F .text	00000088 __swrite
0003e824 g     F .text	00000058 lwip_chksum_copy
00045708 g     O .rwdata	00000004 __malloc_trim_threshold
00023a20 g     F .text	00000040 pbuf_chain
000043c4 g     F .text	00000070 _perror_r
00024f30 g     F .text	0000015c tcp_abandon
0003f1c4 g     F .text	00000038 exit
00026e5c g     F .text	0000003c tcp_debug_state_str
0002e6bc g     F .text	00000068 tcp_timer_needed
000096d0 g     F .text	000000b8 _fwalk_reent
00022210 g     F .text	000001bc memp_init
0001c43c g     F .text	00000048 dhcp_set_struct
00022198 g     F .text	00000078 mem_calloc
0000acac g     F .text	000001a8 __mdiff
00026260 g     F .text	000000f8 tcp_fasttmr
0003cab8 g     F .text	00000050 alt_flash_close_dev
0000dcdc g     F .text	0000005c __modsi3
00026358 g     F .text	00000150 tcp_process_refused_data
00036224 g     F .text	00000050 tse_mac_setGMIImode
0000f8c0 g     F .text	00000074 vTaskDelay
0003ab98 g     F .text	000000e4 marvell_cfg_gmii
02000000 g       *ABS*	00000000 __alt_data_end
00008bc8 g     F .text	00000004 __sfp_lock_release
00012790 g     F .text	000000d8 netconn_bind
00017510 g     F .text	00000044 lwip_write
00000000 g       *ABS*	00000000 __alt_mem_sdram
00039280 g     F .text	00000128 alt_tse_phy_cfg_pcs
0006317c g     O .bss	00000028 dhcp_rx_options_val
00010ebc g     F .text	0000004c xTaskGetSchedulerState
000432ac g     O .rodata	00000101 _ctype_
00017044 g     F .text	00000050 lwip_recv
00047a8c g     O .bss	00000004 xSuspendedTestQueue
0003b3d4 g     F .text	00000054 altera_avalon_uart_close
000190ec g     F .text	000000e4 lwip_ioctl
0003f778 g     F .text	00000038 _exit
0000bb38 g     F .text	0000002c __isnand
0001be34 g     F .text	000000b4 dhcp_coarse_tmr
0003c3d0 g     F .text	0000016c alt_alarm_start
00026584 g     F .text	00000068 tcp_seg_copy
0000dd48 g     F .text	00000060 __muldi3
00009864 g     F .text	000001a8 __smakebuf_r
00032484 g     F .text	00000034 alt_write_native_32bit
00011110 g     F .text	00000058 vTaskExitCritical
00026ae8 g     F .text	00000044 tcp_poll
00002984 g     F .text	00000068 xAreDynamicPriorityTasksStillRunning
00004d9c g     F .text	0000008c strlen
0003c264 g     F .text	000000f0 pxPortInitialiseStack
000191d0 g     F .text	0000010c lwip_fcntl
00012174 g     F .text	00000154 open
0002ec1c g     F .text	0000001c udp_init
000631a4 g     O .bss	00008014 ram_heap
0000d894 g     F .text	00000064 __gedf2
0002fc78 g     F .text	00000058 udp_new
00031c54 g     F .text	0000008c alt_flash_cfi_get_info
00016810 g     F .text	0000008c lwip_close
0003c1b4 g     F .text	0000004c enh_alt_irq_disable_all
000360a4 g     F .text	000000a4 tse_mac_aRxRead
0003ce10 g     F .text	00000030 alt_icache_flush_all
00015cd4 g     F .text	000000f4 netbuf_ref
00045746 g     O .rwdata	00000006 ethbroadcast
000106d8 g     F .text	00000038 vTaskSetTimeOutState
0004145c g     O .rodata	0000000d tcp_backoff
00008d1c g     F .text	0000001c fputs
0001b8b0 g     F .text	0000006c sys_arch_mbox_tryfetch
00006d58 g     F .text	00000024 __vfprintf_internal
0003b478 g     F .text	000002a4 altera_avalon_uart_read
0000ef44 g     F .text	00000030 uxQueueMessagesWaitingFromISR
000163c0 g     F .text	00000300 lwip_accept
0003be60 g     F .text	00000060 __env_lock
00012fb8 g     F .text	000001a8 netconn_recv
0000f3a0 g     F .text	00000038 xQueueIsQueueEmptyFromISR
0001414c g     F .text	0000005c do_newconn
00037278 g     F .text	000000e0 alt_tse_mac_set_speed
0001b6fc g     F .text	0000004c sys_mbox_post
000353d8 g     F .text	00000080 alt_avalon_sgdma_construct_mem_to_mem_desc_burst
0000d280 g     F .text	00000060 __subdf3
00003da4 g     F .text	000001fc vStartSemaphoreTasks
0000a700 g     F .text	000000b0 __lo0bits
00014ba8 g     F .text	00000238 do_connect
00045770 g     O .rwdata	00000008 alt_alarm_list
00011a70 g     F .text	0000005c _do_ctors
00039f34 g     F .text	00000248 alt_tse_phy_set_adv_100
0002ea14 g     F .text	000000f0 sys_untimeout
00026e98 g     F .text	00000e8c tcp_input
0000e704 g     F .text	000000d8 xQueueCreateMutex
000199bc g     F .text	00000048 close
0003e87c g     F .text	00000068 alt_program_amd
00047c14 g     O .bss	00000004 alt_envsem
0001edc4 g     F .text	00000544 ip_input
000030c4 g     F .text	00000038 get_hostname
00015058 g     F .text	0000022c do_send
00011eb8 g     F .text	00000080 alt_load
0004574c g     O .rwdata	00000006 ethzero
0000de54 g     F .text	00000224 __pack_d
00024a0c g     F .text	0000001c stats_init
00037040 g     F .text	0000006c alt_tse_get_system_index
00035d6c g     F .text	000000a4 alt_avalon_sgdma_init
000228ac g     F .text	000000e0 netif_find
0003f210 g     F .text	00000014 free
00008bcc g     F .text	00000004 __sinit_lock_acquire
00002e3c g     F .text	000000b0 xEthernetRun
0000a480 g     F .text	00000114 __multadd
0001954c g     F .text	000000d0 tcpip_callback_with_block
0000a458 g     F .text	00000028 _Bfree
00035f38 g     F .text	0000002c no_printf
00023a60 g     F .text	0000009c pbuf_dechain



Disassembly of section .entry:

05000000 <__reset>:
#if NIOS2_ICACHE_SIZE > 0 && defined(ALT_ALLOW_CODE_AT_RESET) && !defined(ALT_SIM_OPTIMIZE)
    /* Assume the instruction cache size is always a power of two. */
#if NIOS2_ICACHE_SIZE > 0x8000
    movhi r2, %hi(NIOS2_ICACHE_SIZE)
#else
    movui r2, NIOS2_ICACHE_SIZE
 5000000:	00840014 	movui	r2,4096
#endif

0:
    initi r2
 5000004:	1001483a 	initi	r2
    addi r2, r2, -NIOS2_ICACHE_LINE_SIZE
 5000008:	10bff804 	addi	r2,r2,-32
    bgt r2, zero, 0b
 500000c:	00bffd16 	blt	zero,r2,5000004 <__reset+0x4>
 * Jump to the _start entry point in the .text section if reset code
 * is allowed or if optimizing for RTL simulation.
 */
#if defined(ALT_ALLOW_CODE_AT_RESET) || defined(ALT_SIM_OPTIMIZE)
    /* Jump to the _start entry point in the .text section. */
    movhi r1, %hi(_start)
 5000010:	00400034 	movhi	at,0
    ori r1, r1, %lo(_start)
 5000014:	08408914 	ori	at,at,548
    jmp r1
 5000018:	0800683a 	jmp	at
 500001c:	00000000 	call	0 <__alt_mem_sdram>

Disassembly of section .exceptions:

00000020 <save_context>:
# Entry point for exceptions.
.section .exceptions.entry, "xa"

# Save the entire context of a task.
save_context:
	addi	ea, ea, -4			# Point to the next instruction.
  20:	ef7fff04 	addi	ea,ea,-4
	addi	sp,	sp, -120		# Create space on the stack.
  24:	deffe204 	addi	sp,sp,-120
	stw		ra, 0(sp)
  28:	dfc00015 	stw	ra,0(sp)
								# Leave a gap for muldiv 0
	stw		at, 8(sp)		 
  2c:	d8400215 	stw	at,8(sp)
	stw		r2, 12(sp)
  30:	d8800315 	stw	r2,12(sp)
	stw		r3, 16(sp)
  34:	d8c00415 	stw	r3,16(sp)
	stw		r4, 20(sp)
  38:	d9000515 	stw	r4,20(sp)
	stw		r5, 24(sp) 
  3c:	d9400615 	stw	r5,24(sp)
	stw		r6, 28(sp) 
  40:	d9800715 	stw	r6,28(sp)
	stw		r7, 32(sp) 
  44:	d9c00815 	stw	r7,32(sp)
	stw		r8, 36(sp) 
  48:	da000915 	stw	r8,36(sp)
	stw		r9, 40(sp) 
  4c:	da400a15 	stw	r9,40(sp)
	stw		r10, 44(sp)
  50:	da800b15 	stw	r10,44(sp)
	stw		r11, 48(sp)
  54:	dac00c15 	stw	r11,48(sp)
	stw		r12, 52(sp)
  58:	db000d15 	stw	r12,52(sp)
	stw		r13, 56(sp)
  5c:	db400e15 	stw	r13,56(sp)
	stw		r14, 60(sp)
  60:	db800f15 	stw	r14,60(sp)
	stw		r15, 64(sp)
  64:	dbc01015 	stw	r15,64(sp)
	rdctl	r5, estatus 		# Save the eStatus
  68:	000b307a 	rdctl	r5,estatus
	stw		r5, 68(sp)
  6c:	d9401115 	stw	r5,68(sp)
	stw		ea, 72(sp)			# Save the PC
  70:	df401215 	stw	ea,72(sp)
	stw		r16, 76(sp)			# Save the remaining registers
  74:	dc001315 	stw	r16,76(sp)
	stw		r17, 80(sp)
  78:	dc401415 	stw	r17,80(sp)
	stw		r18, 84(sp)
  7c:	dc801515 	stw	r18,84(sp)
	stw		r19, 88(sp)
  80:	dcc01615 	stw	r19,88(sp)
	stw		r20, 92(sp)
  84:	dd001715 	stw	r20,92(sp)
	stw		r21, 96(sp)
  88:	dd401815 	stw	r21,96(sp)
	stw		r22, 100(sp)
  8c:	dd801915 	stw	r22,100(sp)
	stw		r23, 104(sp)
  90:	ddc01a15 	stw	r23,104(sp)
	stw		gp, 108(sp)
  94:	de801b15 	stw	gp,108(sp)
	stw		fp, 112(sp)
  98:	df001c15 	stw	fp,112(sp)

	# preserve the errno
	call	__errno				# get the errno pointer
  9c:	003f1b40 	call	3f1b4 <__errno>
	ldw		r3, 0(r2)			# load the errno in r3
  a0:	10c00017 	ldw	r3,0(r2)
	stw		r3, 116(sp)			# store the errno on the stack
  a4:	d8c01d15 	stw	r3,116(sp)

000000a8 <save_sp_to_pxCurrentTCB>:

save_sp_to_pxCurrentTCB:
	call	xTaskGetSchedulerState			# Only save the stack if scheduler has been started
  a8:	0010ebc0 	call	10ebc <xTaskGetSchedulerState>
    beq		r2,	zero,	hw_irq_test			# If xTaskGetSchedulerState returns 0 it has not been started yet
  ac:	10000426 	beq	r2,zero,c0 <hw_irq_test>
  b0:	06000134 	movhi	et,4

	movia	et, pxCurrentTCB				# Load the address of the pxCurrentTCB pointer
  b4:	c61ec304 	addi	et,et,31500
	ldw		et, (et)						# Load the value of the pxCurrentTCB pointer
  b8:	c6000017 	ldw	et,0(et)
	stw		sp, (et)						# Store the stack pointer into the top of the TCB
  bc:	c6c00015 	stw	sp,0(et)

000000c0 <hw_irq_test>:
hw_irq_test:
	/*
     * Test to see if the exception was a software exception or caused 
     * by an external interrupt, and vector accordingly.
     */
    rdctl	r4, ipending					# Load the Pending Interrupts indication
  c0:	0009313a 	rdctl	r4,ipending
	rdctl	r5, estatus 					# Load the eStatus (enabled interrupts).
  c4:	000b307a 	rdctl	r5,estatus
    andi	r2, r5, 1						# Are interrupts enabled globally.
  c8:	2880004c 	andi	r2,r5,1
    beq		r2, zero, soft_exceptions		# Interrupts are not enabled.
  cc:	10002a26 	beq	r2,zero,178 <soft_exceptions>
    beq		r4, zero, soft_exceptions		# There are no interrupts triggered.
  d0:	20002926 	beq	r4,zero,178 <soft_exceptions>

000000d4 <hw_irq_handler>:

	.section .exceptions.irqhandler, "xa"
hw_irq_handler:
	call	alt_irq_handler					# Call the alt_irq_handler to deliver to the registered interrupt handler.
  d4:	00000d80 	call	d8 <restore_sp_from_pxCurrentTCB>

000000d8 <restore_sp_from_pxCurrentTCB>:
alt_irq_handler:
    .section .exceptions.irqreturn, "xa"
restore_sp_from_pxCurrentTCB:

	call	xTaskGetSchedulerState			# Only restore stack if scheduler has been started
  d8:	0010ebc0 	call	10ebc <xTaskGetSchedulerState>
    beq		r2,	zero,	restore_context		# If xTaskGetSchedulerState returns 0 it has not been started yet
  dc:	10000426 	beq	r2,zero,f0 <restore_context>
  e0:	06000134 	movhi	et,4

	movia	et, pxCurrentTCB				# Load the address of the pxCurrentTCB pointer
  e4:	c61ec304 	addi	et,et,31500
	ldw		et, (et)						# Load the value of the pxCurrentTCB pointer
  e8:	c6000017 	ldw	et,0(et)
	ldw		sp, (et)						# Load the stack pointer with the top value of the TCB
  ec:	c6c00017 	ldw	sp,0(et)

000000f0 <restore_context>:

restore_context:
	# preserve the errno
	call	__errno			# get the errno pointer
  f0:	003f1b40 	call	3f1b4 <__errno>
	ldw		r3, 116(sp)		# get errno from the stack
  f4:	d8c01d17 	ldw	r3,116(sp)
	stw		r3, 0(r2)		# restore the global errno for this task
  f8:	10c00015 	stw	r3,0(r2)

	ldw		ra, 0(sp)		# Restore the registers.
  fc:	dfc00017 	ldw	ra,0(sp)
							# Leave a gap for muldiv 0.
	ldw		at, 8(sp)
 100:	d8400217 	ldw	at,8(sp)

	ldw		r2, 12(sp)		# now restore r2 from the stack
 104:	d8800317 	ldw	r2,12(sp)
	ldw		r3, 16(sp)
 108:	d8c00417 	ldw	r3,16(sp)
	ldw		r4, 20(sp)
 10c:	d9000517 	ldw	r4,20(sp)
	ldw		r5, 24(sp) 
 110:	d9400617 	ldw	r5,24(sp)
	ldw		r6, 28(sp) 
 114:	d9800717 	ldw	r6,28(sp)
	ldw		r7, 32(sp) 
 118:	d9c00817 	ldw	r7,32(sp)
	ldw		r8, 36(sp) 
 11c:	da000917 	ldw	r8,36(sp)
	ldw		r9, 40(sp) 
 120:	da400a17 	ldw	r9,40(sp)
	ldw		r10, 44(sp)
 124:	da800b17 	ldw	r10,44(sp)
	ldw		r11, 48(sp)
 128:	dac00c17 	ldw	r11,48(sp)
	ldw		r12, 52(sp)
 12c:	db000d17 	ldw	r12,52(sp)
	ldw		r13, 56(sp)
 130:	db400e17 	ldw	r13,56(sp)
	ldw		r14, 60(sp)
 134:	db800f17 	ldw	r14,60(sp)
	ldw		r15, 64(sp)
 138:	dbc01017 	ldw	r15,64(sp)
	ldw		et, 68(sp)		# Load the eStatus
 13c:	de001117 	ldw	et,68(sp)
	wrctl	estatus, et 	# Write the eStatus
 140:	c001707a 	wrctl	estatus,et
	ldw		ea, 72(sp)		# Load the Program Counter
 144:	df401217 	ldw	ea,72(sp)
	ldw		r16, 76(sp)
 148:	dc001317 	ldw	r16,76(sp)
	ldw		r17, 80(sp)
 14c:	dc401417 	ldw	r17,80(sp)
	ldw		r18, 84(sp)
 150:	dc801517 	ldw	r18,84(sp)
	ldw		r19, 88(sp)
 154:	dcc01617 	ldw	r19,88(sp)
	ldw		r20, 92(sp)
 158:	dd001717 	ldw	r20,92(sp)
	ldw		r21, 96(sp)
 15c:	dd401817 	ldw	r21,96(sp)
	ldw		r22, 100(sp)
 160:	dd801917 	ldw	r22,100(sp)
	ldw		r23, 104(sp)
 164:	ddc01a17 	ldw	r23,104(sp)
	ldw		gp, 108(sp)
 168:	de801b17 	ldw	gp,108(sp)
	ldw		fp, 112(sp)
 16c:	df001c17 	ldw	fp,112(sp)
	addi	sp,	sp, 120		# Release stack space
 170:	dec01e04 	addi	sp,sp,120

    eret					# Return to address ea, loading eStatus into Status.
 174:	ef80083a 	eret

00000178 <soft_exceptions>:
   
	.section .exceptions.soft, "xa"
soft_exceptions:
	ldw		et, 0(ea)				# Load the instruction where the interrupt occured.
 178:	ee000017 	ldw	et,0(ea)
	movhi	at, %hi(0x003B683A)		# Load the registers with the trap instruction code
 17c:	00400ef4 	movhi	at,59
	ori		at, at, %lo(0x003B683A)
 180:	085a0e94 	ori	at,at,26682
   	cmpne	et, et, at				# Compare the trap instruction code to the last excuted instruction
 184:	c070c03a 	cmpne	et,et,at
  	beq		et, r0, call_scheduler	# its a trap so switchcontext
 188:	c0000326 	beq	et,zero,198 <call_scheduler>
#ifdef ALT_INCLUDE_INSTRUCTION_RELATED_EXCEPTION_API
  	mov		r4, ea									# load the PC of the exception into r4
 18c:	e809883a 	mov	r4,ea
  	call	alt_instruction_exception_entry			# call the invalid instruction parser and bring up the instruction in the callback
 190:	00001b00 	call	1b0 <alt_instruction_exception_entry>
#else
  	break							# This is an un-implemented instruction or muldiv problem.
#endif
  	br		restore_context			# its something else
 194:	003fd606 	br	f0 <restore_context>

00000198 <call_scheduler>:

call_scheduler:

	call	xTaskGetSchedulerState			# Only restore stack if scheduler has been started
 198:	0010ebc0 	call	10ebc <xTaskGetSchedulerState>
    beq		r2,	zero,	restore_context		# If xTaskGetSchedulerState returns 0 it has not been started yet
 19c:	103fd426 	beq	r2,zero,f0 <restore_context>

	addi	ea, ea, 4						# A trap was called, increment the program counter so it is not called again.
 1a0:	ef400104 	addi	ea,ea,4
	stw		ea, 72(sp)						# Save the new program counter to the context.
 1a4:	df401215 	stw	ea,72(sp)
	call	vTaskSwitchContext				# Pick the next context.
 1a8:	00103c00 	call	103c0 <vTaskSwitchContext>
	br		restore_sp_from_pxCurrentTCB	# Switch in the task context and restore.
 1ac:	003fca06 	br	d8 <restore_sp_from_pxCurrentTCB>

000001b0 <alt_instruction_exception_entry>:
 * that handler if it has been registered. Absent a handler, it will
 * break break or hang as discussed below.
 */
int 
alt_instruction_exception_entry (alt_u32 exception_pc)
{
 1b0:	defffb04 	addi	sp,sp,-20
 1b4:	dfc00415 	stw	ra,16(sp)
 1b8:	df000315 	stw	fp,12(sp)
 1bc:	df000304 	addi	fp,sp,12
 1c0:	e13fff15 	stw	r4,-4(fp)
 * NIOS2_EXCEPTION_CAUSE_NOT_PRESENT. Your handling routine should
 * check the validity of the cause argument before proceeding.
 */
#ifdef NIOS2_HAS_EXTRA_EXCEPTION_INFO
  /* Get exception cause & "badaddr" */
  NIOS2_READ_EXCEPTION(cause);
 1c4:	000531fa 	rdctl	r2,exception
 1c8:	e0bffd15 	stw	r2,-12(fp)
  cause = ( (cause & NIOS2_EXCEPTION_REG_CAUSE_MASK) >>
 1cc:	e0bffd17 	ldw	r2,-12(fp)
 1d0:	10801f0c 	andi	r2,r2,124
 1d4:	1004d0ba 	srli	r2,r2,2
 1d8:	e0bffd15 	stw	r2,-12(fp)
              NIOS2_EXCEPTION_REG_CAUSE_OFST );

  NIOS2_READ_BADADDR(badaddr);
 1dc:	0005333a 	rdctl	r2,badaddr
 1e0:	e0bffe15 	stw	r2,-8(fp)
#else
  cause = NIOS2_EXCEPTION_CAUSE_NOT_PRESENT;
  badaddr = 0;
#endif /* NIOS2_HAS_EXTRA_EXCEPTION_INFO */

  if(alt_instruction_exception_handler) {
 1e4:	d0a94f17 	ldw	r2,-23236(gp)
 1e8:	10000726 	beq	r2,zero,208 <alt_instruction_exception_entry+0x58>
     * Call handler. Its return value indicates whether the exception-causing
     * instruction should be re-issued. The code that called us,
     * alt_eceptions_entry.S, will look at this value and adjust the ea
     * register as necessary
     */
    return alt_instruction_exception_handler(cause, exception_pc, badaddr);
 1ec:	d0e94f17 	ldw	r3,-23236(gp)
 1f0:	e0bffd17 	ldw	r2,-12(fp)
 1f4:	1009883a 	mov	r4,r2
 1f8:	e17fff17 	ldw	r5,-4(fp)
 1fc:	e1bffe17 	ldw	r6,-8(fp)
 200:	183ee83a 	callr	r3
 204:	00000206 	br	210 <alt_instruction_exception_entry+0x60>
   *    (a peripheral which negates its interrupt output before its
   *    interrupt handler has been executed will cause spurious interrupts)
   */
  else {
#ifdef NIOS2_HAS_DEBUG_STUB
    NIOS2_BREAK();
 208:	003da03a 	break	0
      ;
#endif /* NIOS2_HAS_DEBUG_STUB */
  }

  /* We should not get here. Remove compiler warning. */
  return NIOS2_EXCEPTION_RETURN_REISSUE_INST;
 20c:	0005883a 	mov	r2,zero
}
 210:	e037883a 	mov	sp,fp
 214:	dfc00117 	ldw	ra,4(sp)
 218:	df000017 	ldw	fp,0(sp)
 21c:	dec00204 	addi	sp,sp,8
 220:	f800283a 	ret

Disassembly of section .text:

00000224 <_start>:
     * writing zero to SSTATUS register and executing an ERET instruction
     * to set STATUS.CRS to 0.
     */
    
    /* Get the current register set number (STATUS.CRS). */
    rdctl r2, status
     224:	0005303a 	rdctl	r2,status
    andi r2, r2, NIOS2_STATUS_CRS_MSK
     228:	10bf000c 	andi	r2,r2,64512
    
    /* Skip switching register set if STATUS.CRS is 0.  */
    beq r2, zero, 0f
     22c:	10000426 	beq	r2,zero,240 <_start+0x1c>

    /* Set SSTATUS to 0 to get to set SSTATUS.PRS to 0. */
    .set nobreak
    movui sstatus, 0
     230:	07800014 	movui	ba,0
    .set break

    /* Switch to register set 0 and jump to label. */
    movhi ea, %hi(0f)
     234:	07400034 	movhi	ea,0
    ori ea, ea, %lo(0f)
     238:	ef409014 	ori	ea,ea,576
    eret
     23c:	ef80083a 	eret

    /*
     * Now that the caches are initialized, set up the stack pointer and global pointer.
     * The values provided by the linker are assumed to be correctly aligned.
     */
    movhi sp, %hi(__alt_stack_pointer)
     240:	06c08034 	movhi	sp,512
    ori sp, sp, %lo(__alt_stack_pointer)
     244:	dec00014 	ori	sp,sp,0
    movhi gp, %hi(_gp)
     248:	06800134 	movhi	gp,4
    ori gp, gp, %lo(_gp)
     24c:	d6b5bc14 	ori	gp,gp,55024
    /* 
     * Setup registers in shadow register sets
     * from 1 to NIOS2_NUM_OF_SHADOW_REG_SETS.
     */

    movui r2, 0     /* Contains value written into STATUS */
     250:	00800014 	movui	r2,0
    movui r3, NIOS2_NUM_OF_SHADOW_REG_SETS  /* counter */
     254:	00c00054 	movui	r3,1
    movhi r4, 1     /* Constant to increment STATUS.PRS */
     258:	01000074 	movhi	r4,1
    
.Linitialize_shadow_registers:
    /* Increment STATUS.PRS */
    add r2, r2, r4
     25c:	1105883a 	add	r2,r2,r4
    wrctl status, r2
     260:	1001703a 	wrctl	status,r2

    /* Clear r0 in the shadow register set (not done by hardware) */
    wrprs r0, r0
     264:	0000a03a 	wrprs	zero,zero

    /* Write the GP in previous register set */
    wrprs gp, gp
     268:	d034a03a 	wrprs	gp,gp
    wrprs r30, r0    /* ba */
    wrprs r31, r0    /* ra */
#endif /* NIOS2_ECC_PRESENT */

    /* Decrement shadow register set counter */
    addi r3, r3, -1
     26c:	18ffffc4 	addi	r3,r3,-1

    /* Done if index is 0. */
    bne r3, zero, .Linitialize_shadow_registers
     270:	183ffa1e 	bne	r3,zero,25c <_start+0x38>
 */
#ifndef ALT_SIM_OPTIMIZE
    /* Log that the BSS is about to be cleared. */
    ALT_LOG_PUTS(alt_log_msg_bss)

    movhi r2, %hi(__bss_start)
     274:	00800134 	movhi	r2,4
    ori r2, r2, %lo(__bss_start)
     278:	109e7214 	ori	r2,r2,31176

    movhi r3, %hi(__bss_end)
     27c:	00c001b4 	movhi	r3,6
    ori r3, r3, %lo(__bss_end)
     280:	18ed7f14 	ori	r3,r3,46588

    beq r2, r3, 1f
     284:	10c00326 	beq	r2,r3,294 <_start+0x70>

0:
    stw zero, (r2)
     288:	10000015 	stw	zero,0(r2)
    addi r2, r2, 4
     28c:	10800104 	addi	r2,r2,4
    bltu r2, r3, 0b
     290:	10fffd36 	bltu	r2,r3,288 <_start+0x64>
     * section aren't defined until alt_load() has been called).
     */
    mov   et, zero
#endif

    call alt_load
     294:	0011eb80 	call	11eb8 <alt_load>

    /* Log that alt_main is about to be called. */
    ALT_LOG_PUTS(alt_log_msg_alt_main)

    /* Call the C entry point. It should never return. */
    call alt_main
     298:	000e30c0 	call	e30c <alt_main>

0000029c <alt_after_alt_main>:

    /* Wait in infinite loop in case alt_main does return. */
alt_after_alt_main:
    br alt_after_alt_main
     29c:	003fff06 	br	29c <alt_after_alt_main>

000002a0 <vBasicWEBServer>:
 *
 *  \param pvParameters   Input. Not Used.
 *
 */
portTASK_FUNCTION( vBasicWEBServer, pvParameters )
{
     2a0:	defffb04 	addi	sp,sp,-20
     2a4:	dfc00415 	stw	ra,16(sp)
     2a8:	df000315 	stw	fp,12(sp)
     2ac:	df000304 	addi	fp,sp,12
     2b0:	e13fff15 	stw	r4,-4(fp)
struct netconn *pxHTTPListener, *pxNewConnection;

	/* Create a new tcp connection handle */
	pxHTTPListener = netconn_new( NETCONN_TCP );
     2b4:	01000404 	movi	r4,16
     2b8:	000b883a 	mov	r5,zero
     2bc:	000d883a 	mov	r6,zero
     2c0:	00125380 	call	12538 <netconn_new_with_proto_and_callback>
     2c4:	e0bffd15 	stw	r2,-12(fp)
	netconn_bind(pxHTTPListener, NULL, webHTTP_PORT );
     2c8:	e13ffd17 	ldw	r4,-12(fp)
     2cc:	000b883a 	mov	r5,zero
     2d0:	01801404 	movi	r6,80
     2d4:	00127900 	call	12790 <netconn_bind>
	netconn_listen( pxHTTPListener );
     2d8:	e13ffd17 	ldw	r4,-12(fp)
     2dc:	01403fc4 	movi	r5,255
     2e0:	00129fc0 	call	129fc <netconn_listen_with_backlog>
     2e4:	00000106 	br	2ec <vBasicWEBServer+0x4c>
	for( ;; ) {
		/* Wait for a first connection. */
		if(netconn_accept(pxHTTPListener, &pxNewConnection) == ERR_OK) {
			prvweb_ParseHTMLRequest(pxNewConnection);
		}/* end if new connection */
	} /* end infinite loop */
     2e8:	0001883a 	nop
	netconn_listen( pxHTTPListener );

	/* Loop forever */
	for( ;; ) {
		/* Wait for a first connection. */
		if(netconn_accept(pxHTTPListener, &pxNewConnection) == ERR_OK) {
     2ec:	e0bffe04 	addi	r2,fp,-8
     2f0:	e13ffd17 	ldw	r4,-12(fp)
     2f4:	100b883a 	mov	r5,r2
     2f8:	0012ac80 	call	12ac8 <netconn_accept>
     2fc:	10803fcc 	andi	r2,r2,255
     300:	1080201c 	xori	r2,r2,128
     304:	10bfe004 	addi	r2,r2,-128
     308:	103ff71e 	bne	r2,zero,2e8 <vBasicWEBServer+0x48>
			prvweb_ParseHTMLRequest(pxNewConnection);
     30c:	e0bffe17 	ldw	r2,-8(fp)
     310:	1009883a 	mov	r4,r2
     314:	000031c0 	call	31c <prvweb_ParseHTMLRequest>
		}/* end if new connection */
	} /* end infinite loop */
     318:	003ff306 	br	2e8 <vBasicWEBServer+0x48>

0000031c <prvweb_ParseHTMLRequest>:
 *
 *  \param pxNetCon   Input. The netconn to use to send and receive data.
 *
 */
static void prvweb_ParseHTMLRequest( struct netconn *pxNetCon )
{
     31c:	defff904 	addi	sp,sp,-28
     320:	dfc00615 	stw	ra,24(sp)
     324:	df000515 	stw	fp,20(sp)
     328:	df000504 	addi	fp,sp,20
     32c:	e13fff15 	stw	r4,-4(fp)
portCHAR *pcRxString;
unsigned portSHORT usLength;
static unsigned portLONG ulPageHits = 0;

	/* We expect to immediately get data. */
	if(netconn_recv(pxNetCon, &pxRxBuffer) == ERR_OK)
     330:	e13fff17 	ldw	r4,-4(fp)
     334:	e17ffc04 	addi	r5,fp,-16
     338:	0012fb80 	call	12fb8 <netconn_recv>
     33c:	10803fcc 	andi	r2,r2,255
     340:	1080201c 	xori	r2,r2,128
     344:	10bfe004 	addi	r2,r2,-128
     348:	1000641e 	bne	r2,zero,4dc <prvweb_ParseHTMLRequest+0x1c0>
	{
		/* Where is the data? */
		netbuf_data( pxRxBuffer, ( void * ) &pcRxString, &usLength );
     34c:	e13ffc17 	ldw	r4,-16(fp)
     350:	e0fffd04 	addi	r3,fp,-12
     354:	e0bffe04 	addi	r2,fp,-8
     358:	180b883a 	mov	r5,r3
     35c:	100d883a 	mov	r6,r2
     360:	0015e840 	call	15e84 <netbuf_data>

		/* Is this a GET?  We don't handle anything else. */
		if( !strncmp( pcRxString, "GET", 3 ) )
     364:	e0bffd17 	ldw	r2,-12(fp)
     368:	1009883a 	mov	r4,r2
     36c:	01400134 	movhi	r5,4
     370:	297dec04 	addi	r5,r5,-2128
     374:	018000c4 	movi	r6,3
     378:	0004e280 	call	4e28 <strncmp>
     37c:	1000541e 	bne	r2,zero,4d0 <prvweb_ParseHTMLRequest+0x1b4>
		{
			pcRxString = cDynamicPage;
     380:	008001b4 	movhi	r2,6
     384:	10895904 	addi	r2,r2,9572
     388:	e0bffd15 	stw	r2,-12(fp)

			/* Update the hit count. */
			ulPageHits++;
     38c:	d0a8b617 	ldw	r2,-23848(gp)
     390:	10800044 	addi	r2,r2,1
     394:	d0a8b615 	stw	r2,-23848(gp)
			sprintf( cPageHits, "%d", (int)ulPageHits );
     398:	d0a8b617 	ldw	r2,-23848(gp)
     39c:	010001b4 	movhi	r4,6
     3a0:	210c5904 	addi	r4,r4,12644
     3a4:	01400134 	movhi	r5,4
     3a8:	297ded04 	addi	r5,r5,-2124
     3ac:	100d883a 	mov	r6,r2
     3b0:	00045a00 	call	45a0 <sprintf>

			/* Write out the HTTP OK header. */
			netconn_write( pxNetCon, webHTTP_OK, (u16_t) strlen( webHTTP_OK ), NETCONN_COPY );
     3b4:	d8000015 	stw	zero,0(sp)
     3b8:	e13fff17 	ldw	r4,-4(fp)
     3bc:	01400134 	movhi	r5,4
     3c0:	297dee04 	addi	r5,r5,-2120
     3c4:	01800b04 	movi	r6,44
     3c8:	01c00044 	movi	r7,1
     3cc:	00133240 	call	13324 <netconn_write_partly>

			/* Generate the dynamic page... First the page header. */
			strcpy( cDynamicPage, webHTML_START );
     3d0:	00c001b4 	movhi	r3,6
     3d4:	18c95904 	addi	r3,r3,9572
     3d8:	00800134 	movhi	r2,4
     3dc:	10bdfa04 	addi	r2,r2,-2072
     3e0:	1809883a 	mov	r4,r3
     3e4:	1007883a 	mov	r3,r2
     3e8:	00802444 	movi	r2,145
     3ec:	180b883a 	mov	r5,r3
     3f0:	100d883a 	mov	r6,r2
     3f4:	00041f00 	call	41f0 <memcpy>

			/* ... Then the hit count... */
			strcat( cDynamicPage, cPageHits );
     3f8:	010001b4 	movhi	r4,6
     3fc:	21095904 	addi	r4,r4,9572
     400:	014001b4 	movhi	r5,6
     404:	294c5904 	addi	r5,r5,12644
     408:	000460c0 	call	460c <strcat>
			strcat( cDynamicPage, "<p><pre>Task          State  Priority  Stack	#<br>************************************************<br>" );
     40c:	010001b4 	movhi	r4,6
     410:	21095904 	addi	r4,r4,9572
     414:	0004d9c0 	call	4d9c <strlen>
     418:	1007883a 	mov	r3,r2
     41c:	008001b4 	movhi	r2,6
     420:	10895904 	addi	r2,r2,9572
     424:	1887883a 	add	r3,r3,r2
     428:	00800134 	movhi	r2,4
     42c:	10be1f04 	addi	r2,r2,-1924
     430:	1809883a 	mov	r4,r3
     434:	1007883a 	mov	r3,r2
     438:	008019c4 	movi	r2,103
     43c:	180b883a 	mov	r5,r3
     440:	100d883a 	mov	r6,r2
     444:	00041f00 	call	41f0 <memcpy>

			/* ... Then the list of tasks and their status... */
			vTaskList( ( signed portCHAR * ) cDynamicPage + strlen( cDynamicPage ) );
     448:	010001b4 	movhi	r4,6
     44c:	21095904 	addi	r4,r4,9572
     450:	0004d9c0 	call	4d9c <strlen>
     454:	00c001b4 	movhi	r3,6
     458:	18c95904 	addi	r3,r3,9572
     45c:	10c5883a 	add	r2,r2,r3
     460:	1009883a 	mov	r4,r2
     464:	00101000 	call	10100 <vTaskList>

			/* ... Finally the page footer. */
			strcat( cDynamicPage, webHTML_END );
     468:	010001b4 	movhi	r4,6
     46c:	21095904 	addi	r4,r4,9572
     470:	0004d9c0 	call	4d9c <strlen>
     474:	1007883a 	mov	r3,r2
     478:	008001b4 	movhi	r2,6
     47c:	10895904 	addi	r2,r2,9572
     480:	1887883a 	add	r3,r3,r2
     484:	00800134 	movhi	r2,4
     488:	10be3904 	addi	r2,r2,-1820
     48c:	1809883a 	mov	r4,r3
     490:	1007883a 	mov	r3,r2
     494:	00800804 	movi	r2,32
     498:	180b883a 	mov	r5,r3
     49c:	100d883a 	mov	r6,r2
     4a0:	00041f00 	call	41f0 <memcpy>

			/* Write out the dynamically generated page. */
			netconn_write( pxNetCon, cDynamicPage, (u16_t) strlen( cDynamicPage ), NETCONN_COPY );
     4a4:	010001b4 	movhi	r4,6
     4a8:	21095904 	addi	r4,r4,9572
     4ac:	0004d9c0 	call	4d9c <strlen>
     4b0:	10bfffcc 	andi	r2,r2,65535
     4b4:	d8000015 	stw	zero,0(sp)
     4b8:	e13fff17 	ldw	r4,-4(fp)
     4bc:	014001b4 	movhi	r5,6
     4c0:	29495904 	addi	r5,r5,9572
     4c4:	100d883a 	mov	r6,r2
     4c8:	01c00044 	movi	r7,1
     4cc:	00133240 	call	13324 <netconn_write_partly>
		}
		netbuf_delete( pxRxBuffer );
     4d0:	e0bffc17 	ldw	r2,-16(fp)
     4d4:	1009883a 	mov	r4,r2
     4d8:	0015b180 	call	15b18 <netbuf_delete>
	}

	netconn_close( pxNetCon );
     4dc:	e13fff17 	ldw	r4,-4(fp)
     4e0:	00135940 	call	13594 <netconn_close>
	netconn_delete( pxNetCon );
     4e4:	e13fff17 	ldw	r4,-4(fp)
     4e8:	00125f40 	call	125f4 <netconn_delete>
}
     4ec:	e037883a 	mov	sp,fp
     4f0:	dfc00117 	ldw	ra,4(sp)
     4f4:	df000017 	ldw	fp,0(sp)
     4f8:	dec00204 	addi	sp,sp,8
     4fc:	f800283a 	ret

00000500 <vStartBlockingQueueTasks>:
static volatile short sBlockingProducerCount[ blckqNUM_TASK_SETS ] = { ( unsigned short ) 0, ( unsigned short ) 0, ( unsigned short ) 0 };

/*-----------------------------------------------------------*/

void vStartBlockingQueueTasks( unsigned portBASE_TYPE uxPriority )
{
     500:	deffef04 	addi	sp,sp,-68
     504:	dfc01015 	stw	ra,64(sp)
     508:	df000f15 	stw	fp,60(sp)
     50c:	df000f04 	addi	fp,sp,60
     510:	e13fff15 	stw	r4,-4(fp)
xBlockingQueueParameters *pxQueueParameters1, *pxQueueParameters2;
xBlockingQueueParameters *pxQueueParameters3, *pxQueueParameters4;
xBlockingQueueParameters *pxQueueParameters5, *pxQueueParameters6;
const unsigned portBASE_TYPE uxQueueSize1 = 1, uxQueueSize5 = 5;
     514:	00800044 	movi	r2,1
     518:	e0bff515 	stw	r2,-44(fp)
     51c:	00800144 	movi	r2,5
     520:	e0bff615 	stw	r2,-40(fp)
const portTickType xBlockTime = ( portTickType ) 1000 / portTICK_RATE_MS;
     524:	0080fa04 	movi	r2,1000
     528:	e0bff715 	stw	r2,-36(fp)
const portTickType xDontBlock = ( portTickType ) 0;
     52c:	e03ff815 	stw	zero,-32(fp)

	/* Create the first two tasks as described at the top of the file. */
	
	/* First create the structure used to pass parameters to the consumer tasks. */
	pxQueueParameters1 = ( xBlockingQueueParameters * ) pvPortMalloc( sizeof( xBlockingQueueParameters ) );
     530:	01000304 	movi	r4,12
     534:	000e4980 	call	e498 <pvPortMalloc>
     538:	e0bff915 	stw	r2,-28(fp)

	/* Create the queue used by the first two tasks to pass the incrementing number.
	Pass a pointer to the queue in the parameter structure. */
	pxQueueParameters1->xQueue = xQueueCreate( uxQueueSize1, ( unsigned portBASE_TYPE ) sizeof( unsigned short ) );
     53c:	e13ff517 	ldw	r4,-44(fp)
     540:	01400084 	movi	r5,2
     544:	000d883a 	mov	r6,zero
     548:	000e6380 	call	e638 <xQueueGenericCreate>
     54c:	e0fff917 	ldw	r3,-28(fp)
     550:	18800015 	stw	r2,0(r3)

	/* The consumer is created first so gets a block time as described above. */
	pxQueueParameters1->xBlockTime = xBlockTime;
     554:	e0bff917 	ldw	r2,-28(fp)
     558:	e0fff717 	ldw	r3,-36(fp)
     55c:	10c00115 	stw	r3,4(r2)

	/* Pass in the variable that this task is going to increment so we can check it
	is still running. */
	pxQueueParameters1->psCheckVariable = &( sBlockingConsumerCount[ 0 ] );
     560:	e0bff917 	ldw	r2,-28(fp)
     564:	d0e8b704 	addi	r3,gp,-23844
     568:	10c00215 	stw	r3,8(r2)
		
	/* Create the structure used to pass parameters to the producer task. */
	pxQueueParameters2 = ( xBlockingQueueParameters * ) pvPortMalloc( sizeof( xBlockingQueueParameters ) );
     56c:	01000304 	movi	r4,12
     570:	000e4980 	call	e498 <pvPortMalloc>
     574:	e0bffa15 	stw	r2,-24(fp)

	/* Pass the queue to this task also, using the parameter structure. */
	pxQueueParameters2->xQueue = pxQueueParameters1->xQueue;
     578:	e0bff917 	ldw	r2,-28(fp)
     57c:	10c00017 	ldw	r3,0(r2)
     580:	e0bffa17 	ldw	r2,-24(fp)
     584:	10c00015 	stw	r3,0(r2)

	/* The producer is not going to block - as soon as it posts the consumer will
	wake and remove the item so the producer should always have room to post. */
	pxQueueParameters2->xBlockTime = xDontBlock;
     588:	e0bffa17 	ldw	r2,-24(fp)
     58c:	e0fff817 	ldw	r3,-32(fp)
     590:	10c00115 	stw	r3,4(r2)

	/* Pass in the variable that this task is going to increment so we can check
	it is still running. */
	pxQueueParameters2->psCheckVariable = &( sBlockingProducerCount[ 0 ] );
     594:	e0bffa17 	ldw	r2,-24(fp)
     598:	d0e8b884 	addi	r3,gp,-23838
     59c:	10c00215 	stw	r3,8(r2)


	/* Note the producer has a lower priority than the consumer when the tasks are
	spawned. */
	xTaskCreate( vBlockingQueueConsumer, ( signed char * ) "QConsB1", blckqSTACK_SIZE, ( void * ) pxQueueParameters1, uxPriority, NULL );
     5a0:	e0bfff17 	ldw	r2,-4(fp)
     5a4:	d8800015 	stw	r2,0(sp)
     5a8:	d8000115 	stw	zero,4(sp)
     5ac:	d8000215 	stw	zero,8(sp)
     5b0:	d8000315 	stw	zero,12(sp)
     5b4:	01000034 	movhi	r4,0
     5b8:	21020f04 	addi	r4,r4,2108
     5bc:	01400134 	movhi	r5,4
     5c0:	297e4104 	addi	r5,r5,-1788
     5c4:	018c9604 	movi	r6,12888
     5c8:	e1fff917 	ldw	r7,-28(fp)
     5cc:	000f5140 	call	f514 <xTaskGenericCreate>
	xTaskCreate( vBlockingQueueProducer, ( signed char * ) "QProdB2", blckqSTACK_SIZE, ( void * ) pxQueueParameters2, tskIDLE_PRIORITY, NULL );
     5d0:	d8000015 	stw	zero,0(sp)
     5d4:	d8000115 	stw	zero,4(sp)
     5d8:	d8000215 	stw	zero,8(sp)
     5dc:	d8000315 	stw	zero,12(sp)
     5e0:	01000034 	movhi	r4,0
     5e4:	2101ed04 	addi	r4,r4,1972
     5e8:	01400134 	movhi	r5,4
     5ec:	297e4304 	addi	r5,r5,-1780
     5f0:	018c9604 	movi	r6,12888
     5f4:	e1fffa17 	ldw	r7,-24(fp)
     5f8:	000f5140 	call	f514 <xTaskGenericCreate>
	

	/* Create the second two tasks as described at the top of the file.   This uses
	the same mechanism but reverses the task priorities. */

	pxQueueParameters3 = ( xBlockingQueueParameters * ) pvPortMalloc( sizeof( xBlockingQueueParameters ) );
     5fc:	01000304 	movi	r4,12
     600:	000e4980 	call	e498 <pvPortMalloc>
     604:	e0bffb15 	stw	r2,-20(fp)
	pxQueueParameters3->xQueue = xQueueCreate( uxQueueSize1, ( unsigned portBASE_TYPE ) sizeof( unsigned short ) );
     608:	e13ff517 	ldw	r4,-44(fp)
     60c:	01400084 	movi	r5,2
     610:	000d883a 	mov	r6,zero
     614:	000e6380 	call	e638 <xQueueGenericCreate>
     618:	e0fffb17 	ldw	r3,-20(fp)
     61c:	18800015 	stw	r2,0(r3)
	pxQueueParameters3->xBlockTime = xDontBlock;
     620:	e0bffb17 	ldw	r2,-20(fp)
     624:	e0fff817 	ldw	r3,-32(fp)
     628:	10c00115 	stw	r3,4(r2)
	pxQueueParameters3->psCheckVariable = &( sBlockingProducerCount[ 1 ] );
     62c:	e0bffb17 	ldw	r2,-20(fp)
     630:	00c00134 	movhi	r3,4
     634:	18de7504 	addi	r3,r3,31188
     638:	10c00215 	stw	r3,8(r2)

	pxQueueParameters4 = ( xBlockingQueueParameters * ) pvPortMalloc( sizeof( xBlockingQueueParameters ) );
     63c:	01000304 	movi	r4,12
     640:	000e4980 	call	e498 <pvPortMalloc>
     644:	e0bffc15 	stw	r2,-16(fp)
	pxQueueParameters4->xQueue = pxQueueParameters3->xQueue;
     648:	e0bffb17 	ldw	r2,-20(fp)
     64c:	10c00017 	ldw	r3,0(r2)
     650:	e0bffc17 	ldw	r2,-16(fp)
     654:	10c00015 	stw	r3,0(r2)
	pxQueueParameters4->xBlockTime = xBlockTime;
     658:	e0bffc17 	ldw	r2,-16(fp)
     65c:	e0fff717 	ldw	r3,-36(fp)
     660:	10c00115 	stw	r3,4(r2)
	pxQueueParameters4->psCheckVariable = &( sBlockingConsumerCount[ 1 ] );
     664:	e0bffc17 	ldw	r2,-16(fp)
     668:	00c00134 	movhi	r3,4
     66c:	18de7384 	addi	r3,r3,31182
     670:	10c00215 	stw	r3,8(r2)

	xTaskCreate( vBlockingQueueConsumer, ( signed char * ) "QConsB3", blckqSTACK_SIZE, ( void * ) pxQueueParameters3, tskIDLE_PRIORITY, NULL );
     674:	d8000015 	stw	zero,0(sp)
     678:	d8000115 	stw	zero,4(sp)
     67c:	d8000215 	stw	zero,8(sp)
     680:	d8000315 	stw	zero,12(sp)
     684:	01000034 	movhi	r4,0
     688:	21020f04 	addi	r4,r4,2108
     68c:	01400134 	movhi	r5,4
     690:	297e4504 	addi	r5,r5,-1772
     694:	018c9604 	movi	r6,12888
     698:	e1fffb17 	ldw	r7,-20(fp)
     69c:	000f5140 	call	f514 <xTaskGenericCreate>
	xTaskCreate( vBlockingQueueProducer, ( signed char * ) "QProdB4", blckqSTACK_SIZE, ( void * ) pxQueueParameters4, uxPriority, NULL );
     6a0:	e0bfff17 	ldw	r2,-4(fp)
     6a4:	d8800015 	stw	r2,0(sp)
     6a8:	d8000115 	stw	zero,4(sp)
     6ac:	d8000215 	stw	zero,8(sp)
     6b0:	d8000315 	stw	zero,12(sp)
     6b4:	01000034 	movhi	r4,0
     6b8:	2101ed04 	addi	r4,r4,1972
     6bc:	01400134 	movhi	r5,4
     6c0:	297e4704 	addi	r5,r5,-1764
     6c4:	018c9604 	movi	r6,12888
     6c8:	e1fffc17 	ldw	r7,-16(fp)
     6cc:	000f5140 	call	f514 <xTaskGenericCreate>



	/* Create the last two tasks as described above.  The mechanism is again just
	the same.  This time both parameter structures are given a block time. */
	pxQueueParameters5 = ( xBlockingQueueParameters * ) pvPortMalloc( sizeof( xBlockingQueueParameters ) );
     6d0:	01000304 	movi	r4,12
     6d4:	000e4980 	call	e498 <pvPortMalloc>
     6d8:	e0bffd15 	stw	r2,-12(fp)
	pxQueueParameters5->xQueue = xQueueCreate( uxQueueSize5, ( unsigned portBASE_TYPE ) sizeof( unsigned short ) );
     6dc:	e13ff617 	ldw	r4,-40(fp)
     6e0:	01400084 	movi	r5,2
     6e4:	000d883a 	mov	r6,zero
     6e8:	000e6380 	call	e638 <xQueueGenericCreate>
     6ec:	e0fffd17 	ldw	r3,-12(fp)
     6f0:	18800015 	stw	r2,0(r3)
	pxQueueParameters5->xBlockTime = xBlockTime;
     6f4:	e0bffd17 	ldw	r2,-12(fp)
     6f8:	e0fff717 	ldw	r3,-36(fp)
     6fc:	10c00115 	stw	r3,4(r2)
	pxQueueParameters5->psCheckVariable = &( sBlockingProducerCount[ 2 ] );
     700:	e0bffd17 	ldw	r2,-12(fp)
     704:	00c00134 	movhi	r3,4
     708:	18de7584 	addi	r3,r3,31190
     70c:	10c00215 	stw	r3,8(r2)

	pxQueueParameters6 = ( xBlockingQueueParameters * ) pvPortMalloc( sizeof( xBlockingQueueParameters ) );
     710:	01000304 	movi	r4,12
     714:	000e4980 	call	e498 <pvPortMalloc>
     718:	e0bffe15 	stw	r2,-8(fp)
	pxQueueParameters6->xQueue = pxQueueParameters5->xQueue;
     71c:	e0bffd17 	ldw	r2,-12(fp)
     720:	10c00017 	ldw	r3,0(r2)
     724:	e0bffe17 	ldw	r2,-8(fp)
     728:	10c00015 	stw	r3,0(r2)
	pxQueueParameters6->xBlockTime = xBlockTime;
     72c:	e0bffe17 	ldw	r2,-8(fp)
     730:	e0fff717 	ldw	r3,-36(fp)
     734:	10c00115 	stw	r3,4(r2)
	pxQueueParameters6->psCheckVariable = &( sBlockingConsumerCount[ 2 ] );	
     738:	e0bffe17 	ldw	r2,-8(fp)
     73c:	00c00134 	movhi	r3,4
     740:	18de7404 	addi	r3,r3,31184
     744:	10c00215 	stw	r3,8(r2)

	xTaskCreate( vBlockingQueueProducer, ( signed char * ) "QProdB5", blckqSTACK_SIZE, ( void * ) pxQueueParameters5, tskIDLE_PRIORITY, NULL );
     748:	d8000015 	stw	zero,0(sp)
     74c:	d8000115 	stw	zero,4(sp)
     750:	d8000215 	stw	zero,8(sp)
     754:	d8000315 	stw	zero,12(sp)
     758:	01000034 	movhi	r4,0
     75c:	2101ed04 	addi	r4,r4,1972
     760:	01400134 	movhi	r5,4
     764:	297e4904 	addi	r5,r5,-1756
     768:	018c9604 	movi	r6,12888
     76c:	e1fffd17 	ldw	r7,-12(fp)
     770:	000f5140 	call	f514 <xTaskGenericCreate>
	xTaskCreate( vBlockingQueueConsumer, ( signed char * ) "QConsB6", blckqSTACK_SIZE, ( void * ) pxQueueParameters6, tskIDLE_PRIORITY, NULL );
     774:	d8000015 	stw	zero,0(sp)
     778:	d8000115 	stw	zero,4(sp)
     77c:	d8000215 	stw	zero,8(sp)
     780:	d8000315 	stw	zero,12(sp)
     784:	01000034 	movhi	r4,0
     788:	21020f04 	addi	r4,r4,2108
     78c:	01400134 	movhi	r5,4
     790:	297e4b04 	addi	r5,r5,-1748
     794:	018c9604 	movi	r6,12888
     798:	e1fffe17 	ldw	r7,-8(fp)
     79c:	000f5140 	call	f514 <xTaskGenericCreate>
}
     7a0:	e037883a 	mov	sp,fp
     7a4:	dfc00117 	ldw	ra,4(sp)
     7a8:	df000017 	ldw	fp,0(sp)
     7ac:	dec00204 	addi	sp,sp,8
     7b0:	f800283a 	ret

000007b4 <vBlockingQueueProducer>:
/*-----------------------------------------------------------*/

static portTASK_FUNCTION( vBlockingQueueProducer, pvParameters )
{
     7b4:	defffa04 	addi	sp,sp,-24
     7b8:	dfc00515 	stw	ra,20(sp)
     7bc:	df000415 	stw	fp,16(sp)
     7c0:	df000404 	addi	fp,sp,16
     7c4:	e13fff15 	stw	r4,-4(fp)
unsigned short usValue = 0;
     7c8:	e03ffe0d 	sth	zero,-8(fp)
xBlockingQueueParameters *pxQueueParameters;
short sErrorEverOccurred = pdFALSE;
     7cc:	e03ffc0d 	sth	zero,-16(fp)

	pxQueueParameters = ( xBlockingQueueParameters * ) pvParameters;
     7d0:	e0bfff17 	ldw	r2,-4(fp)
     7d4:	e0bffd15 	stw	r2,-12(fp)

	for( ;; )
	{		
		if( xQueueSend( pxQueueParameters->xQueue, ( void * ) &usValue, pxQueueParameters->xBlockTime ) != pdPASS )
     7d8:	e0bffd17 	ldw	r2,-12(fp)
     7dc:	11000017 	ldw	r4,0(r2)
     7e0:	e0bffd17 	ldw	r2,-12(fp)
     7e4:	10800117 	ldw	r2,4(r2)
     7e8:	e0fffe04 	addi	r3,fp,-8
     7ec:	180b883a 	mov	r5,r3
     7f0:	100d883a 	mov	r6,r2
     7f4:	000f883a 	mov	r7,zero
     7f8:	000e95c0 	call	e95c <xQueueGenericSend>
     7fc:	10800060 	cmpeqi	r2,r2,1
     800:	1000031e 	bne	r2,zero,810 <vBlockingQueueProducer+0x5c>
		{
			sErrorEverOccurred = pdTRUE;
     804:	00800044 	movi	r2,1
     808:	e0bffc0d 	sth	r2,-16(fp)

			/* Increment the variable we are going to post next time round.  The
			consumer will expect the numbers to	follow in numerical order. */
			++usValue;
		}
	}
     80c:	003ff206 	br	7d8 <vBlockingQueueProducer+0x24>
		}
		else
		{
			/* We have successfully posted a message, so increment the variable
			used to check we are still running. */
			if( sErrorEverOccurred == pdFALSE )
     810:	e0bffc0f 	ldh	r2,-16(fp)
     814:	1000051e 	bne	r2,zero,82c <vBlockingQueueProducer+0x78>
			{
				( *pxQueueParameters->psCheckVariable )++;
     818:	e0bffd17 	ldw	r2,-12(fp)
     81c:	10800217 	ldw	r2,8(r2)
     820:	10c0000b 	ldhu	r3,0(r2)
     824:	18c00044 	addi	r3,r3,1
     828:	10c0000d 	sth	r3,0(r2)
			}

			/* Increment the variable we are going to post next time round.  The
			consumer will expect the numbers to	follow in numerical order. */
			++usValue;
     82c:	e0bffe0b 	ldhu	r2,-8(fp)
     830:	10800044 	addi	r2,r2,1
     834:	e0bffe0d 	sth	r2,-8(fp)
		}
	}
     838:	003fe706 	br	7d8 <vBlockingQueueProducer+0x24>

0000083c <vBlockingQueueConsumer>:
}
/*-----------------------------------------------------------*/

static portTASK_FUNCTION( vBlockingQueueConsumer, pvParameters )
{
     83c:	defffa04 	addi	sp,sp,-24
     840:	dfc00515 	stw	ra,20(sp)
     844:	df000415 	stw	fp,16(sp)
     848:	df000404 	addi	fp,sp,16
     84c:	e13fff15 	stw	r4,-4(fp)
unsigned short usData, usExpectedValue = 0;
     850:	e03ffc0d 	sth	zero,-16(fp)
xBlockingQueueParameters *pxQueueParameters;
short sErrorEverOccurred = pdFALSE;
     854:	e03ffc8d 	sth	zero,-14(fp)

	pxQueueParameters = ( xBlockingQueueParameters * ) pvParameters;
     858:	e0bfff17 	ldw	r2,-4(fp)
     85c:	e0bffd15 	stw	r2,-12(fp)
     860:	00000106 	br	868 <vBlockingQueueConsumer+0x2c>
				/* Increment the value we expect to remove from the queue next time
				round. */
				++usExpectedValue;
			}			
		}		
	}
     864:	0001883a 	nop

	pxQueueParameters = ( xBlockingQueueParameters * ) pvParameters;

	for( ;; )
	{	
		if( xQueueReceive( pxQueueParameters->xQueue, &usData, pxQueueParameters->xBlockTime ) == pdPASS )
     868:	e0bffd17 	ldw	r2,-12(fp)
     86c:	11000017 	ldw	r4,0(r2)
     870:	e0bffd17 	ldw	r2,-12(fp)
     874:	10800117 	ldw	r2,4(r2)
     878:	e0fffe04 	addi	r3,fp,-8
     87c:	180b883a 	mov	r5,r3
     880:	100d883a 	mov	r6,r2
     884:	000f883a 	mov	r7,zero
     888:	000ebd80 	call	ebd8 <xQueueGenericReceive>
     88c:	10800058 	cmpnei	r2,r2,1
     890:	103ff41e 	bne	r2,zero,864 <vBlockingQueueConsumer+0x28>
		{
			if( usData != usExpectedValue )
     894:	e0bffe0b 	ldhu	r2,-8(fp)
     898:	10ffffcc 	andi	r3,r2,65535
     89c:	e0bffc0b 	ldhu	r2,-16(fp)
     8a0:	18800526 	beq	r3,r2,8b8 <vBlockingQueueConsumer+0x7c>
			{
				/* Catch-up. */
				usExpectedValue = usData;
     8a4:	e0bffe0b 	ldhu	r2,-8(fp)
     8a8:	e0bffc0d 	sth	r2,-16(fp)

				sErrorEverOccurred = pdTRUE;
     8ac:	00800044 	movi	r2,1
     8b0:	e0bffc8d 	sth	r2,-14(fp)
				/* Increment the value we expect to remove from the queue next time
				round. */
				++usExpectedValue;
			}			
		}		
	}
     8b4:	003feb06 	br	864 <vBlockingQueueConsumer+0x28>
			}
			else
			{
				/* We have successfully received a message, so increment the
				variable used to check we are still running. */	
				if( sErrorEverOccurred == pdFALSE )
     8b8:	e0bffc8f 	ldh	r2,-14(fp)
     8bc:	1000051e 	bne	r2,zero,8d4 <vBlockingQueueConsumer+0x98>
				{
					( *pxQueueParameters->psCheckVariable )++;
     8c0:	e0bffd17 	ldw	r2,-12(fp)
     8c4:	10800217 	ldw	r2,8(r2)
     8c8:	10c0000b 	ldhu	r3,0(r2)
     8cc:	18c00044 	addi	r3,r3,1
     8d0:	10c0000d 	sth	r3,0(r2)
				}
							
				/* Increment the value we expect to remove from the queue next time
				round. */
				++usExpectedValue;
     8d4:	e0bffc0b 	ldhu	r2,-16(fp)
     8d8:	10800044 	addi	r2,r2,1
     8dc:	e0bffc0d 	sth	r2,-16(fp)
			}			
		}		
	}
     8e0:	003fe006 	br	864 <vBlockingQueueConsumer+0x28>

000008e4 <xAreBlockingQueuesStillRunning>:
}
/*-----------------------------------------------------------*/

/* This is called to check that all the created tasks are still running. */
portBASE_TYPE xAreBlockingQueuesStillRunning( void )
{
     8e4:	defffd04 	addi	sp,sp,-12
     8e8:	df000215 	stw	fp,8(sp)
     8ec:	df000204 	addi	fp,sp,8
static short sLastBlockingConsumerCount[ blckqNUM_TASK_SETS ] = { ( unsigned short ) 0, ( unsigned short ) 0, ( unsigned short ) 0 };
static short sLastBlockingProducerCount[ blckqNUM_TASK_SETS ] = { ( unsigned short ) 0, ( unsigned short ) 0, ( unsigned short ) 0 };
portBASE_TYPE xReturn = pdPASS, xTasks;
     8f0:	00800044 	movi	r2,1
     8f4:	e0bffe15 	stw	r2,-8(fp)
	changed or not.
	
	Loop through each check variable to and return pdFALSE if any are found not
	to have changed since the last call. */

	for( xTasks = 0; xTasks < blckqNUM_TASK_SETS; xTasks++ )
     8f8:	e03fff15 	stw	zero,-4(fp)
     8fc:	00003b06 	br	9ec <xAreBlockingQueuesStillRunning+0x108>
	{
		if( sBlockingConsumerCount[ xTasks ] == sLastBlockingConsumerCount[ xTasks ]  )
     900:	e0bfff17 	ldw	r2,-4(fp)
     904:	1087883a 	add	r3,r2,r2
     908:	d0a8b704 	addi	r2,gp,-23844
     90c:	1885883a 	add	r2,r3,r2
     910:	10c0000b 	ldhu	r3,0(r2)
     914:	e0bfff17 	ldw	r2,-4(fp)
     918:	1089883a 	add	r4,r2,r2
     91c:	d0a8ba04 	addi	r2,gp,-23832
     920:	2085883a 	add	r2,r4,r2
     924:	1080000b 	ldhu	r2,0(r2)
     928:	18ffffcc 	andi	r3,r3,65535
     92c:	18e0001c 	xori	r3,r3,32768
     930:	18e00004 	addi	r3,r3,-32768
     934:	10bfffcc 	andi	r2,r2,65535
     938:	10a0001c 	xori	r2,r2,32768
     93c:	10a00004 	addi	r2,r2,-32768
     940:	1880011e 	bne	r3,r2,948 <xAreBlockingQueuesStillRunning+0x64>
		{
			xReturn = pdFALSE;
     944:	e03ffe15 	stw	zero,-8(fp)
		}
		sLastBlockingConsumerCount[ xTasks ] = sBlockingConsumerCount[ xTasks ];
     948:	e0bfff17 	ldw	r2,-4(fp)
     94c:	1087883a 	add	r3,r2,r2
     950:	d0a8b704 	addi	r2,gp,-23844
     954:	1885883a 	add	r2,r3,r2
     958:	10c0000b 	ldhu	r3,0(r2)
     95c:	e0bfff17 	ldw	r2,-4(fp)
     960:	1089883a 	add	r4,r2,r2
     964:	d0a8ba04 	addi	r2,gp,-23832
     968:	2085883a 	add	r2,r4,r2
     96c:	10c0000d 	sth	r3,0(r2)


		if( sBlockingProducerCount[ xTasks ] == sLastBlockingProducerCount[ xTasks ]  )
     970:	e0bfff17 	ldw	r2,-4(fp)
     974:	1087883a 	add	r3,r2,r2
     978:	d0a8b884 	addi	r2,gp,-23838
     97c:	1885883a 	add	r2,r3,r2
     980:	10c0000b 	ldhu	r3,0(r2)
     984:	e0bfff17 	ldw	r2,-4(fp)
     988:	1089883a 	add	r4,r2,r2
     98c:	d0a8bb84 	addi	r2,gp,-23826
     990:	2085883a 	add	r2,r4,r2
     994:	1080000b 	ldhu	r2,0(r2)
     998:	18ffffcc 	andi	r3,r3,65535
     99c:	18e0001c 	xori	r3,r3,32768
     9a0:	18e00004 	addi	r3,r3,-32768
     9a4:	10bfffcc 	andi	r2,r2,65535
     9a8:	10a0001c 	xori	r2,r2,32768
     9ac:	10a00004 	addi	r2,r2,-32768
     9b0:	1880011e 	bne	r3,r2,9b8 <xAreBlockingQueuesStillRunning+0xd4>
		{
			xReturn = pdFALSE;
     9b4:	e03ffe15 	stw	zero,-8(fp)
		}
		sLastBlockingProducerCount[ xTasks ] = sBlockingProducerCount[ xTasks ];
     9b8:	e0bfff17 	ldw	r2,-4(fp)
     9bc:	1087883a 	add	r3,r2,r2
     9c0:	d0a8b884 	addi	r2,gp,-23838
     9c4:	1885883a 	add	r2,r3,r2
     9c8:	10c0000b 	ldhu	r3,0(r2)
     9cc:	e0bfff17 	ldw	r2,-4(fp)
     9d0:	1089883a 	add	r4,r2,r2
     9d4:	d0a8bb84 	addi	r2,gp,-23826
     9d8:	2085883a 	add	r2,r4,r2
     9dc:	10c0000d 	sth	r3,0(r2)
	changed or not.
	
	Loop through each check variable to and return pdFALSE if any are found not
	to have changed since the last call. */

	for( xTasks = 0; xTasks < blckqNUM_TASK_SETS; xTasks++ )
     9e0:	e0bfff17 	ldw	r2,-4(fp)
     9e4:	10800044 	addi	r2,r2,1
     9e8:	e0bfff15 	stw	r2,-4(fp)
     9ec:	e0bfff17 	ldw	r2,-4(fp)
     9f0:	108000d0 	cmplti	r2,r2,3
     9f4:	103fc21e 	bne	r2,zero,900 <xAreBlockingQueuesStillRunning+0x1c>
			xReturn = pdFALSE;
		}
		sLastBlockingProducerCount[ xTasks ] = sBlockingProducerCount[ xTasks ];
	}

	return xReturn;
     9f8:	e0bffe17 	ldw	r2,-8(fp)
}
     9fc:	e037883a 	mov	sp,fp
     a00:	df000017 	ldw	fp,0(sp)
     a04:	dec00104 	addi	sp,sp,4
     a08:	f800283a 	ret

00000a0c <vStartGenericQueueTasks>:
static xTaskHandle xHighPriorityMutexTask, xMediumPriorityMutexTask;

/*-----------------------------------------------------------*/

void vStartGenericQueueTasks( unsigned portBASE_TYPE uxPriority )
{
     a0c:	defff704 	addi	sp,sp,-36
     a10:	dfc00815 	stw	ra,32(sp)
     a14:	df000715 	stw	fp,28(sp)
     a18:	df000704 	addi	fp,sp,28
     a1c:	e13fff15 	stw	r4,-4(fp)
xQueueHandle xQueue;
xSemaphoreHandle xMutex;

	/* Create the queue that we are going to use for the
	prvSendFrontAndBackTest demo. */
	xQueue = xQueueCreate( genqQUEUE_LENGTH, sizeof( unsigned portLONG ) );
     a20:	01000144 	movi	r4,5
     a24:	01400104 	movi	r5,4
     a28:	000d883a 	mov	r6,zero
     a2c:	000e6380 	call	e638 <xQueueGenericCreate>
     a30:	e0bffd15 	stw	r2,-12(fp)
	vQueueAddToRegistry( xQueue, ( signed portCHAR * ) "Gen_Queue_Test" );

	/* Create the demo task and pass it the queue just created.  We are
	passing the queue handle by value so it does not matter that it is
	declared on the stack here. */
	xTaskCreate( prvSendFrontAndBackTest, ( signed portCHAR * )"GenQ", configMINIMAL_STACK_SIZE, ( void * ) xQueue, uxPriority, NULL );
     a34:	e0bfff17 	ldw	r2,-4(fp)
     a38:	d8800015 	stw	r2,0(sp)
     a3c:	d8000115 	stw	zero,4(sp)
     a40:	d8000215 	stw	zero,8(sp)
     a44:	d8000315 	stw	zero,12(sp)
     a48:	01000034 	movhi	r4,0
     a4c:	2102c604 	addi	r4,r4,2840
     a50:	01400134 	movhi	r5,4
     a54:	297e4d04 	addi	r5,r5,-1740
     a58:	018c9604 	movi	r6,12888
     a5c:	e1fffd17 	ldw	r7,-12(fp)
     a60:	000f5140 	call	f514 <xTaskGenericCreate>

	/* Create the mutex used by the prvMutexTest task. */
	xMutex = xSemaphoreCreateMutex();
     a64:	01000044 	movi	r4,1
     a68:	000e7040 	call	e704 <xQueueCreateMutex>
     a6c:	e0bffe15 	stw	r2,-8(fp)
	vQueueAddToRegistry( ( xQueueHandle ) xMutex, ( signed portCHAR * ) "Gen_Queue_Mutex" );

	/* Create the mutex demo tasks and pass it the mutex just created.  We are
	passing the mutex handle by value so it does not matter that it is declared
	on the stack here. */
	xTaskCreate( prvLowPriorityMutexTask, ( signed portCHAR * )"MuLow", configMINIMAL_STACK_SIZE, ( void * ) xMutex, genqMUTEX_LOW_PRIORITY, NULL );
     a70:	d8000015 	stw	zero,0(sp)
     a74:	d8000115 	stw	zero,4(sp)
     a78:	d8000215 	stw	zero,8(sp)
     a7c:	d8000315 	stw	zero,12(sp)
     a80:	01000034 	movhi	r4,0
     a84:	2103df04 	addi	r4,r4,3964
     a88:	01400134 	movhi	r5,4
     a8c:	297e4f04 	addi	r5,r5,-1732
     a90:	018c9604 	movi	r6,12888
     a94:	e1fffe17 	ldw	r7,-8(fp)
     a98:	000f5140 	call	f514 <xTaskGenericCreate>
	xTaskCreate( prvMediumPriorityMutexTask, ( signed portCHAR * )"MuMed", configMINIMAL_STACK_SIZE, NULL, genqMUTEX_MEDIUM_PRIORITY, &xMediumPriorityMutexTask );
     a9c:	00800084 	movi	r2,2
     aa0:	d8800015 	stw	r2,0(sp)
     aa4:	d0a8c204 	addi	r2,gp,-23800
     aa8:	d8800115 	stw	r2,4(sp)
     aac:	d8000215 	stw	zero,8(sp)
     ab0:	d8000315 	stw	zero,12(sp)
     ab4:	01000034 	movhi	r4,0
     ab8:	21042904 	addi	r4,r4,4260
     abc:	01400134 	movhi	r5,4
     ac0:	297e5104 	addi	r5,r5,-1724
     ac4:	018c9604 	movi	r6,12888
     ac8:	000f883a 	mov	r7,zero
     acc:	000f5140 	call	f514 <xTaskGenericCreate>
	xTaskCreate( prvHighPriorityMutexTask, ( signed portCHAR * )"MuHigh", configMINIMAL_STACK_SIZE, ( void * ) xMutex, genqMUTEX_HIGH_PRIORITY, &xHighPriorityMutexTask );
     ad0:	008000c4 	movi	r2,3
     ad4:	d8800015 	stw	r2,0(sp)
     ad8:	d0a8c104 	addi	r2,gp,-23804
     adc:	d8800115 	stw	r2,4(sp)
     ae0:	d8000215 	stw	zero,8(sp)
     ae4:	d8000315 	stw	zero,12(sp)
     ae8:	01000034 	movhi	r4,0
     aec:	21043404 	addi	r4,r4,4304
     af0:	01400134 	movhi	r5,4
     af4:	297e5304 	addi	r5,r5,-1716
     af8:	018c9604 	movi	r6,12888
     afc:	e1fffe17 	ldw	r7,-8(fp)
     b00:	000f5140 	call	f514 <xTaskGenericCreate>
}
     b04:	e037883a 	mov	sp,fp
     b08:	dfc00117 	ldw	ra,4(sp)
     b0c:	df000017 	ldw	fp,0(sp)
     b10:	dec00204 	addi	sp,sp,8
     b14:	f800283a 	ret

00000b18 <prvSendFrontAndBackTest>:
/*-----------------------------------------------------------*/

static void prvSendFrontAndBackTest( void *pvParameters )
{
     b18:	defffa04 	addi	sp,sp,-24
     b1c:	dfc00515 	stw	ra,20(sp)
     b20:	df000415 	stw	fp,16(sp)
     b24:	df000404 	addi	fp,sp,16
     b28:	e13fff15 	stw	r4,-4(fp)

		/* Queue a message for printing to say the task has started. */
		vPrintDisplayMessage( &pcTaskStartMsg );
	#endif

	xQueue = ( xQueueHandle ) pvParameters;
     b2c:	e0bfff17 	ldw	r2,-4(fp)
     b30:	e0bffc15 	stw	r2,-16(fp)
	{
		/* The queue is empty, so sending an item to the back of the queue
		should have the same efect as sending it to the front of the queue.

		First send to the front and check everything is as expected. */
		xQueueSendToFront( xQueue, ( void * ) &ulLoopCounter, genqNO_BLOCK );
     b34:	e13ffc17 	ldw	r4,-16(fp)
     b38:	d168be04 	addi	r5,gp,-23816
     b3c:	000d883a 	mov	r6,zero
     b40:	01c00044 	movi	r7,1
     b44:	000e95c0 	call	e95c <xQueueGenericSend>

		if( uxQueueMessagesWaiting( xQueue ) != 1 )
     b48:	e13ffc17 	ldw	r4,-16(fp)
     b4c:	000eef40 	call	eef4 <uxQueueMessagesWaiting>
     b50:	10800060 	cmpeqi	r2,r2,1
     b54:	1000021e 	bne	r2,zero,b60 <prvSendFrontAndBackTest+0x48>
		{
			xErrorDetected = pdTRUE;
     b58:	00800044 	movi	r2,1
     b5c:	d0a8bd15 	stw	r2,-23820(gp)
		}

		if( xQueueReceive( xQueue, ( void * ) &ulData, genqNO_BLOCK ) != pdPASS )
     b60:	e0bffd04 	addi	r2,fp,-12
     b64:	e13ffc17 	ldw	r4,-16(fp)
     b68:	100b883a 	mov	r5,r2
     b6c:	000d883a 	mov	r6,zero
     b70:	000f883a 	mov	r7,zero
     b74:	000ebd80 	call	ebd8 <xQueueGenericReceive>
     b78:	10800060 	cmpeqi	r2,r2,1
     b7c:	1000021e 	bne	r2,zero,b88 <prvSendFrontAndBackTest+0x70>
		{
			xErrorDetected = pdTRUE;
     b80:	00800044 	movi	r2,1
     b84:	d0a8bd15 	stw	r2,-23820(gp)
		}

		/* The data we sent to the queue should equal the data we just received
		from the queue. */
		if( ulLoopCounter != ulData )
     b88:	d0e8be17 	ldw	r3,-23816(gp)
     b8c:	e0bffd17 	ldw	r2,-12(fp)
     b90:	18800226 	beq	r3,r2,b9c <prvSendFrontAndBackTest+0x84>
		{
			xErrorDetected = pdTRUE;
     b94:	00800044 	movi	r2,1
     b98:	d0a8bd15 	stw	r2,-23820(gp)
		}

		/* Then do the same, sending the data to the back, checking everything
		is as expected. */
		if( uxQueueMessagesWaiting( xQueue ) != 0 )
     b9c:	e13ffc17 	ldw	r4,-16(fp)
     ba0:	000eef40 	call	eef4 <uxQueueMessagesWaiting>
     ba4:	10000226 	beq	r2,zero,bb0 <prvSendFrontAndBackTest+0x98>
		{
			xErrorDetected = pdTRUE;
     ba8:	00800044 	movi	r2,1
     bac:	d0a8bd15 	stw	r2,-23820(gp)
		}

		xQueueSendToBack( xQueue, ( void * ) &ulLoopCounter, genqNO_BLOCK );
     bb0:	e13ffc17 	ldw	r4,-16(fp)
     bb4:	d168be04 	addi	r5,gp,-23816
     bb8:	000d883a 	mov	r6,zero
     bbc:	000f883a 	mov	r7,zero
     bc0:	000e95c0 	call	e95c <xQueueGenericSend>

		if( uxQueueMessagesWaiting( xQueue ) != 1 )
     bc4:	e13ffc17 	ldw	r4,-16(fp)
     bc8:	000eef40 	call	eef4 <uxQueueMessagesWaiting>
     bcc:	10800060 	cmpeqi	r2,r2,1
     bd0:	1000021e 	bne	r2,zero,bdc <prvSendFrontAndBackTest+0xc4>
		{
			xErrorDetected = pdTRUE;
     bd4:	00800044 	movi	r2,1
     bd8:	d0a8bd15 	stw	r2,-23820(gp)
		}

		if( xQueueReceive( xQueue, ( void * ) &ulData, genqNO_BLOCK ) != pdPASS )
     bdc:	e0bffd04 	addi	r2,fp,-12
     be0:	e13ffc17 	ldw	r4,-16(fp)
     be4:	100b883a 	mov	r5,r2
     be8:	000d883a 	mov	r6,zero
     bec:	000f883a 	mov	r7,zero
     bf0:	000ebd80 	call	ebd8 <xQueueGenericReceive>
     bf4:	10800060 	cmpeqi	r2,r2,1
     bf8:	1000021e 	bne	r2,zero,c04 <prvSendFrontAndBackTest+0xec>
		{
			xErrorDetected = pdTRUE;
     bfc:	00800044 	movi	r2,1
     c00:	d0a8bd15 	stw	r2,-23820(gp)
		}

		if( uxQueueMessagesWaiting( xQueue ) != 0 )
     c04:	e13ffc17 	ldw	r4,-16(fp)
     c08:	000eef40 	call	eef4 <uxQueueMessagesWaiting>
     c0c:	10000226 	beq	r2,zero,c18 <prvSendFrontAndBackTest+0x100>
		{
			xErrorDetected = pdTRUE;
     c10:	00800044 	movi	r2,1
     c14:	d0a8bd15 	stw	r2,-23820(gp)
		}

		/* The data we sent to the queue should equal the data we just received
		from the queue. */
		if( ulLoopCounter != ulData )
     c18:	d0e8be17 	ldw	r3,-23816(gp)
     c1c:	e0bffd17 	ldw	r2,-12(fp)
     c20:	18800226 	beq	r3,r2,c2c <prvSendFrontAndBackTest+0x114>
		{
			xErrorDetected = pdTRUE;
     c24:	00800044 	movi	r2,1
     c28:	d0a8bd15 	stw	r2,-23820(gp)
		#endif



		/* Place 2, 3, 4 into the queue, adding items to the back of the queue. */
		for( ulData = 2; ulData < 5; ulData++ )
     c2c:	00800084 	movi	r2,2
     c30:	e0bffd15 	stw	r2,-12(fp)
     c34:	00000906 	br	c5c <prvSendFrontAndBackTest+0x144>
		{
			xQueueSendToBack( xQueue, ( void * ) &ulData, genqNO_BLOCK );
     c38:	e0bffd04 	addi	r2,fp,-12
     c3c:	e13ffc17 	ldw	r4,-16(fp)
     c40:	100b883a 	mov	r5,r2
     c44:	000d883a 	mov	r6,zero
     c48:	000f883a 	mov	r7,zero
     c4c:	000e95c0 	call	e95c <xQueueGenericSend>
		#endif



		/* Place 2, 3, 4 into the queue, adding items to the back of the queue. */
		for( ulData = 2; ulData < 5; ulData++ )
     c50:	e0bffd17 	ldw	r2,-12(fp)
     c54:	10800044 	addi	r2,r2,1
     c58:	e0bffd15 	stw	r2,-12(fp)
     c5c:	e0bffd17 	ldw	r2,-12(fp)
     c60:	10800170 	cmpltui	r2,r2,5
     c64:	103ff41e 	bne	r2,zero,c38 <prvSendFrontAndBackTest+0x120>
			xQueueSendToBack( xQueue, ( void * ) &ulData, genqNO_BLOCK );
		}

		/* Now the order in the queue should be 2, 3, 4, with 2 being the first
		thing to be read out.  Now add 1 then 0 to the front of the queue. */
		if( uxQueueMessagesWaiting( xQueue ) != 3 )
     c68:	e13ffc17 	ldw	r4,-16(fp)
     c6c:	000eef40 	call	eef4 <uxQueueMessagesWaiting>
     c70:	108000e0 	cmpeqi	r2,r2,3
     c74:	1000021e 	bne	r2,zero,c80 <prvSendFrontAndBackTest+0x168>
		{
			xErrorDetected = pdTRUE;
     c78:	00800044 	movi	r2,1
     c7c:	d0a8bd15 	stw	r2,-23820(gp)
		}
		ulData = 1;
     c80:	00800044 	movi	r2,1
     c84:	e0bffd15 	stw	r2,-12(fp)
		xQueueSendToFront( xQueue, ( void * ) &ulData, genqNO_BLOCK );
     c88:	e0bffd04 	addi	r2,fp,-12
     c8c:	e13ffc17 	ldw	r4,-16(fp)
     c90:	100b883a 	mov	r5,r2
     c94:	000d883a 	mov	r6,zero
     c98:	01c00044 	movi	r7,1
     c9c:	000e95c0 	call	e95c <xQueueGenericSend>
		ulData = 0;
     ca0:	e03ffd15 	stw	zero,-12(fp)
		xQueueSendToFront( xQueue, ( void * ) &ulData, genqNO_BLOCK );
     ca4:	e0bffd04 	addi	r2,fp,-12
     ca8:	e13ffc17 	ldw	r4,-16(fp)
     cac:	100b883a 	mov	r5,r2
     cb0:	000d883a 	mov	r6,zero
     cb4:	01c00044 	movi	r7,1
     cb8:	000e95c0 	call	e95c <xQueueGenericSend>

		/* Now the queue should be full, and when we read the data out we
		should receive 0, 1, 2, 3, 4. */
		if( uxQueueMessagesWaiting( xQueue ) != 5 )
     cbc:	e13ffc17 	ldw	r4,-16(fp)
     cc0:	000eef40 	call	eef4 <uxQueueMessagesWaiting>
     cc4:	10800160 	cmpeqi	r2,r2,5
     cc8:	1000021e 	bne	r2,zero,cd4 <prvSendFrontAndBackTest+0x1bc>
		{
			xErrorDetected = pdTRUE;
     ccc:	00800044 	movi	r2,1
     cd0:	d0a8bd15 	stw	r2,-23820(gp)
		}

		if( xQueueSendToFront( xQueue, ( void * ) &ulData, genqNO_BLOCK ) != errQUEUE_FULL )
     cd4:	e0bffd04 	addi	r2,fp,-12
     cd8:	e13ffc17 	ldw	r4,-16(fp)
     cdc:	100b883a 	mov	r5,r2
     ce0:	000d883a 	mov	r6,zero
     ce4:	01c00044 	movi	r7,1
     ce8:	000e95c0 	call	e95c <xQueueGenericSend>
     cec:	10000226 	beq	r2,zero,cf8 <prvSendFrontAndBackTest+0x1e0>
		{
			xErrorDetected = pdTRUE;
     cf0:	00800044 	movi	r2,1
     cf4:	d0a8bd15 	stw	r2,-23820(gp)
		}

		if( xQueueSendToBack( xQueue, ( void * ) &ulData, genqNO_BLOCK ) != errQUEUE_FULL )
     cf8:	e0bffd04 	addi	r2,fp,-12
     cfc:	e13ffc17 	ldw	r4,-16(fp)
     d00:	100b883a 	mov	r5,r2
     d04:	000d883a 	mov	r6,zero
     d08:	000f883a 	mov	r7,zero
     d0c:	000e95c0 	call	e95c <xQueueGenericSend>
     d10:	10000226 	beq	r2,zero,d1c <prvSendFrontAndBackTest+0x204>
		{
			xErrorDetected = pdTRUE;
     d14:	00800044 	movi	r2,1
     d18:	d0a8bd15 	stw	r2,-23820(gp)
		#if configUSE_PREEMPTION == 0
			taskYIELD();
		#endif

		/* Check the data we read out is in the expected order. */
		for( ulData = 0; ulData < genqQUEUE_LENGTH; ulData++ )
     d1c:	e03ffd15 	stw	zero,-12(fp)
     d20:	00002406 	br	db4 <prvSendFrontAndBackTest+0x29c>
		{
			/* Try peeking the data first. */
			if( xQueuePeek( xQueue, &ulData2, genqNO_BLOCK ) != pdPASS )
     d24:	e0bffe04 	addi	r2,fp,-8
     d28:	e13ffc17 	ldw	r4,-16(fp)
     d2c:	100b883a 	mov	r5,r2
     d30:	000d883a 	mov	r6,zero
     d34:	01c00044 	movi	r7,1
     d38:	000ebd80 	call	ebd8 <xQueueGenericReceive>
     d3c:	10800060 	cmpeqi	r2,r2,1
     d40:	1000021e 	bne	r2,zero,d4c <prvSendFrontAndBackTest+0x234>
			{
				xErrorDetected = pdTRUE;
     d44:	00800044 	movi	r2,1
     d48:	d0a8bd15 	stw	r2,-23820(gp)
			}

			if( ulData != ulData2 )
     d4c:	e0fffd17 	ldw	r3,-12(fp)
     d50:	e0bffe17 	ldw	r2,-8(fp)
     d54:	18800226 	beq	r3,r2,d60 <prvSendFrontAndBackTest+0x248>
			{
				xErrorDetected = pdTRUE;
     d58:	00800044 	movi	r2,1
     d5c:	d0a8bd15 	stw	r2,-23820(gp)
			}
			

			/* Now try receiving the data for real.  The value should be the
			same.  Clobber the value first so we know we really received it. */
			ulData2 = ~ulData2;
     d60:	e0bffe17 	ldw	r2,-8(fp)
     d64:	0084303a 	nor	r2,zero,r2
     d68:	e0bffe15 	stw	r2,-8(fp)
			if( xQueueReceive( xQueue, &ulData2, genqNO_BLOCK ) != pdPASS )
     d6c:	e0bffe04 	addi	r2,fp,-8
     d70:	e13ffc17 	ldw	r4,-16(fp)
     d74:	100b883a 	mov	r5,r2
     d78:	000d883a 	mov	r6,zero
     d7c:	000f883a 	mov	r7,zero
     d80:	000ebd80 	call	ebd8 <xQueueGenericReceive>
     d84:	10800060 	cmpeqi	r2,r2,1
     d88:	1000021e 	bne	r2,zero,d94 <prvSendFrontAndBackTest+0x27c>
			{
				xErrorDetected = pdTRUE;
     d8c:	00800044 	movi	r2,1
     d90:	d0a8bd15 	stw	r2,-23820(gp)
			}

			if( ulData != ulData2 )
     d94:	e0fffd17 	ldw	r3,-12(fp)
     d98:	e0bffe17 	ldw	r2,-8(fp)
     d9c:	18800226 	beq	r3,r2,da8 <prvSendFrontAndBackTest+0x290>
			{
				xErrorDetected = pdTRUE;
     da0:	00800044 	movi	r2,1
     da4:	d0a8bd15 	stw	r2,-23820(gp)
		#if configUSE_PREEMPTION == 0
			taskYIELD();
		#endif

		/* Check the data we read out is in the expected order. */
		for( ulData = 0; ulData < genqQUEUE_LENGTH; ulData++ )
     da8:	e0bffd17 	ldw	r2,-12(fp)
     dac:	10800044 	addi	r2,r2,1
     db0:	e0bffd15 	stw	r2,-12(fp)
     db4:	e0bffd17 	ldw	r2,-12(fp)
     db8:	10800170 	cmpltui	r2,r2,5
     dbc:	103fd91e 	bne	r2,zero,d24 <prvSendFrontAndBackTest+0x20c>
				xErrorDetected = pdTRUE;
			}
		}

		/* The queue should now be empty again. */
		if( uxQueueMessagesWaiting( xQueue ) != 0 )
     dc0:	e13ffc17 	ldw	r4,-16(fp)
     dc4:	000eef40 	call	eef4 <uxQueueMessagesWaiting>
     dc8:	10000226 	beq	r2,zero,dd4 <prvSendFrontAndBackTest+0x2bc>
		{
			xErrorDetected = pdTRUE;
     dcc:	00800044 	movi	r2,1
     dd0:	d0a8bd15 	stw	r2,-23820(gp)
			taskYIELD();
		#endif


		/* Our queue is empty once more, add 10, 11 to the back. */
		ulData = 10;
     dd4:	00800284 	movi	r2,10
     dd8:	e0bffd15 	stw	r2,-12(fp)
		if( xQueueSend( xQueue, &ulData, genqNO_BLOCK ) != pdPASS )
     ddc:	e0bffd04 	addi	r2,fp,-12
     de0:	e13ffc17 	ldw	r4,-16(fp)
     de4:	100b883a 	mov	r5,r2
     de8:	000d883a 	mov	r6,zero
     dec:	000f883a 	mov	r7,zero
     df0:	000e95c0 	call	e95c <xQueueGenericSend>
     df4:	10800060 	cmpeqi	r2,r2,1
     df8:	1000021e 	bne	r2,zero,e04 <prvSendFrontAndBackTest+0x2ec>
		{
			xErrorDetected = pdTRUE;
     dfc:	00800044 	movi	r2,1
     e00:	d0a8bd15 	stw	r2,-23820(gp)
		}
		ulData = 11;
     e04:	008002c4 	movi	r2,11
     e08:	e0bffd15 	stw	r2,-12(fp)
		if( xQueueSend( xQueue, &ulData, genqNO_BLOCK ) != pdPASS )
     e0c:	e0bffd04 	addi	r2,fp,-12
     e10:	e13ffc17 	ldw	r4,-16(fp)
     e14:	100b883a 	mov	r5,r2
     e18:	000d883a 	mov	r6,zero
     e1c:	000f883a 	mov	r7,zero
     e20:	000e95c0 	call	e95c <xQueueGenericSend>
     e24:	10800060 	cmpeqi	r2,r2,1
     e28:	1000021e 	bne	r2,zero,e34 <prvSendFrontAndBackTest+0x31c>
		{
			xErrorDetected = pdTRUE;
     e2c:	00800044 	movi	r2,1
     e30:	d0a8bd15 	stw	r2,-23820(gp)
		}

		if( uxQueueMessagesWaiting( xQueue ) != 2 )
     e34:	e13ffc17 	ldw	r4,-16(fp)
     e38:	000eef40 	call	eef4 <uxQueueMessagesWaiting>
     e3c:	108000a0 	cmpeqi	r2,r2,2
     e40:	1000021e 	bne	r2,zero,e4c <prvSendFrontAndBackTest+0x334>
		{
			xErrorDetected = pdTRUE;
     e44:	00800044 	movi	r2,1
     e48:	d0a8bd15 	stw	r2,-23820(gp)
		}

		/* Now we should have 10, 11 in the queue.  Add 7, 8, 9 to the
		front. */
		for( ulData = 9; ulData >= 7; ulData-- )
     e4c:	00800244 	movi	r2,9
     e50:	e0bffd15 	stw	r2,-12(fp)
     e54:	00000d06 	br	e8c <prvSendFrontAndBackTest+0x374>
		{
			if( xQueueSendToFront( xQueue, ( void * ) &ulData, genqNO_BLOCK ) != pdPASS )
     e58:	e0bffd04 	addi	r2,fp,-12
     e5c:	e13ffc17 	ldw	r4,-16(fp)
     e60:	100b883a 	mov	r5,r2
     e64:	000d883a 	mov	r6,zero
     e68:	01c00044 	movi	r7,1
     e6c:	000e95c0 	call	e95c <xQueueGenericSend>
     e70:	10800060 	cmpeqi	r2,r2,1
     e74:	1000021e 	bne	r2,zero,e80 <prvSendFrontAndBackTest+0x368>
			{
				xErrorDetected = pdTRUE;
     e78:	00800044 	movi	r2,1
     e7c:	d0a8bd15 	stw	r2,-23820(gp)
			xErrorDetected = pdTRUE;
		}

		/* Now we should have 10, 11 in the queue.  Add 7, 8, 9 to the
		front. */
		for( ulData = 9; ulData >= 7; ulData-- )
     e80:	e0bffd17 	ldw	r2,-12(fp)
     e84:	10bfffc4 	addi	r2,r2,-1
     e88:	e0bffd15 	stw	r2,-12(fp)
     e8c:	e0bffd17 	ldw	r2,-12(fp)
     e90:	108001e8 	cmpgeui	r2,r2,7
     e94:	103ff01e 	bne	r2,zero,e58 <prvSendFrontAndBackTest+0x340>
			}
		}

		/* Now check that the queue is full, and that receiving data provides
		the expected sequence of 7, 8, 9, 10, 11. */
		if( uxQueueMessagesWaiting( xQueue ) != 5 )
     e98:	e13ffc17 	ldw	r4,-16(fp)
     e9c:	000eef40 	call	eef4 <uxQueueMessagesWaiting>
     ea0:	10800160 	cmpeqi	r2,r2,5
     ea4:	1000021e 	bne	r2,zero,eb0 <prvSendFrontAndBackTest+0x398>
		{
			xErrorDetected = pdTRUE;
     ea8:	00800044 	movi	r2,1
     eac:	d0a8bd15 	stw	r2,-23820(gp)
		}

		if( xQueueSendToFront( xQueue, ( void * ) &ulData, genqNO_BLOCK ) != errQUEUE_FULL )
     eb0:	e0bffd04 	addi	r2,fp,-12
     eb4:	e13ffc17 	ldw	r4,-16(fp)
     eb8:	100b883a 	mov	r5,r2
     ebc:	000d883a 	mov	r6,zero
     ec0:	01c00044 	movi	r7,1
     ec4:	000e95c0 	call	e95c <xQueueGenericSend>
     ec8:	10000226 	beq	r2,zero,ed4 <prvSendFrontAndBackTest+0x3bc>
		{
			xErrorDetected = pdTRUE;
     ecc:	00800044 	movi	r2,1
     ed0:	d0a8bd15 	stw	r2,-23820(gp)
		}

		if( xQueueSendToBack( xQueue, ( void * ) &ulData, genqNO_BLOCK ) != errQUEUE_FULL )
     ed4:	e0bffd04 	addi	r2,fp,-12
     ed8:	e13ffc17 	ldw	r4,-16(fp)
     edc:	100b883a 	mov	r5,r2
     ee0:	000d883a 	mov	r6,zero
     ee4:	000f883a 	mov	r7,zero
     ee8:	000e95c0 	call	e95c <xQueueGenericSend>
     eec:	10000226 	beq	r2,zero,ef8 <prvSendFrontAndBackTest+0x3e0>
		{
			xErrorDetected = pdTRUE;
     ef0:	00800044 	movi	r2,1
     ef4:	d0a8bd15 	stw	r2,-23820(gp)
		#if configUSE_PREEMPTION == 0
			taskYIELD();
		#endif

		/* Check the data we read out is in the expected order. */
		for( ulData = 7; ulData < ( 7 + genqQUEUE_LENGTH ); ulData++ )
     ef8:	008001c4 	movi	r2,7
     efc:	e0bffd15 	stw	r2,-12(fp)
     f00:	00001206 	br	f4c <prvSendFrontAndBackTest+0x434>
		{
			if( xQueueReceive( xQueue, &ulData2, genqNO_BLOCK ) != pdPASS )
     f04:	e0bffe04 	addi	r2,fp,-8
     f08:	e13ffc17 	ldw	r4,-16(fp)
     f0c:	100b883a 	mov	r5,r2
     f10:	000d883a 	mov	r6,zero
     f14:	000f883a 	mov	r7,zero
     f18:	000ebd80 	call	ebd8 <xQueueGenericReceive>
     f1c:	10800060 	cmpeqi	r2,r2,1
     f20:	1000021e 	bne	r2,zero,f2c <prvSendFrontAndBackTest+0x414>
			{
				xErrorDetected = pdTRUE;
     f24:	00800044 	movi	r2,1
     f28:	d0a8bd15 	stw	r2,-23820(gp)
			}

			if( ulData != ulData2 )
     f2c:	e0fffd17 	ldw	r3,-12(fp)
     f30:	e0bffe17 	ldw	r2,-8(fp)
     f34:	18800226 	beq	r3,r2,f40 <prvSendFrontAndBackTest+0x428>
			{
				xErrorDetected = pdTRUE;
     f38:	00800044 	movi	r2,1
     f3c:	d0a8bd15 	stw	r2,-23820(gp)
		#if configUSE_PREEMPTION == 0
			taskYIELD();
		#endif

		/* Check the data we read out is in the expected order. */
		for( ulData = 7; ulData < ( 7 + genqQUEUE_LENGTH ); ulData++ )
     f40:	e0bffd17 	ldw	r2,-12(fp)
     f44:	10800044 	addi	r2,r2,1
     f48:	e0bffd15 	stw	r2,-12(fp)
     f4c:	e0bffd17 	ldw	r2,-12(fp)
     f50:	10800330 	cmpltui	r2,r2,12
     f54:	103feb1e 	bne	r2,zero,f04 <prvSendFrontAndBackTest+0x3ec>
			{
				xErrorDetected = pdTRUE;
			}
		}

		if( uxQueueMessagesWaiting( xQueue ) != 0 )
     f58:	e13ffc17 	ldw	r4,-16(fp)
     f5c:	000eef40 	call	eef4 <uxQueueMessagesWaiting>
     f60:	10000226 	beq	r2,zero,f6c <prvSendFrontAndBackTest+0x454>
		{
			xErrorDetected = pdTRUE;
     f64:	00800044 	movi	r2,1
     f68:	d0a8bd15 	stw	r2,-23820(gp)
		}

		ulLoopCounter++;
     f6c:	d0a8be17 	ldw	r2,-23816(gp)
     f70:	10800044 	addi	r2,r2,1
     f74:	d0a8be15 	stw	r2,-23816(gp)
	}
     f78:	003eee06 	br	b34 <prvSendFrontAndBackTest+0x1c>

00000f7c <prvLowPriorityMutexTask>:
}
/*-----------------------------------------------------------*/

static void prvLowPriorityMutexTask( void *pvParameters )
{
     f7c:	defffc04 	addi	sp,sp,-16
     f80:	dfc00315 	stw	ra,12(sp)
     f84:	df000215 	stw	fp,8(sp)
     f88:	df000204 	addi	fp,sp,8
     f8c:	e13fff15 	stw	r4,-4(fp)
xSemaphoreHandle xMutex = ( xSemaphoreHandle ) pvParameters;
     f90:	e0bfff17 	ldw	r2,-4(fp)
     f94:	e0bffe15 	stw	r2,-8(fp)
	#endif

	for( ;; )
	{
		/* Take the mutex.  It should be available now. */
		if( xSemaphoreTake( xMutex, genqNO_BLOCK ) != pdPASS )
     f98:	e13ffe17 	ldw	r4,-8(fp)
     f9c:	000b883a 	mov	r5,zero
     fa0:	000d883a 	mov	r6,zero
     fa4:	000f883a 	mov	r7,zero
     fa8:	000ebd80 	call	ebd8 <xQueueGenericReceive>
     fac:	10800060 	cmpeqi	r2,r2,1
     fb0:	1000021e 	bne	r2,zero,fbc <prvLowPriorityMutexTask+0x40>
		{
			xErrorDetected = pdTRUE;
     fb4:	00800044 	movi	r2,1
     fb8:	d0a8bd15 	stw	r2,-23820(gp)
		}

		/* Set our guarded variable to a known start value. */
		ulGuardedVariable = 0;
     fbc:	d028c015 	stw	zero,-23808(gp)

		/* Our priority should be as per that assigned when the task was
		created. */
		if( uxTaskPriorityGet( NULL ) != genqMUTEX_LOW_PRIORITY )
     fc0:	0009883a 	mov	r4,zero
     fc4:	000f9340 	call	f934 <uxTaskPriorityGet>
     fc8:	10000226 	beq	r2,zero,fd4 <prvLowPriorityMutexTask+0x58>
		{
			xErrorDetected = pdTRUE;
     fcc:	00800044 	movi	r2,1
     fd0:	d0a8bd15 	stw	r2,-23820(gp)
		}

		/* Now unsuspend the high priority task.  This will attempt to take the
		mutex, and block when it finds it cannot obtain it. */
		vTaskResume( xHighPriorityMutexTask );
     fd4:	d0a8c117 	ldw	r2,-23804(gp)
     fd8:	1009883a 	mov	r4,r2
     fdc:	000fc800 	call	fc80 <vTaskResume>

		/* We should now have inherited the prioritoy of the high priority task,
		as by now it will have attempted to get the mutex. */
		if( uxTaskPriorityGet( NULL ) != genqMUTEX_HIGH_PRIORITY )
     fe0:	0009883a 	mov	r4,zero
     fe4:	000f9340 	call	f934 <uxTaskPriorityGet>
     fe8:	108000e0 	cmpeqi	r2,r2,3
     fec:	1000021e 	bne	r2,zero,ff8 <prvLowPriorityMutexTask+0x7c>
		{
			xErrorDetected = pdTRUE;
     ff0:	00800044 	movi	r2,1
     ff4:	d0a8bd15 	stw	r2,-23820(gp)
		}

		/* We can attempt to set our priority to the test priority - between the
		idle priority and the medium/high test priorities, but our actual
		prioroity should remain at the high priority. */
		vTaskPrioritySet( NULL, genqMUTEX_TEST_PRIORITY );
     ff8:	0009883a 	mov	r4,zero
     ffc:	01400044 	movi	r5,1
    1000:	000f99c0 	call	f99c <vTaskPrioritySet>
		if( uxTaskPriorityGet( NULL ) != genqMUTEX_HIGH_PRIORITY )
    1004:	0009883a 	mov	r4,zero
    1008:	000f9340 	call	f934 <uxTaskPriorityGet>
    100c:	108000e0 	cmpeqi	r2,r2,3
    1010:	1000021e 	bne	r2,zero,101c <prvLowPriorityMutexTask+0xa0>
		{
			xErrorDetected = pdTRUE;
    1014:	00800044 	movi	r2,1
    1018:	d0a8bd15 	stw	r2,-23820(gp)
		}

		/* Now unsuspend the medium priority task.  This should not run as our
		inherited priority is above that of the medium priority task. */
		vTaskResume( xMediumPriorityMutexTask );
    101c:	d0a8c217 	ldw	r2,-23800(gp)
    1020:	1009883a 	mov	r4,r2
    1024:	000fc800 	call	fc80 <vTaskResume>

		/* If the did run then it will have incremented our guarded variable. */
		if( ulGuardedVariable != 0 )
    1028:	d0a8c017 	ldw	r2,-23808(gp)
    102c:	10000226 	beq	r2,zero,1038 <prvLowPriorityMutexTask+0xbc>
		{
			xErrorDetected = pdTRUE;
    1030:	00800044 	movi	r2,1
    1034:	d0a8bd15 	stw	r2,-23820(gp)
		/* When we give back the semaphore our priority should be disinherited
		back to the priority to which we attempted to set ourselves.  This means
		that when the high priority task next blocks, the medium priority task
		should execute and increment the guarded variable.   When we next run
		both the high and medium priority tasks will have been suspended again. */
		if( xSemaphoreGive( xMutex ) != pdPASS )
    1038:	e13ffe17 	ldw	r4,-8(fp)
    103c:	000b883a 	mov	r5,zero
    1040:	000d883a 	mov	r6,zero
    1044:	000f883a 	mov	r7,zero
    1048:	000e95c0 	call	e95c <xQueueGenericSend>
    104c:	10800060 	cmpeqi	r2,r2,1
    1050:	1000021e 	bne	r2,zero,105c <prvLowPriorityMutexTask+0xe0>
		{
			xErrorDetected = pdTRUE;
    1054:	00800044 	movi	r2,1
    1058:	d0a8bd15 	stw	r2,-23820(gp)
		}

		/* Check that the guarded variable did indeed increment... */
		if( ulGuardedVariable != 1 )
    105c:	d0a8c017 	ldw	r2,-23808(gp)
    1060:	10800060 	cmpeqi	r2,r2,1
    1064:	1000021e 	bne	r2,zero,1070 <prvLowPriorityMutexTask+0xf4>
		{
			xErrorDetected = pdTRUE;
    1068:	00800044 	movi	r2,1
    106c:	d0a8bd15 	stw	r2,-23820(gp)
		}

		/* ... and that our priority has been disinherited to
		genqMUTEX_TEST_PRIORITY. */
		if( uxTaskPriorityGet( NULL ) != genqMUTEX_TEST_PRIORITY )
    1070:	0009883a 	mov	r4,zero
    1074:	000f9340 	call	f934 <uxTaskPriorityGet>
    1078:	10800060 	cmpeqi	r2,r2,1
    107c:	1000021e 	bne	r2,zero,1088 <prvLowPriorityMutexTask+0x10c>
		{
			xErrorDetected = pdTRUE;
    1080:	00800044 	movi	r2,1
    1084:	d0a8bd15 	stw	r2,-23820(gp)
		}

		/* Set our priority back to our original priority ready for the next
		loop around this test. */
		vTaskPrioritySet( NULL, genqMUTEX_LOW_PRIORITY );
    1088:	0009883a 	mov	r4,zero
    108c:	000b883a 	mov	r5,zero
    1090:	000f99c0 	call	f99c <vTaskPrioritySet>

		/* Just to show we are still running. */
		ulLoopCounter2++;
    1094:	d0a8bf17 	ldw	r2,-23812(gp)
    1098:	10800044 	addi	r2,r2,1
    109c:	d0a8bf15 	stw	r2,-23812(gp)

		#if configUSE_PREEMPTION == 0
			taskYIELD();
		#endif		
	}
    10a0:	003fbd06 	br	f98 <prvLowPriorityMutexTask+0x1c>

000010a4 <prvMediumPriorityMutexTask>:
}
/*-----------------------------------------------------------*/

static void prvMediumPriorityMutexTask( void *pvParameters )
{
    10a4:	defffd04 	addi	sp,sp,-12
    10a8:	dfc00215 	stw	ra,8(sp)
    10ac:	df000115 	stw	fp,4(sp)
    10b0:	df000104 	addi	fp,sp,4
    10b4:	e13fff15 	stw	r4,-4(fp)

	for( ;; )
	{
		/* The medium priority task starts by suspending itself.  The low
		priority task will unsuspend this task when required. */
		vTaskSuspend( NULL );
    10b8:	0009883a 	mov	r4,zero
    10bc:	000fb300 	call	fb30 <vTaskSuspend>

		/* When this task unsuspends all it does is increment the guarded
		variable, this is so the low priority task knows that it has
		executed. */
		ulGuardedVariable++;
    10c0:	d0a8c017 	ldw	r2,-23808(gp)
    10c4:	10800044 	addi	r2,r2,1
    10c8:	d0a8c015 	stw	r2,-23808(gp)
	}
    10cc:	003ffa06 	br	10b8 <prvMediumPriorityMutexTask+0x14>

000010d0 <prvHighPriorityMutexTask>:
}
/*-----------------------------------------------------------*/

static void prvHighPriorityMutexTask( void *pvParameters )
{
    10d0:	defffc04 	addi	sp,sp,-16
    10d4:	dfc00315 	stw	ra,12(sp)
    10d8:	df000215 	stw	fp,8(sp)
    10dc:	df000204 	addi	fp,sp,8
    10e0:	e13fff15 	stw	r4,-4(fp)
xSemaphoreHandle xMutex = ( xSemaphoreHandle ) pvParameters;
    10e4:	e0bfff17 	ldw	r2,-4(fp)
    10e8:	e0bffe15 	stw	r2,-8(fp)
    10ec:	00000106 	br	10f4 <prvHighPriorityMutexTask+0x24>
		return to suspend ready for the next test. */
		if( xSemaphoreGive( xMutex ) != pdPASS )
		{
			xErrorDetected = pdTRUE;
		}		
	}
    10f0:	0001883a 	nop

	for( ;; )
	{
		/* The high priority task starts by suspending itself.  The low
		priority task will unsuspend this task when required. */
		vTaskSuspend( NULL );
    10f4:	0009883a 	mov	r4,zero
    10f8:	000fb300 	call	fb30 <vTaskSuspend>

		/* When this task unsuspends all it does is attempt to obtain
		the mutex.  It should find the mutex is not available so a
		block time is specified. */
		if( xSemaphoreTake( xMutex, portMAX_DELAY ) != pdPASS )
    10fc:	e13ffe17 	ldw	r4,-8(fp)
    1100:	000b883a 	mov	r5,zero
    1104:	01bfffc4 	movi	r6,-1
    1108:	000f883a 	mov	r7,zero
    110c:	000ebd80 	call	ebd8 <xQueueGenericReceive>
    1110:	10800060 	cmpeqi	r2,r2,1
    1114:	1000021e 	bne	r2,zero,1120 <prvHighPriorityMutexTask+0x50>
		{
			xErrorDetected = pdTRUE;
    1118:	00800044 	movi	r2,1
    111c:	d0a8bd15 	stw	r2,-23820(gp)
		}

		/* When we eventually obtain the mutex we just give it back then
		return to suspend ready for the next test. */
		if( xSemaphoreGive( xMutex ) != pdPASS )
    1120:	e13ffe17 	ldw	r4,-8(fp)
    1124:	000b883a 	mov	r5,zero
    1128:	000d883a 	mov	r6,zero
    112c:	000f883a 	mov	r7,zero
    1130:	000e95c0 	call	e95c <xQueueGenericSend>
    1134:	10800060 	cmpeqi	r2,r2,1
    1138:	103fed1e 	bne	r2,zero,10f0 <prvHighPriorityMutexTask+0x20>
		{
			xErrorDetected = pdTRUE;
    113c:	00800044 	movi	r2,1
    1140:	d0a8bd15 	stw	r2,-23820(gp)
		}		
	}
    1144:	003fea06 	br	10f0 <prvHighPriorityMutexTask+0x20>

00001148 <xAreGenericQueueTasksStillRunning>:
}
/*-----------------------------------------------------------*/

/* This is called to check that all the created tasks are still running. */
portBASE_TYPE xAreGenericQueueTasksStillRunning( void )
{
    1148:	deffff04 	addi	sp,sp,-4
    114c:	df000015 	stw	fp,0(sp)
    1150:	d839883a 	mov	fp,sp
static unsigned portLONG ulLastLoopCounter = 0, ulLastLoopCounter2 = 0;

	/* If the demo task is still running then we expect the loopcounters to
	have incremented since this function was last called. */
	if( ulLastLoopCounter == ulLoopCounter )
    1154:	d0e8c317 	ldw	r3,-23796(gp)
    1158:	d0a8be17 	ldw	r2,-23816(gp)
    115c:	1880021e 	bne	r3,r2,1168 <xAreGenericQueueTasksStillRunning+0x20>
	{
		xErrorDetected = pdTRUE;
    1160:	00800044 	movi	r2,1
    1164:	d0a8bd15 	stw	r2,-23820(gp)
	}

	if( ulLastLoopCounter2 == ulLoopCounter2 )
    1168:	d0e8c417 	ldw	r3,-23792(gp)
    116c:	d0a8bf17 	ldw	r2,-23812(gp)
    1170:	1880021e 	bne	r3,r2,117c <xAreGenericQueueTasksStillRunning+0x34>
	{
		xErrorDetected = pdTRUE;
    1174:	00800044 	movi	r2,1
    1178:	d0a8bd15 	stw	r2,-23820(gp)
	}

	ulLastLoopCounter = ulLoopCounter;
    117c:	d0a8be17 	ldw	r2,-23816(gp)
    1180:	d0a8c315 	stw	r2,-23796(gp)
	ulLastLoopCounter2 = ulLoopCounter2;	
    1184:	d0a8bf17 	ldw	r2,-23812(gp)
    1188:	d0a8c415 	stw	r2,-23792(gp)

	/* Errors detected in the task itself will have latched xErrorDetected
	to true. */

	return !xErrorDetected;
    118c:	d0a8bd17 	ldw	r2,-23820(gp)
    1190:	1005003a 	cmpeq	r2,r2,zero
    1194:	10803fcc 	andi	r2,r2,255
}
    1198:	e037883a 	mov	sp,fp
    119c:	df000017 	ldw	fp,0(sp)
    11a0:	dec00104 	addi	sp,sp,4
    11a4:	f800283a 	ret

000011a8 <vStartPolledQueueTasks>:
static volatile signed portBASE_TYPE xPollingConsumerCount = pollqINITIAL_VALUE, xPollingProducerCount = pollqINITIAL_VALUE;

/*-----------------------------------------------------------*/

void vStartPolledQueueTasks( unsigned portBASE_TYPE uxPriority )
{
    11a8:	defff904 	addi	sp,sp,-28
    11ac:	dfc00615 	stw	ra,24(sp)
    11b0:	df000515 	stw	fp,20(sp)
    11b4:	df000504 	addi	fp,sp,20
    11b8:	e13fff15 	stw	r4,-4(fp)
static xQueueHandle xPolledQueue;

	/* Create the queue used by the producer and consumer. */
	xPolledQueue = xQueueCreate( pollqQUEUE_SIZE, ( unsigned portBASE_TYPE ) sizeof( unsigned short ) );
    11bc:	01000284 	movi	r4,10
    11c0:	01400084 	movi	r5,2
    11c4:	000d883a 	mov	r6,zero
    11c8:	000e6380 	call	e638 <xQueueGenericCreate>
    11cc:	d0a8c715 	stw	r2,-23780(gp)
	by the pre-processor if configQUEUE_REGISTRY_SIZE is not defined or is 
	defined to be less than 1. */
	vQueueAddToRegistry( xPolledQueue, ( signed char * ) "Poll_Test_Queue" );

	/* Spawn the producer and consumer. */
	xTaskCreate( vPolledQueueConsumer, ( signed char * ) "QConsNB", pollqSTACK_SIZE, ( void * ) &xPolledQueue, uxPriority, ( xTaskHandle * ) NULL );
    11d0:	e0bfff17 	ldw	r2,-4(fp)
    11d4:	d8800015 	stw	r2,0(sp)
    11d8:	d8000115 	stw	zero,4(sp)
    11dc:	d8000215 	stw	zero,8(sp)
    11e0:	d8000315 	stw	zero,12(sp)
    11e4:	01000034 	movhi	r4,0
    11e8:	2104be04 	addi	r4,r4,4856
    11ec:	01400134 	movhi	r5,4
    11f0:	297e5504 	addi	r5,r5,-1708
    11f4:	018c9604 	movi	r6,12888
    11f8:	d1e8c704 	addi	r7,gp,-23780
    11fc:	000f5140 	call	f514 <xTaskGenericCreate>
	xTaskCreate( vPolledQueueProducer, ( signed char * ) "QProdNB", pollqSTACK_SIZE, ( void * ) &xPolledQueue, uxPriority, ( xTaskHandle * ) NULL );
    1200:	e0bfff17 	ldw	r2,-4(fp)
    1204:	d8800015 	stw	r2,0(sp)
    1208:	d8000115 	stw	zero,4(sp)
    120c:	d8000215 	stw	zero,8(sp)
    1210:	d8000315 	stw	zero,12(sp)
    1214:	01000034 	movhi	r4,0
    1218:	21049104 	addi	r4,r4,4676
    121c:	01400134 	movhi	r5,4
    1220:	297e5704 	addi	r5,r5,-1700
    1224:	018c9604 	movi	r6,12888
    1228:	d1e8c704 	addi	r7,gp,-23780
    122c:	000f5140 	call	f514 <xTaskGenericCreate>
}
    1230:	e037883a 	mov	sp,fp
    1234:	dfc00117 	ldw	ra,4(sp)
    1238:	df000017 	ldw	fp,0(sp)
    123c:	dec00204 	addi	sp,sp,8
    1240:	f800283a 	ret

00001244 <vPolledQueueProducer>:
/*-----------------------------------------------------------*/

static portTASK_FUNCTION( vPolledQueueProducer, pvParameters )
{
    1244:	defffa04 	addi	sp,sp,-24
    1248:	dfc00515 	stw	ra,20(sp)
    124c:	df000415 	stw	fp,16(sp)
    1250:	df000404 	addi	fp,sp,16
    1254:	e13fff15 	stw	r4,-4(fp)
unsigned short usValue = ( unsigned short ) 0;
    1258:	e03ffe0d 	sth	zero,-8(fp)
signed portBASE_TYPE xError = pdFALSE, xLoop;
    125c:	e03ffc15 	stw	zero,-16(fp)

	for( ;; )
	{		
		for( xLoop = 0; xLoop < pollqVALUES_TO_PRODUCE; xLoop++ )
    1260:	e03ffd15 	stw	zero,-12(fp)
    1264:	00001e06 	br	12e0 <vPolledQueueProducer+0x9c>
		{
			/* Send an incrementing number on the queue without blocking. */
			if( xQueueSend( *( ( xQueueHandle * ) pvParameters ), ( void * ) &usValue, pollqNO_DELAY ) != pdPASS )
    1268:	e0bfff17 	ldw	r2,-4(fp)
    126c:	10c00017 	ldw	r3,0(r2)
    1270:	e0bffe04 	addi	r2,fp,-8
    1274:	1809883a 	mov	r4,r3
    1278:	100b883a 	mov	r5,r2
    127c:	000d883a 	mov	r6,zero
    1280:	000f883a 	mov	r7,zero
    1284:	000e95c0 	call	e95c <xQueueGenericSend>
    1288:	10800060 	cmpeqi	r2,r2,1
    128c:	1000031e 	bne	r2,zero,129c <vPolledQueueProducer+0x58>
			{
				/* We should never find the queue full so if we get here there
				has been an error. */
				xError = pdTRUE;
    1290:	00800044 	movi	r2,1
    1294:	e0bffc15 	stw	r2,-16(fp)
    1298:	00000e06 	br	12d4 <vPolledQueueProducer+0x90>
			}
			else
			{
				if( xError == pdFALSE )
    129c:	e0bffc17 	ldw	r2,-16(fp)
    12a0:	1000091e 	bne	r2,zero,12c8 <vPolledQueueProducer+0x84>
				{
					/* If an error has ever been recorded we stop incrementing the
					check variable. */
					portENTER_CRITICAL();
    12a4:	0010ebc0 	call	10ebc <xTaskGetSchedulerState>
    12a8:	10000126 	beq	r2,zero,12b0 <vPolledQueueProducer+0x6c>
    12ac:	00110d00 	call	110d0 <vTaskEnterCritical>
						xPollingProducerCount++;
    12b0:	d0a8c617 	ldw	r2,-23784(gp)
    12b4:	10800044 	addi	r2,r2,1
    12b8:	d0a8c615 	stw	r2,-23784(gp)
					portEXIT_CRITICAL();
    12bc:	0010ebc0 	call	10ebc <xTaskGetSchedulerState>
    12c0:	10000126 	beq	r2,zero,12c8 <vPolledQueueProducer+0x84>
    12c4:	00111100 	call	11110 <vTaskExitCritical>
				}

				/* Update the value we are going to post next time around. */
				usValue++;
    12c8:	e0bffe0b 	ldhu	r2,-8(fp)
    12cc:	10800044 	addi	r2,r2,1
    12d0:	e0bffe0d 	sth	r2,-8(fp)
unsigned short usValue = ( unsigned short ) 0;
signed portBASE_TYPE xError = pdFALSE, xLoop;

	for( ;; )
	{		
		for( xLoop = 0; xLoop < pollqVALUES_TO_PRODUCE; xLoop++ )
    12d4:	e0bffd17 	ldw	r2,-12(fp)
    12d8:	10800044 	addi	r2,r2,1
    12dc:	e0bffd15 	stw	r2,-12(fp)
    12e0:	e0bffd17 	ldw	r2,-12(fp)
    12e4:	108000d0 	cmplti	r2,r2,3
    12e8:	103fdf1e 	bne	r2,zero,1268 <vPolledQueueProducer+0x24>
			}
		}

		/* Wait before we start posting again to ensure the consumer runs and
		empties the queue. */
		vTaskDelay( pollqPRODUCER_DELAY );
    12ec:	01003204 	movi	r4,200
    12f0:	000f8c00 	call	f8c0 <vTaskDelay>
	}
    12f4:	003fda06 	br	1260 <vPolledQueueProducer+0x1c>

000012f8 <vPolledQueueConsumer>:
}  /*lint !e818 Function prototype must conform to API. */
/*-----------------------------------------------------------*/

static portTASK_FUNCTION( vPolledQueueConsumer, pvParameters )
{
    12f8:	defffa04 	addi	sp,sp,-24
    12fc:	dfc00515 	stw	ra,20(sp)
    1300:	df000415 	stw	fp,16(sp)
    1304:	df000404 	addi	fp,sp,16
    1308:	e13fff15 	stw	r4,-4(fp)
unsigned short usData, usExpectedValue = ( unsigned short ) 0;
    130c:	e03ffc0d 	sth	zero,-16(fp)
signed portBASE_TYPE xError = pdFALSE;
    1310:	e03ffd15 	stw	zero,-12(fp)

	for( ;; )
	{		
		/* Loop until the queue is empty. */
		while( uxQueueMessagesWaiting( *( ( xQueueHandle * ) pvParameters ) ) )
    1314:	00002106 	br	139c <vPolledQueueConsumer+0xa4>
		{
			if( xQueueReceive( *( ( xQueueHandle * ) pvParameters ), &usData, pollqNO_DELAY ) == pdPASS )
    1318:	e0bfff17 	ldw	r2,-4(fp)
    131c:	10c00017 	ldw	r3,0(r2)
    1320:	e0bffe04 	addi	r2,fp,-8
    1324:	1809883a 	mov	r4,r3
    1328:	100b883a 	mov	r5,r2
    132c:	000d883a 	mov	r6,zero
    1330:	000f883a 	mov	r7,zero
    1334:	000ebd80 	call	ebd8 <xQueueGenericReceive>
    1338:	10800058 	cmpnei	r2,r2,1
    133c:	1000171e 	bne	r2,zero,139c <vPolledQueueConsumer+0xa4>
			{
				if( usData != usExpectedValue )
    1340:	e0bffe0b 	ldhu	r2,-8(fp)
    1344:	10ffffcc 	andi	r3,r2,65535
    1348:	e0bffc0b 	ldhu	r2,-16(fp)
    134c:	18800526 	beq	r3,r2,1364 <vPolledQueueConsumer+0x6c>
				{
					/* This is not what we expected to receive so an error has
					occurred. */
					xError = pdTRUE;
    1350:	00800044 	movi	r2,1
    1354:	e0bffd15 	stw	r2,-12(fp)

					/* Catch-up to the value we received so our next expected
					value should again be correct. */
					usExpectedValue = usData;
    1358:	e0bffe0b 	ldhu	r2,-8(fp)
    135c:	e0bffc0d 	sth	r2,-16(fp)
    1360:	00000b06 	br	1390 <vPolledQueueConsumer+0x98>
				}
				else
				{
					if( xError == pdFALSE )
    1364:	e0bffd17 	ldw	r2,-12(fp)
    1368:	1000091e 	bne	r2,zero,1390 <vPolledQueueConsumer+0x98>
					{
						/* Only increment the check variable if no errors have
						occurred. */
						portENTER_CRITICAL();
    136c:	0010ebc0 	call	10ebc <xTaskGetSchedulerState>
    1370:	10000126 	beq	r2,zero,1378 <vPolledQueueConsumer+0x80>
    1374:	00110d00 	call	110d0 <vTaskEnterCritical>
							xPollingConsumerCount++;
    1378:	d0a8c517 	ldw	r2,-23788(gp)
    137c:	10800044 	addi	r2,r2,1
    1380:	d0a8c515 	stw	r2,-23788(gp)
						portEXIT_CRITICAL();
    1384:	0010ebc0 	call	10ebc <xTaskGetSchedulerState>
    1388:	10000126 	beq	r2,zero,1390 <vPolledQueueConsumer+0x98>
    138c:	00111100 	call	11110 <vTaskExitCritical>
					}
				}

				/* Next time round we would expect the number to be one higher. */
				usExpectedValue++;
    1390:	e0bffc0b 	ldhu	r2,-16(fp)
    1394:	10800044 	addi	r2,r2,1
    1398:	e0bffc0d 	sth	r2,-16(fp)
signed portBASE_TYPE xError = pdFALSE;

	for( ;; )
	{		
		/* Loop until the queue is empty. */
		while( uxQueueMessagesWaiting( *( ( xQueueHandle * ) pvParameters ) ) )
    139c:	e0bfff17 	ldw	r2,-4(fp)
    13a0:	10800017 	ldw	r2,0(r2)
    13a4:	1009883a 	mov	r4,r2
    13a8:	000eef40 	call	eef4 <uxQueueMessagesWaiting>
    13ac:	103fda1e 	bne	r2,zero,1318 <vPolledQueueConsumer+0x20>
			}
		}

		/* Now the queue is empty we block, allowing the producer to place more
		items in the queue. */
		vTaskDelay( pollqCONSUMER_DELAY );
    13b0:	01002d04 	movi	r4,180
    13b4:	000f8c00 	call	f8c0 <vTaskDelay>
	}
    13b8:	0001883a 	nop
signed portBASE_TYPE xError = pdFALSE;

	for( ;; )
	{		
		/* Loop until the queue is empty. */
		while( uxQueueMessagesWaiting( *( ( xQueueHandle * ) pvParameters ) ) )
    13bc:	003ff706 	br	139c <vPolledQueueConsumer+0xa4>

000013c0 <xArePollingQueuesStillRunning>:
} /*lint !e818 Function prototype must conform to API. */
/*-----------------------------------------------------------*/

/* This is called to check that all the created tasks are still running with no errors. */
portBASE_TYPE xArePollingQueuesStillRunning( void )
{
    13c0:	defffe04 	addi	sp,sp,-8
    13c4:	df000115 	stw	fp,4(sp)
    13c8:	df000104 	addi	fp,sp,4

	/* Check both the consumer and producer poll count to check they have both
	been changed since out last trip round.  We do not need a critical section
	around the check variables as this is called from a higher priority than
	the other tasks that access the same variables. */
	if( ( xPollingConsumerCount == pollqINITIAL_VALUE ) ||
    13cc:	d0a8c517 	ldw	r2,-23788(gp)
    13d0:	10000226 	beq	r2,zero,13dc <xArePollingQueuesStillRunning+0x1c>
		( xPollingProducerCount == pollqINITIAL_VALUE )
    13d4:	d0a8c617 	ldw	r2,-23784(gp)

	/* Check both the consumer and producer poll count to check they have both
	been changed since out last trip round.  We do not need a critical section
	around the check variables as this is called from a higher priority than
	the other tasks that access the same variables. */
	if( ( xPollingConsumerCount == pollqINITIAL_VALUE ) ||
    13d8:	1000021e 	bne	r2,zero,13e4 <xArePollingQueuesStillRunning+0x24>
		( xPollingProducerCount == pollqINITIAL_VALUE )
	  )
	{
		xReturn = pdFALSE;
    13dc:	e03fff15 	stw	zero,-4(fp)
    13e0:	00000206 	br	13ec <xArePollingQueuesStillRunning+0x2c>
	}
	else
	{
		xReturn = pdTRUE;
    13e4:	00800044 	movi	r2,1
    13e8:	e0bfff15 	stw	r2,-4(fp)
	}

	/* Set the check variables back down so we know if they have been
	incremented the next time around. */
	xPollingConsumerCount = pollqINITIAL_VALUE;
    13ec:	d028c515 	stw	zero,-23788(gp)
	xPollingProducerCount = pollqINITIAL_VALUE;
    13f0:	d028c615 	stw	zero,-23784(gp)

	return xReturn;
    13f4:	e0bfff17 	ldw	r2,-4(fp)
}
    13f8:	e037883a 	mov	sp,fp
    13fc:	df000017 	ldw	fp,0(sp)
    1400:	dec00104 	addi	sp,sp,4
    1404:	f800283a 	ret

00001408 <vStartQueuePeekTasks>:
/* Handles to the test tasks. */
xTaskHandle xMediumPriorityTask, xHighPriorityTask, xHighestPriorityTask;
/*-----------------------------------------------------------*/

void vStartQueuePeekTasks( void )
{
    1408:	defff904 	addi	sp,sp,-28
    140c:	dfc00615 	stw	ra,24(sp)
    1410:	df000515 	stw	fp,20(sp)
    1414:	df000504 	addi	fp,sp,20
xQueueHandle xQueue;

	/* Create the queue that we are going to use for the test/demo. */
	xQueue = xQueueCreate( qpeekQUEUE_LENGTH, sizeof( unsigned portLONG ) );
    1418:	01000144 	movi	r4,5
    141c:	01400104 	movi	r5,4
    1420:	000d883a 	mov	r6,zero
    1424:	000e6380 	call	e638 <xQueueGenericCreate>
    1428:	e0bfff15 	stw	r2,-4(fp)
	vQueueAddToRegistry( xQueue, ( signed portCHAR * ) "QPeek_Test_Queue" );

	/* Create the demo tasks and pass it the queue just created.  We are
	passing the queue handle by value so it does not matter that it is declared
	on the stack here. */
	xTaskCreate( prvLowPriorityPeekTask, ( signed portCHAR * )"PeekL", configMINIMAL_STACK_SIZE, ( void * ) xQueue, qpeekLOW_PRIORITY, NULL );
    142c:	d8000015 	stw	zero,0(sp)
    1430:	d8000115 	stw	zero,4(sp)
    1434:	d8000215 	stw	zero,8(sp)
    1438:	d8000315 	stw	zero,12(sp)
    143c:	01000034 	movhi	r4,0
    1440:	2105f004 	addi	r4,r4,6080
    1444:	01400134 	movhi	r5,4
    1448:	297e5904 	addi	r5,r5,-1692
    144c:	018c9604 	movi	r6,12888
    1450:	e1ffff17 	ldw	r7,-4(fp)
    1454:	000f5140 	call	f514 <xTaskGenericCreate>
	xTaskCreate( prvMediumPriorityPeekTask, ( signed portCHAR * )"PeekM", configMINIMAL_STACK_SIZE, ( void * ) xQueue, qpeekMEDIUM_PRIORITY, &xMediumPriorityTask );
    1458:	00800044 	movi	r2,1
    145c:	d8800015 	stw	r2,0(sp)
    1460:	d0a8cc04 	addi	r2,gp,-23760
    1464:	d8800115 	stw	r2,4(sp)
    1468:	d8000215 	stw	zero,8(sp)
    146c:	d8000315 	stw	zero,12(sp)
    1470:	01000034 	movhi	r4,0
    1474:	2105cd04 	addi	r4,r4,5940
    1478:	01400134 	movhi	r5,4
    147c:	297e5b04 	addi	r5,r5,-1684
    1480:	018c9604 	movi	r6,12888
    1484:	e1ffff17 	ldw	r7,-4(fp)
    1488:	000f5140 	call	f514 <xTaskGenericCreate>
	xTaskCreate( prvHighPriorityPeekTask, ( signed portCHAR * )"PeekH1", configMINIMAL_STACK_SIZE, ( void * ) xQueue, qpeekHIGH_PRIORITY, &xHighPriorityTask );
    148c:	00800084 	movi	r2,2
    1490:	d8800015 	stw	r2,0(sp)
    1494:	d0a8cb04 	addi	r2,gp,-23764
    1498:	d8800115 	stw	r2,4(sp)
    149c:	d8000215 	stw	zero,8(sp)
    14a0:	d8000315 	stw	zero,12(sp)
    14a4:	01000034 	movhi	r4,0
    14a8:	21059b04 	addi	r4,r4,5740
    14ac:	01400134 	movhi	r5,4
    14b0:	297e5d04 	addi	r5,r5,-1676
    14b4:	018c9604 	movi	r6,12888
    14b8:	e1ffff17 	ldw	r7,-4(fp)
    14bc:	000f5140 	call	f514 <xTaskGenericCreate>
	xTaskCreate( prvHighestPriorityPeekTask, ( signed portCHAR * )"PeekH2", configMINIMAL_STACK_SIZE, ( void * ) xQueue, qpeekHIGHEST_PRIORITY, &xHighestPriorityTask );
    14c0:	008000c4 	movi	r2,3
    14c4:	d8800015 	stw	r2,0(sp)
    14c8:	d0a8cd04 	addi	r2,gp,-23756
    14cc:	d8800115 	stw	r2,4(sp)
    14d0:	d8000215 	stw	zero,8(sp)
    14d4:	d8000315 	stw	zero,12(sp)
    14d8:	01000034 	movhi	r4,0
    14dc:	21054204 	addi	r4,r4,5384
    14e0:	01400134 	movhi	r5,4
    14e4:	297e5f04 	addi	r5,r5,-1668
    14e8:	018c9604 	movi	r6,12888
    14ec:	e1ffff17 	ldw	r7,-4(fp)
    14f0:	000f5140 	call	f514 <xTaskGenericCreate>
}
    14f4:	e037883a 	mov	sp,fp
    14f8:	dfc00117 	ldw	ra,4(sp)
    14fc:	df000017 	ldw	fp,0(sp)
    1500:	dec00204 	addi	sp,sp,8
    1504:	f800283a 	ret

00001508 <prvHighestPriorityPeekTask>:
/*-----------------------------------------------------------*/

static void prvHighestPriorityPeekTask( void *pvParameters )
{
    1508:	defffb04 	addi	sp,sp,-20
    150c:	dfc00415 	stw	ra,16(sp)
    1510:	df000315 	stw	fp,12(sp)
    1514:	df000304 	addi	fp,sp,12
    1518:	e13fff15 	stw	r4,-4(fp)
xQueueHandle xQueue = ( xQueueHandle ) pvParameters;
    151c:	e0bfff17 	ldw	r2,-4(fp)
    1520:	e0bffd15 	stw	r2,-12(fp)

	for( ;; )
	{
		/* Try peeking from the queue.  The queue should be empty so we will
		block, allowing the high priority task to execute. */
		if( xQueuePeek( xQueue, &ulValue, portMAX_DELAY ) != pdPASS )
    1524:	e0bffe04 	addi	r2,fp,-8
    1528:	e13ffd17 	ldw	r4,-12(fp)
    152c:	100b883a 	mov	r5,r2
    1530:	01bfffc4 	movi	r6,-1
    1534:	01c00044 	movi	r7,1
    1538:	000ebd80 	call	ebd8 <xQueueGenericReceive>
    153c:	10800060 	cmpeqi	r2,r2,1
    1540:	1000021e 	bne	r2,zero,154c <prvHighestPriorityPeekTask+0x44>
		{
			/* We expected to have received something by the time we unblock. */
			xErrorDetected = pdTRUE;
    1544:	00800044 	movi	r2,1
    1548:	d0a8c815 	stw	r2,-23776(gp)
		be blocked on the queue.  We unblocked because the low priority task
		wrote a value to the queue, which we should have peeked.  Peeking the
		data (rather than receiving it) will leave the data on the queue, so
		the high priority task should then have also been unblocked, but not
		yet executed. */
		if( ulValue != 0x11223344 )
    154c:	e0fffe17 	ldw	r3,-8(fp)
    1550:	008448b4 	movhi	r2,4386
    1554:	108cd104 	addi	r2,r2,13124
    1558:	18800226 	beq	r3,r2,1564 <prvHighestPriorityPeekTask+0x5c>
		{
			/* We did not receive the expected value. */
			xErrorDetected = pdTRUE;
    155c:	00800044 	movi	r2,1
    1560:	d0a8c815 	stw	r2,-23776(gp)
		}

		if( uxQueueMessagesWaiting( xQueue ) != 1 )
    1564:	e13ffd17 	ldw	r4,-12(fp)
    1568:	000eef40 	call	eef4 <uxQueueMessagesWaiting>
    156c:	10800060 	cmpeqi	r2,r2,1
    1570:	1000021e 	bne	r2,zero,157c <prvHighestPriorityPeekTask+0x74>
		{
			/* The message should have been left on the queue. */
			xErrorDetected = pdTRUE;
    1574:	00800044 	movi	r2,1
    1578:	d0a8c815 	stw	r2,-23776(gp)
		}

		/* Now we are going to actually receive the data, so when the high
		priority task runs it will find the queue empty and return to the
		blocked state. */
		ulValue = 0;
    157c:	e03ffe15 	stw	zero,-8(fp)
		if( xQueueReceive( xQueue, &ulValue, qpeekNO_BLOCK ) != pdPASS )
    1580:	e0bffe04 	addi	r2,fp,-8
    1584:	e13ffd17 	ldw	r4,-12(fp)
    1588:	100b883a 	mov	r5,r2
    158c:	000d883a 	mov	r6,zero
    1590:	000f883a 	mov	r7,zero
    1594:	000ebd80 	call	ebd8 <xQueueGenericReceive>
    1598:	10800060 	cmpeqi	r2,r2,1
    159c:	1000021e 	bne	r2,zero,15a8 <prvHighestPriorityPeekTask+0xa0>
		{
			/* We expected to receive the value. */
			xErrorDetected = pdTRUE;
    15a0:	00800044 	movi	r2,1
    15a4:	d0a8c815 	stw	r2,-23776(gp)
		}

		if( ulValue != 0x11223344 )
    15a8:	e0fffe17 	ldw	r3,-8(fp)
    15ac:	008448b4 	movhi	r2,4386
    15b0:	108cd104 	addi	r2,r2,13124
    15b4:	18800226 	beq	r3,r2,15c0 <prvHighestPriorityPeekTask+0xb8>
		{
			/* We did not receive the expected value - which should have been
			the same value as was peeked. */
			xErrorDetected = pdTRUE;
    15b8:	00800044 	movi	r2,1
    15bc:	d0a8c815 	stw	r2,-23776(gp)
		}

		/* Now we will block again as the queue is once more empty.  The low 
		priority task can then execute again. */
		if( xQueuePeek( xQueue, &ulValue, portMAX_DELAY ) != pdPASS )
    15c0:	e0bffe04 	addi	r2,fp,-8
    15c4:	e13ffd17 	ldw	r4,-12(fp)
    15c8:	100b883a 	mov	r5,r2
    15cc:	01bfffc4 	movi	r6,-1
    15d0:	01c00044 	movi	r7,1
    15d4:	000ebd80 	call	ebd8 <xQueueGenericReceive>
    15d8:	10800060 	cmpeqi	r2,r2,1
    15dc:	1000021e 	bne	r2,zero,15e8 <prvHighestPriorityPeekTask+0xe0>
		{
			/* We expected to have received something by the time we unblock. */
			xErrorDetected = pdTRUE;
    15e0:	00800044 	movi	r2,1
    15e4:	d0a8c815 	stw	r2,-23776(gp)
		}

		/* When we get here the low priority task should have again written to the
		queue. */
		if( ulValue != 0x01234567 )
    15e8:	e0fffe17 	ldw	r3,-8(fp)
    15ec:	008048f4 	movhi	r2,291
    15f0:	109159c4 	addi	r2,r2,17767
    15f4:	18800226 	beq	r3,r2,1600 <prvHighestPriorityPeekTask+0xf8>
		{
			/* We did not receive the expected value. */
			xErrorDetected = pdTRUE;
    15f8:	00800044 	movi	r2,1
    15fc:	d0a8c815 	stw	r2,-23776(gp)
		}

		if( uxQueueMessagesWaiting( xQueue ) != 1 )
    1600:	e13ffd17 	ldw	r4,-12(fp)
    1604:	000eef40 	call	eef4 <uxQueueMessagesWaiting>
    1608:	10800060 	cmpeqi	r2,r2,1
    160c:	1000021e 	bne	r2,zero,1618 <prvHighestPriorityPeekTask+0x110>
		{
			/* The message should have been left on the queue. */
			xErrorDetected = pdTRUE;
    1610:	00800044 	movi	r2,1
    1614:	d0a8c815 	stw	r2,-23776(gp)

		/* We only peeked the data, so suspending ourselves now should enable
		the high priority task to also peek the data.  The high priority task
		will have been unblocked when we peeked the data as we left the data
		in the queue. */
		vTaskSuspend( NULL );
    1618:	0009883a 	mov	r4,zero
    161c:	000fb300 	call	fb30 <vTaskSuspend>


		/* This time we are going to do the same as the above test, but the
		high priority task is going to receive the data, rather than peek it.
		This means that the medium priority task should never peek the value. */
		if( xQueuePeek( xQueue, &ulValue, portMAX_DELAY ) != pdPASS )
    1620:	e0bffe04 	addi	r2,fp,-8
    1624:	e13ffd17 	ldw	r4,-12(fp)
    1628:	100b883a 	mov	r5,r2
    162c:	01bfffc4 	movi	r6,-1
    1630:	01c00044 	movi	r7,1
    1634:	000ebd80 	call	ebd8 <xQueueGenericReceive>
    1638:	10800060 	cmpeqi	r2,r2,1
    163c:	1000021e 	bne	r2,zero,1648 <prvHighestPriorityPeekTask+0x140>
		{
			xErrorDetected = pdTRUE;
    1640:	00800044 	movi	r2,1
    1644:	d0a8c815 	stw	r2,-23776(gp)
		}

		if( ulValue != 0xaabbaabb )
    1648:	e0fffe17 	ldw	r3,-8(fp)
    164c:	00aaaf34 	movhi	r2,43708
    1650:	10aaaec4 	addi	r2,r2,-21829
    1654:	18800226 	beq	r3,r2,1660 <prvHighestPriorityPeekTask+0x158>
		{
			xErrorDetected = pdTRUE;
    1658:	00800044 	movi	r2,1
    165c:	d0a8c815 	stw	r2,-23776(gp)
		}

		vTaskSuspend( NULL );		
    1660:	0009883a 	mov	r4,zero
    1664:	000fb300 	call	fb30 <vTaskSuspend>
	}
    1668:	003fae06 	br	1524 <prvHighestPriorityPeekTask+0x1c>

0000166c <prvHighPriorityPeekTask>:
}
/*-----------------------------------------------------------*/

static void prvHighPriorityPeekTask( void *pvParameters )
{
    166c:	defffb04 	addi	sp,sp,-20
    1670:	dfc00415 	stw	ra,16(sp)
    1674:	df000315 	stw	fp,12(sp)
    1678:	df000304 	addi	fp,sp,12
    167c:	e13fff15 	stw	r4,-4(fp)
xQueueHandle xQueue = ( xQueueHandle ) pvParameters;
    1680:	e0bfff17 	ldw	r2,-4(fp)
    1684:	e0bffd15 	stw	r2,-12(fp)
	for( ;; )
	{
		/* Try peeking from the queue.  The queue should be empty so we will
		block, allowing the medium priority task to execute.  Both the high
		and highest priority tasks will then be blocked on the queue. */
		if( xQueuePeek( xQueue, &ulValue, portMAX_DELAY ) != pdPASS )
    1688:	e0bffe04 	addi	r2,fp,-8
    168c:	e13ffd17 	ldw	r4,-12(fp)
    1690:	100b883a 	mov	r5,r2
    1694:	01bfffc4 	movi	r6,-1
    1698:	01c00044 	movi	r7,1
    169c:	000ebd80 	call	ebd8 <xQueueGenericReceive>
    16a0:	10800060 	cmpeqi	r2,r2,1
    16a4:	1000021e 	bne	r2,zero,16b0 <prvHighPriorityPeekTask+0x44>
		{
			/* We expected to have received something by the time we unblock. */
			xErrorDetected = pdTRUE;
    16a8:	00800044 	movi	r2,1
    16ac:	d0a8c815 	stw	r2,-23776(gp)
		}

		/* When we get here the highest priority task should have peeked the data
		(unblocking this task) then suspended (allowing this task to also peek
		the data). */
		if( ulValue != 0x01234567 )
    16b0:	e0fffe17 	ldw	r3,-8(fp)
    16b4:	008048f4 	movhi	r2,291
    16b8:	109159c4 	addi	r2,r2,17767
    16bc:	18800226 	beq	r3,r2,16c8 <prvHighPriorityPeekTask+0x5c>
		{
			/* We did not receive the expected value. */
			xErrorDetected = pdTRUE;
    16c0:	00800044 	movi	r2,1
    16c4:	d0a8c815 	stw	r2,-23776(gp)
		}

		if( uxQueueMessagesWaiting( xQueue ) != 1 )
    16c8:	e13ffd17 	ldw	r4,-12(fp)
    16cc:	000eef40 	call	eef4 <uxQueueMessagesWaiting>
    16d0:	10800060 	cmpeqi	r2,r2,1
    16d4:	1000021e 	bne	r2,zero,16e0 <prvHighPriorityPeekTask+0x74>
		{
			/* The message should have been left on the queue. */
			xErrorDetected = pdTRUE;
    16d8:	00800044 	movi	r2,1
    16dc:	d0a8c815 	stw	r2,-23776(gp)

		/* We only peeked the data, so suspending ourselves now should enable
		the medium priority task to also peek the data.  The medium priority task
		will have been unblocked when we peeked the data as we left the data
		in the queue. */
		vTaskSuspend( NULL );
    16e0:	0009883a 	mov	r4,zero
    16e4:	000fb300 	call	fb30 <vTaskSuspend>


		/* This time we are going actually receive the value, so the medium
		priority task will never peek the data - we removed it from the queue. */
		if( xQueueReceive( xQueue, &ulValue, portMAX_DELAY ) != pdPASS )
    16e8:	e0bffe04 	addi	r2,fp,-8
    16ec:	e13ffd17 	ldw	r4,-12(fp)
    16f0:	100b883a 	mov	r5,r2
    16f4:	01bfffc4 	movi	r6,-1
    16f8:	000f883a 	mov	r7,zero
    16fc:	000ebd80 	call	ebd8 <xQueueGenericReceive>
    1700:	10800060 	cmpeqi	r2,r2,1
    1704:	1000021e 	bne	r2,zero,1710 <prvHighPriorityPeekTask+0xa4>
		{
			xErrorDetected = pdTRUE;
    1708:	00800044 	movi	r2,1
    170c:	d0a8c815 	stw	r2,-23776(gp)
		}

		if( ulValue != 0xaabbaabb )
    1710:	e0fffe17 	ldw	r3,-8(fp)
    1714:	00aaaf34 	movhi	r2,43708
    1718:	10aaaec4 	addi	r2,r2,-21829
    171c:	18800226 	beq	r3,r2,1728 <prvHighPriorityPeekTask+0xbc>
		{
			xErrorDetected = pdTRUE;
    1720:	00800044 	movi	r2,1
    1724:	d0a8c815 	stw	r2,-23776(gp)
		}

		vTaskSuspend( NULL );				
    1728:	0009883a 	mov	r4,zero
    172c:	000fb300 	call	fb30 <vTaskSuspend>
	}
    1730:	003fd506 	br	1688 <prvHighPriorityPeekTask+0x1c>

00001734 <prvMediumPriorityPeekTask>:
}
/*-----------------------------------------------------------*/

static void prvMediumPriorityPeekTask( void *pvParameters )
{
    1734:	defffb04 	addi	sp,sp,-20
    1738:	dfc00415 	stw	ra,16(sp)
    173c:	df000315 	stw	fp,12(sp)
    1740:	df000304 	addi	fp,sp,12
    1744:	e13fff15 	stw	r4,-4(fp)
xQueueHandle xQueue = ( xQueueHandle ) pvParameters;
    1748:	e0bfff17 	ldw	r2,-4(fp)
    174c:	e0bffd15 	stw	r2,-12(fp)
	for( ;; )
	{
		/* Try peeking from the queue.  The queue should be empty so we will
		block, allowing the low priority task to execute.  The highest, high
		and medium priority tasks will then all be blocked on the queue. */
		if( xQueuePeek( xQueue, &ulValue, portMAX_DELAY ) != pdPASS )
    1750:	e0bffe04 	addi	r2,fp,-8
    1754:	e13ffd17 	ldw	r4,-12(fp)
    1758:	100b883a 	mov	r5,r2
    175c:	01bfffc4 	movi	r6,-1
    1760:	01c00044 	movi	r7,1
    1764:	000ebd80 	call	ebd8 <xQueueGenericReceive>
    1768:	10800060 	cmpeqi	r2,r2,1
    176c:	1000021e 	bne	r2,zero,1778 <prvMediumPriorityPeekTask+0x44>
		{
			/* We expected to have received something by the time we unblock. */
			xErrorDetected = pdTRUE;
    1770:	00800044 	movi	r2,1
    1774:	d0a8c815 	stw	r2,-23776(gp)
		}

		/* When we get here the high priority task should have peeked the data
		(unblocking this task) then suspended (allowing this task to also peek
		the data). */
		if( ulValue != 0x01234567 )
    1778:	e0fffe17 	ldw	r3,-8(fp)
    177c:	008048f4 	movhi	r2,291
    1780:	109159c4 	addi	r2,r2,17767
    1784:	18800226 	beq	r3,r2,1790 <prvMediumPriorityPeekTask+0x5c>
		{
			/* We did not receive the expected value. */
			xErrorDetected = pdTRUE;
    1788:	00800044 	movi	r2,1
    178c:	d0a8c815 	stw	r2,-23776(gp)
		}

		if( uxQueueMessagesWaiting( xQueue ) != 1 )
    1790:	e13ffd17 	ldw	r4,-12(fp)
    1794:	000eef40 	call	eef4 <uxQueueMessagesWaiting>
    1798:	10800060 	cmpeqi	r2,r2,1
    179c:	1000021e 	bne	r2,zero,17a8 <prvMediumPriorityPeekTask+0x74>
		{
			/* The message should have been left on the queue. */
			xErrorDetected = pdTRUE;
    17a0:	00800044 	movi	r2,1
    17a4:	d0a8c815 	stw	r2,-23776(gp)
		}

		/* Just so we know the test is still running. */
		ulLoopCounter++;
    17a8:	d0a8c917 	ldw	r2,-23772(gp)
    17ac:	10800044 	addi	r2,r2,1
    17b0:	d0a8c915 	stw	r2,-23772(gp)

		/* Now we can suspend ourselves so the low priority task can execute
		again. */
		vTaskSuspend( NULL );
    17b4:	0009883a 	mov	r4,zero
    17b8:	000fb300 	call	fb30 <vTaskSuspend>
	}
    17bc:	003fe406 	br	1750 <prvMediumPriorityPeekTask+0x1c>

000017c0 <prvLowPriorityPeekTask>:
}
/*-----------------------------------------------------------*/

static void prvLowPriorityPeekTask( void *pvParameters )
{
    17c0:	defffb04 	addi	sp,sp,-20
    17c4:	dfc00415 	stw	ra,16(sp)
    17c8:	df000315 	stw	fp,12(sp)
    17cc:	df000304 	addi	fp,sp,12
    17d0:	e13fff15 	stw	r4,-4(fp)
xQueueHandle xQueue = ( xQueueHandle ) pvParameters;
    17d4:	e0bfff17 	ldw	r2,-4(fp)
    17d8:	e0bffd15 	stw	r2,-12(fp)

	for( ;; )
	{
		/* Write some data to the queue.  This should unblock the highest 
		priority task that is waiting to peek data from the queue. */
		ulValue = 0x11223344;
    17dc:	008448b4 	movhi	r2,4386
    17e0:	108cd104 	addi	r2,r2,13124
    17e4:	e0bffe15 	stw	r2,-8(fp)
		if( xQueueSendToBack( xQueue, &ulValue, qpeekNO_BLOCK ) != pdPASS )
    17e8:	e0bffe04 	addi	r2,fp,-8
    17ec:	e13ffd17 	ldw	r4,-12(fp)
    17f0:	100b883a 	mov	r5,r2
    17f4:	000d883a 	mov	r6,zero
    17f8:	000f883a 	mov	r7,zero
    17fc:	000e95c0 	call	e95c <xQueueGenericSend>
    1800:	10800060 	cmpeqi	r2,r2,1
    1804:	1000021e 	bne	r2,zero,1810 <prvLowPriorityPeekTask+0x50>
		{
			/* We were expecting the queue to be empty so we should not of
			had a problem writing to the queue. */
			xErrorDetected = pdTRUE;
    1808:	00800044 	movi	r2,1
    180c:	d0a8c815 	stw	r2,-23776(gp)
		}

		/* By the time we get here the data should have been removed from
		the queue. */
		if( uxQueueMessagesWaiting( xQueue ) != 0 )
    1810:	e13ffd17 	ldw	r4,-12(fp)
    1814:	000eef40 	call	eef4 <uxQueueMessagesWaiting>
    1818:	10000226 	beq	r2,zero,1824 <prvLowPriorityPeekTask+0x64>
		{
			xErrorDetected = pdTRUE;
    181c:	00800044 	movi	r2,1
    1820:	d0a8c815 	stw	r2,-23776(gp)
		}

		/* Write another value to the queue, again waking the highest priority
		task that is blocked on the queue. */
		ulValue = 0x01234567;
    1824:	008048f4 	movhi	r2,291
    1828:	109159c4 	addi	r2,r2,17767
    182c:	e0bffe15 	stw	r2,-8(fp)
		if( xQueueSendToBack( xQueue, &ulValue, qpeekNO_BLOCK ) != pdPASS )
    1830:	e0bffe04 	addi	r2,fp,-8
    1834:	e13ffd17 	ldw	r4,-12(fp)
    1838:	100b883a 	mov	r5,r2
    183c:	000d883a 	mov	r6,zero
    1840:	000f883a 	mov	r7,zero
    1844:	000e95c0 	call	e95c <xQueueGenericSend>
    1848:	10800060 	cmpeqi	r2,r2,1
    184c:	1000021e 	bne	r2,zero,1858 <prvLowPriorityPeekTask+0x98>
		{
			/* We were expecting the queue to be empty so we should not of
			had a problem writing to the queue. */
			xErrorDetected = pdTRUE;
    1850:	00800044 	movi	r2,1
    1854:	d0a8c815 	stw	r2,-23776(gp)
		}

		/* All the other tasks should now have successfully peeked the data.
		The data is still in the queue so we should be able to receive it. */
		ulValue = 0;
    1858:	e03ffe15 	stw	zero,-8(fp)
		if( xQueueReceive( xQueue, &ulValue, qpeekNO_BLOCK ) != pdPASS )
    185c:	e0bffe04 	addi	r2,fp,-8
    1860:	e13ffd17 	ldw	r4,-12(fp)
    1864:	100b883a 	mov	r5,r2
    1868:	000d883a 	mov	r6,zero
    186c:	000f883a 	mov	r7,zero
    1870:	000ebd80 	call	ebd8 <xQueueGenericReceive>
    1874:	10800060 	cmpeqi	r2,r2,1
    1878:	1000021e 	bne	r2,zero,1884 <prvLowPriorityPeekTask+0xc4>
		{
			/* We expected to receive the data. */
			xErrorDetected = pdTRUE;
    187c:	00800044 	movi	r2,1
    1880:	d0a8c815 	stw	r2,-23776(gp)
			/* We did not receive the expected value. */
		}
		
		/* Lets just delay a while as this is an intensive test as we don't
		want to starve other tests of processing time. */
		vTaskDelay( qpeekSHORT_DELAY );
    1884:	01000284 	movi	r4,10
    1888:	000f8c00 	call	f8c0 <vTaskDelay>
		/* Unsuspend the other tasks so we can repeat the test - this time
		however not all the other tasks will peek the data as the high
		priority task is actually going to remove it from the queue.  Send
		to front is used just to be different.  As the queue is empty it
		makes no difference to the result. */
		vTaskResume( xMediumPriorityTask );
    188c:	d0a8cc17 	ldw	r2,-23760(gp)
    1890:	1009883a 	mov	r4,r2
    1894:	000fc800 	call	fc80 <vTaskResume>
		vTaskResume( xHighPriorityTask );
    1898:	d0a8cb17 	ldw	r2,-23764(gp)
    189c:	1009883a 	mov	r4,r2
    18a0:	000fc800 	call	fc80 <vTaskResume>
		vTaskResume( xHighestPriorityTask );
    18a4:	d0a8cd17 	ldw	r2,-23756(gp)
    18a8:	1009883a 	mov	r4,r2
    18ac:	000fc800 	call	fc80 <vTaskResume>

		ulValue = 0xaabbaabb;
    18b0:	00aaaf34 	movhi	r2,43708
    18b4:	10aaaec4 	addi	r2,r2,-21829
    18b8:	e0bffe15 	stw	r2,-8(fp)
		if( xQueueSendToFront( xQueue, &ulValue, qpeekNO_BLOCK ) != pdPASS )
    18bc:	e0bffe04 	addi	r2,fp,-8
    18c0:	e13ffd17 	ldw	r4,-12(fp)
    18c4:	100b883a 	mov	r5,r2
    18c8:	000d883a 	mov	r6,zero
    18cc:	01c00044 	movi	r7,1
    18d0:	000e95c0 	call	e95c <xQueueGenericSend>
    18d4:	10800060 	cmpeqi	r2,r2,1
    18d8:	1000021e 	bne	r2,zero,18e4 <prvLowPriorityPeekTask+0x124>
		{
			/* We were expecting the queue to be empty so we should not of
			had a problem writing to the queue. */
			xErrorDetected = pdTRUE;
    18dc:	00800044 	movi	r2,1
    18e0:	d0a8c815 	stw	r2,-23776(gp)
		}

		/* This time we should find that the queue is empty.  The high priority
		task actually removed the data rather than just peeking it. */
		if( xQueuePeek( xQueue, &ulValue, qpeekNO_BLOCK ) != errQUEUE_EMPTY )
    18e4:	e0bffe04 	addi	r2,fp,-8
    18e8:	e13ffd17 	ldw	r4,-12(fp)
    18ec:	100b883a 	mov	r5,r2
    18f0:	000d883a 	mov	r6,zero
    18f4:	01c00044 	movi	r7,1
    18f8:	000ebd80 	call	ebd8 <xQueueGenericReceive>
    18fc:	10000226 	beq	r2,zero,1908 <prvLowPriorityPeekTask+0x148>
		{
			/* We expected to receive the data. */
			xErrorDetected = pdTRUE;
    1900:	00800044 	movi	r2,1
    1904:	d0a8c815 	stw	r2,-23776(gp)
		}

		/* Unsuspend the highest and high priority tasks so we can go back
		and repeat the whole thing.  The medium priority task should not be
		suspended as it was not able to peek the data in this last case. */
		vTaskResume( xHighPriorityTask );
    1908:	d0a8cb17 	ldw	r2,-23764(gp)
    190c:	1009883a 	mov	r4,r2
    1910:	000fc800 	call	fc80 <vTaskResume>
		vTaskResume( xHighestPriorityTask );		
    1914:	d0a8cd17 	ldw	r2,-23756(gp)
    1918:	1009883a 	mov	r4,r2
    191c:	000fc800 	call	fc80 <vTaskResume>

		/* Lets just delay a while as this is an intensive test as we don't
		want to starve other tests of processing time. */
		vTaskDelay( qpeekSHORT_DELAY );
    1920:	01000284 	movi	r4,10
    1924:	000f8c00 	call	f8c0 <vTaskDelay>
	}
    1928:	003fac06 	br	17dc <prvLowPriorityPeekTask+0x1c>

0000192c <xAreQueuePeekTasksStillRunning>:
}
/*-----------------------------------------------------------*/

/* This is called to check that all the created tasks are still running. */
portBASE_TYPE xAreQueuePeekTasksStillRunning( void )
{
    192c:	deffff04 	addi	sp,sp,-4
    1930:	df000015 	stw	fp,0(sp)
    1934:	d839883a 	mov	fp,sp
static unsigned portLONG ulLastLoopCounter = 0;

	/* If the demo task is still running then we expect the loopcounter to
	have incremented since this function was last called. */
	if( ulLastLoopCounter == ulLoopCounter )
    1938:	d0e8ca17 	ldw	r3,-23768(gp)
    193c:	d0a8c917 	ldw	r2,-23772(gp)
    1940:	1880021e 	bne	r3,r2,194c <xAreQueuePeekTasksStillRunning+0x20>
	{
		xErrorDetected = pdTRUE;
    1944:	00800044 	movi	r2,1
    1948:	d0a8c815 	stw	r2,-23776(gp)
	}

	ulLastLoopCounter = ulLoopCounter;
    194c:	d0a8c917 	ldw	r2,-23772(gp)
    1950:	d0a8ca15 	stw	r2,-23768(gp)

	/* Errors detected in the task itself will have latched xErrorDetected
	to true. */

	return !xErrorDetected;
    1954:	d0a8c817 	ldw	r2,-23776(gp)
    1958:	1005003a 	cmpeq	r2,r2,zero
    195c:	10803fcc 	andi	r2,r2,255
}
    1960:	e037883a 	mov	sp,fp
    1964:	df000017 	ldw	fp,0(sp)
    1968:	dec00104 	addi	sp,sp,4
    196c:	f800283a 	ret

00001970 <vCreateBlockTimeTasks>:
static void vSecondaryBlockTimeTestTask( void *pvParameters );

/*-----------------------------------------------------------*/

void vCreateBlockTimeTasks( void )
{
    1970:	defffa04 	addi	sp,sp,-24
    1974:	dfc00515 	stw	ra,20(sp)
    1978:	df000415 	stw	fp,16(sp)
    197c:	df000404 	addi	fp,sp,16
	/* Create the queue on which the two tasks block. */
    xTestQueue = xQueueCreate( bktQUEUE_LENGTH, sizeof( portBASE_TYPE ) );
    1980:	01000144 	movi	r4,5
    1984:	01400104 	movi	r5,4
    1988:	000d883a 	mov	r6,zero
    198c:	000e6380 	call	e638 <xQueueGenericCreate>
    1990:	d0a8ce15 	stw	r2,-23752(gp)
	by the pre-processor if configQUEUE_REGISTRY_SIZE is not defined or is
	defined to be less than 1. */
	vQueueAddToRegistry( xTestQueue, ( signed char * ) "Block_Time_Queue" );

	/* Create the two test tasks. */
	xTaskCreate( vPrimaryBlockTimeTestTask, ( signed char * )"BTest1", configMINIMAL_STACK_SIZE, NULL, bktPRIMARY_PRIORITY, NULL );
    1994:	00800084 	movi	r2,2
    1998:	d8800015 	stw	r2,0(sp)
    199c:	d8000115 	stw	zero,4(sp)
    19a0:	d8000215 	stw	zero,8(sp)
    19a4:	d8000315 	stw	zero,12(sp)
    19a8:	01000034 	movhi	r4,0
    19ac:	21068304 	addi	r4,r4,6668
    19b0:	01400134 	movhi	r5,4
    19b4:	297e6104 	addi	r5,r5,-1660
    19b8:	018c9604 	movi	r6,12888
    19bc:	000f883a 	mov	r7,zero
    19c0:	000f5140 	call	f514 <xTaskGenericCreate>
	xTaskCreate( vSecondaryBlockTimeTestTask, ( signed char * )"BTest2", configMINIMAL_STACK_SIZE, NULL, bktSECONDARY_PRIORITY, &xSecondary );
    19c4:	00800044 	movi	r2,1
    19c8:	d8800015 	stw	r2,0(sp)
    19cc:	d0a8cf04 	addi	r2,gp,-23748
    19d0:	d8800115 	stw	r2,4(sp)
    19d4:	d8000215 	stw	zero,8(sp)
    19d8:	d8000315 	stw	zero,12(sp)
    19dc:	01000034 	movhi	r4,0
    19e0:	21078a04 	addi	r4,r4,7720
    19e4:	01400134 	movhi	r5,4
    19e8:	297e6304 	addi	r5,r5,-1652
    19ec:	018c9604 	movi	r6,12888
    19f0:	000f883a 	mov	r7,zero
    19f4:	000f5140 	call	f514 <xTaskGenericCreate>
}
    19f8:	e037883a 	mov	sp,fp
    19fc:	dfc00117 	ldw	ra,4(sp)
    1a00:	df000017 	ldw	fp,0(sp)
    1a04:	dec00204 	addi	sp,sp,8
    1a08:	f800283a 	ret

00001a0c <vPrimaryBlockTimeTestTask>:
/*-----------------------------------------------------------*/

static void vPrimaryBlockTimeTestTask( void *pvParameters )
{
    1a0c:	defff804 	addi	sp,sp,-32
    1a10:	dfc00715 	stw	ra,28(sp)
    1a14:	df000615 	stw	fp,24(sp)
    1a18:	df000604 	addi	fp,sp,24
    1a1c:	e13fff15 	stw	r4,-4(fp)
	{
		/*********************************************************************
        Test 1

        Simple block time wakeup test on queue receives. */
		for( xItem = 0; xItem < bktQUEUE_LENGTH; xItem++ )
    1a20:	e03ffd15 	stw	zero,-12(fp)
    1a24:	00002206 	br	1ab0 <vPrimaryBlockTimeTestTask+0xa4>
		{
			/* The queue is empty. Attempt to read from the queue using a block
			time.  When we wake, ensure the delta in time is as expected. */
			xTimeToBlock = bktPRIMARY_BLOCK_TIME << xItem;
    1a28:	e0bffd17 	ldw	r2,-12(fp)
    1a2c:	00c00284 	movi	r3,10
    1a30:	1884983a 	sll	r2,r3,r2
    1a34:	e0bffa15 	stw	r2,-24(fp)

			xTimeWhenBlocking = xTaskGetTickCount();
    1a38:	001006c0 	call	1006c <xTaskGetTickCount>
    1a3c:	e0bffb15 	stw	r2,-20(fp)

			/* We should unblock after xTimeToBlock having not received
			anything on the queue. */
			if( xQueueReceive( xTestQueue, &xData, xTimeToBlock ) != errQUEUE_EMPTY )
    1a40:	d0e8ce17 	ldw	r3,-23752(gp)
    1a44:	e0bffe04 	addi	r2,fp,-8
    1a48:	1809883a 	mov	r4,r3
    1a4c:	100b883a 	mov	r5,r2
    1a50:	e1bffa17 	ldw	r6,-24(fp)
    1a54:	000f883a 	mov	r7,zero
    1a58:	000ebd80 	call	ebd8 <xQueueGenericReceive>
    1a5c:	10000226 	beq	r2,zero,1a68 <vPrimaryBlockTimeTestTask+0x5c>
			{
				xErrorOccurred = pdTRUE;
    1a60:	00800044 	movi	r2,1
    1a64:	d0a8d215 	stw	r2,-23736(gp)
			}

			/* How long were we blocked for? */
			xBlockedTime = xTaskGetTickCount() - xTimeWhenBlocking;
    1a68:	001006c0 	call	1006c <xTaskGetTickCount>
    1a6c:	e0fffb17 	ldw	r3,-20(fp)
    1a70:	10c5c83a 	sub	r2,r2,r3
    1a74:	e0bffc15 	stw	r2,-16(fp)

			if( xBlockedTime < xTimeToBlock )
    1a78:	e0fffc17 	ldw	r3,-16(fp)
    1a7c:	e0bffa17 	ldw	r2,-24(fp)
    1a80:	1880022e 	bgeu	r3,r2,1a8c <vPrimaryBlockTimeTestTask+0x80>
			{
				/* Should not have blocked for less than we requested. */
				xErrorOccurred = pdTRUE;
    1a84:	00800044 	movi	r2,1
    1a88:	d0a8d215 	stw	r2,-23736(gp)
			}

			if( xBlockedTime > ( xTimeToBlock + bktALLOWABLE_MARGIN ) )
    1a8c:	e0bffa17 	ldw	r2,-24(fp)
    1a90:	10c003c4 	addi	r3,r2,15
    1a94:	e0bffc17 	ldw	r2,-16(fp)
    1a98:	1880022e 	bgeu	r3,r2,1aa4 <vPrimaryBlockTimeTestTask+0x98>
			{
				/* Should not have blocked for longer than we requested,
				although we would not necessarily run as soon as we were
				unblocked so a margin is allowed. */
				xErrorOccurred = pdTRUE;
    1a9c:	00800044 	movi	r2,1
    1aa0:	d0a8d215 	stw	r2,-23736(gp)
	{
		/*********************************************************************
        Test 1

        Simple block time wakeup test on queue receives. */
		for( xItem = 0; xItem < bktQUEUE_LENGTH; xItem++ )
    1aa4:	e0bffd17 	ldw	r2,-12(fp)
    1aa8:	10800044 	addi	r2,r2,1
    1aac:	e0bffd15 	stw	r2,-12(fp)
    1ab0:	e0bffd17 	ldw	r2,-12(fp)
    1ab4:	10800150 	cmplti	r2,r2,5
    1ab8:	103fdb1e 	bne	r2,zero,1a28 <vPrimaryBlockTimeTestTask+0x1c>
        Test 2

        Simple block time wakeup test on queue sends.

		First fill the queue.  It should be empty so all sends should pass. */
		for( xItem = 0; xItem < bktQUEUE_LENGTH; xItem++ )
    1abc:	e03ffd15 	stw	zero,-12(fp)
    1ac0:	00000e06 	br	1afc <vPrimaryBlockTimeTestTask+0xf0>
		{
			if( xQueueSend( xTestQueue, &xItem, bktDONT_BLOCK ) != pdPASS )
    1ac4:	d0e8ce17 	ldw	r3,-23752(gp)
    1ac8:	e0bffd04 	addi	r2,fp,-12
    1acc:	1809883a 	mov	r4,r3
    1ad0:	100b883a 	mov	r5,r2
    1ad4:	000d883a 	mov	r6,zero
    1ad8:	000f883a 	mov	r7,zero
    1adc:	000e95c0 	call	e95c <xQueueGenericSend>
    1ae0:	10800060 	cmpeqi	r2,r2,1
    1ae4:	1000021e 	bne	r2,zero,1af0 <vPrimaryBlockTimeTestTask+0xe4>
			{
				xErrorOccurred = pdTRUE;
    1ae8:	00800044 	movi	r2,1
    1aec:	d0a8d215 	stw	r2,-23736(gp)
        Test 2

        Simple block time wakeup test on queue sends.

		First fill the queue.  It should be empty so all sends should pass. */
		for( xItem = 0; xItem < bktQUEUE_LENGTH; xItem++ )
    1af0:	e0bffd17 	ldw	r2,-12(fp)
    1af4:	10800044 	addi	r2,r2,1
    1af8:	e0bffd15 	stw	r2,-12(fp)
    1afc:	e0bffd17 	ldw	r2,-12(fp)
    1b00:	10800150 	cmplti	r2,r2,5
    1b04:	103fef1e 	bne	r2,zero,1ac4 <vPrimaryBlockTimeTestTask+0xb8>
			#if configUSE_PREEMPTION == 0
				taskYIELD();
			#endif
		}

		for( xItem = 0; xItem < bktQUEUE_LENGTH; xItem++ )
    1b08:	e03ffd15 	stw	zero,-12(fp)
    1b0c:	00002206 	br	1b98 <vPrimaryBlockTimeTestTask+0x18c>
		{
			/* The queue is full. Attempt to write to the queue using a block
			time.  When we wake, ensure the delta in time is as expected. */
			xTimeToBlock = bktPRIMARY_BLOCK_TIME << xItem;
    1b10:	e0bffd17 	ldw	r2,-12(fp)
    1b14:	00c00284 	movi	r3,10
    1b18:	1884983a 	sll	r2,r3,r2
    1b1c:	e0bffa15 	stw	r2,-24(fp)

			xTimeWhenBlocking = xTaskGetTickCount();
    1b20:	001006c0 	call	1006c <xTaskGetTickCount>
    1b24:	e0bffb15 	stw	r2,-20(fp)

			/* We should unblock after xTimeToBlock having not received
			anything on the queue. */
			if( xQueueSend( xTestQueue, &xItem, xTimeToBlock ) != errQUEUE_FULL )
    1b28:	d0e8ce17 	ldw	r3,-23752(gp)
    1b2c:	e0bffd04 	addi	r2,fp,-12
    1b30:	1809883a 	mov	r4,r3
    1b34:	100b883a 	mov	r5,r2
    1b38:	e1bffa17 	ldw	r6,-24(fp)
    1b3c:	000f883a 	mov	r7,zero
    1b40:	000e95c0 	call	e95c <xQueueGenericSend>
    1b44:	10000226 	beq	r2,zero,1b50 <vPrimaryBlockTimeTestTask+0x144>
			{
				xErrorOccurred = pdTRUE;
    1b48:	00800044 	movi	r2,1
    1b4c:	d0a8d215 	stw	r2,-23736(gp)
			}

			/* How long were we blocked for? */
			xBlockedTime = xTaskGetTickCount() - xTimeWhenBlocking;
    1b50:	001006c0 	call	1006c <xTaskGetTickCount>
    1b54:	e0fffb17 	ldw	r3,-20(fp)
    1b58:	10c5c83a 	sub	r2,r2,r3
    1b5c:	e0bffc15 	stw	r2,-16(fp)

			if( xBlockedTime < xTimeToBlock )
    1b60:	e0fffc17 	ldw	r3,-16(fp)
    1b64:	e0bffa17 	ldw	r2,-24(fp)
    1b68:	1880022e 	bgeu	r3,r2,1b74 <vPrimaryBlockTimeTestTask+0x168>
			{
				/* Should not have blocked for less than we requested. */
				xErrorOccurred = pdTRUE;
    1b6c:	00800044 	movi	r2,1
    1b70:	d0a8d215 	stw	r2,-23736(gp)
			}

			if( xBlockedTime > ( xTimeToBlock + bktALLOWABLE_MARGIN ) )
    1b74:	e0bffa17 	ldw	r2,-24(fp)
    1b78:	10c003c4 	addi	r3,r2,15
    1b7c:	e0bffc17 	ldw	r2,-16(fp)
    1b80:	1880022e 	bgeu	r3,r2,1b8c <vPrimaryBlockTimeTestTask+0x180>
			{
				/* Should not have blocked for longer than we requested,
				although we would not necessarily run as soon as we were
				unblocked so a margin is allowed. */
				xErrorOccurred = pdTRUE;
    1b84:	00800044 	movi	r2,1
    1b88:	d0a8d215 	stw	r2,-23736(gp)
			#if configUSE_PREEMPTION == 0
				taskYIELD();
			#endif
		}

		for( xItem = 0; xItem < bktQUEUE_LENGTH; xItem++ )
    1b8c:	e0bffd17 	ldw	r2,-12(fp)
    1b90:	10800044 	addi	r2,r2,1
    1b94:	e0bffd15 	stw	r2,-12(fp)
    1b98:	e0bffd17 	ldw	r2,-12(fp)
    1b9c:	10800150 	cmplti	r2,r2,5
    1ba0:	103fdb1e 	bne	r2,zero,1b10 <vPrimaryBlockTimeTestTask+0x104>
		recognise that its block time has not expired and return to block for
		the remains of its block time.

		Wake the other task so it blocks attempting to post to the already
		full queue. */
		xRunIndicator = 0;
    1ba4:	d028d315 	stw	zero,-23732(gp)
		vTaskResume( xSecondary );
    1ba8:	d0a8cf17 	ldw	r2,-23748(gp)
    1bac:	1009883a 	mov	r4,r2
    1bb0:	000fc800 	call	fc80 <vTaskResume>

		/* We need to wait a little to ensure the other task executes. */
		while( xRunIndicator != bktRUN_INDICATOR )
    1bb4:	00000206 	br	1bc0 <vPrimaryBlockTimeTestTask+0x1b4>
		{
			/* The other task has not yet executed. */
			vTaskDelay( bktSHORT_WAIT );
    1bb8:	01000504 	movi	r4,20
    1bbc:	000f8c00 	call	f8c0 <vTaskDelay>
		full queue. */
		xRunIndicator = 0;
		vTaskResume( xSecondary );

		/* We need to wait a little to ensure the other task executes. */
		while( xRunIndicator != bktRUN_INDICATOR )
    1bc0:	d0a8d317 	ldw	r2,-23732(gp)
    1bc4:	10801558 	cmpnei	r2,r2,85
    1bc8:	103ffb1e 	bne	r2,zero,1bb8 <vPrimaryBlockTimeTestTask+0x1ac>
		{
			/* The other task has not yet executed. */
			vTaskDelay( bktSHORT_WAIT );
		}
		/* Make sure the other task is blocked on the queue. */
		vTaskDelay( bktSHORT_WAIT );
    1bcc:	01000504 	movi	r4,20
    1bd0:	000f8c00 	call	f8c0 <vTaskDelay>
		xRunIndicator = 0;
    1bd4:	d028d315 	stw	zero,-23732(gp)

		for( xItem = 0; xItem < bktQUEUE_LENGTH; xItem++ )
    1bd8:	e03ffd15 	stw	zero,-12(fp)
    1bdc:	00002b06 	br	1c8c <vPrimaryBlockTimeTestTask+0x280>
		{
			/* Now when we make space on the queue the other task should wake
			but not execute as this task has higher priority. */
			if( xQueueReceive( xTestQueue, &xData, bktDONT_BLOCK ) != pdPASS )
    1be0:	d0e8ce17 	ldw	r3,-23752(gp)
    1be4:	e0bffe04 	addi	r2,fp,-8
    1be8:	1809883a 	mov	r4,r3
    1bec:	100b883a 	mov	r5,r2
    1bf0:	000d883a 	mov	r6,zero
    1bf4:	000f883a 	mov	r7,zero
    1bf8:	000ebd80 	call	ebd8 <xQueueGenericReceive>
    1bfc:	10800060 	cmpeqi	r2,r2,1
    1c00:	1000021e 	bne	r2,zero,1c0c <vPrimaryBlockTimeTestTask+0x200>
			{
				xErrorOccurred = pdTRUE;
    1c04:	00800044 	movi	r2,1
    1c08:	d0a8d215 	stw	r2,-23736(gp)
			}

			/* Now fill the queue again before the other task gets a chance to
			execute.  If the other task had executed we would find the queue
			full ourselves, and the other task have set xRunIndicator. */
			if( xQueueSend( xTestQueue, &xItem, bktDONT_BLOCK ) != pdPASS )
    1c0c:	d0e8ce17 	ldw	r3,-23752(gp)
    1c10:	e0bffd04 	addi	r2,fp,-12
    1c14:	1809883a 	mov	r4,r3
    1c18:	100b883a 	mov	r5,r2
    1c1c:	000d883a 	mov	r6,zero
    1c20:	000f883a 	mov	r7,zero
    1c24:	000e95c0 	call	e95c <xQueueGenericSend>
    1c28:	10800060 	cmpeqi	r2,r2,1
    1c2c:	1000021e 	bne	r2,zero,1c38 <vPrimaryBlockTimeTestTask+0x22c>
			{
				xErrorOccurred = pdTRUE;
    1c30:	00800044 	movi	r2,1
    1c34:	d0a8d215 	stw	r2,-23736(gp)
			}

			if( xRunIndicator == bktRUN_INDICATOR )
    1c38:	d0a8d317 	ldw	r2,-23732(gp)
    1c3c:	10801558 	cmpnei	r2,r2,85
    1c40:	1000021e 	bne	r2,zero,1c4c <vPrimaryBlockTimeTestTask+0x240>
			{
				/* The other task should not have executed. */
				xErrorOccurred = pdTRUE;
    1c44:	00800044 	movi	r2,1
    1c48:	d0a8d215 	stw	r2,-23736(gp)
			}

			/* Raise the priority of the other task so it executes and blocks
			on the queue again. */
			vTaskPrioritySet( xSecondary, bktPRIMARY_PRIORITY + 2 );
    1c4c:	d0a8cf17 	ldw	r2,-23748(gp)
    1c50:	1009883a 	mov	r4,r2
    1c54:	01400104 	movi	r5,4
    1c58:	000f99c0 	call	f99c <vTaskPrioritySet>

			/* The other task should now have re-blocked without exiting the
			queue function. */
			if( xRunIndicator == bktRUN_INDICATOR )
    1c5c:	d0a8d317 	ldw	r2,-23732(gp)
    1c60:	10801558 	cmpnei	r2,r2,85
    1c64:	1000021e 	bne	r2,zero,1c70 <vPrimaryBlockTimeTestTask+0x264>
			{
				/* The other task should not have executed outside of the
				queue function. */
				xErrorOccurred = pdTRUE;
    1c68:	00800044 	movi	r2,1
    1c6c:	d0a8d215 	stw	r2,-23736(gp)
			}

			/* Set the priority back down. */
			vTaskPrioritySet( xSecondary, bktSECONDARY_PRIORITY );
    1c70:	d0a8cf17 	ldw	r2,-23748(gp)
    1c74:	1009883a 	mov	r4,r2
    1c78:	01400044 	movi	r5,1
    1c7c:	000f99c0 	call	f99c <vTaskPrioritySet>
		}
		/* Make sure the other task is blocked on the queue. */
		vTaskDelay( bktSHORT_WAIT );
		xRunIndicator = 0;

		for( xItem = 0; xItem < bktQUEUE_LENGTH; xItem++ )
    1c80:	e0bffd17 	ldw	r2,-12(fp)
    1c84:	10800044 	addi	r2,r2,1
    1c88:	e0bffd15 	stw	r2,-12(fp)
    1c8c:	e0bffd17 	ldw	r2,-12(fp)
    1c90:	10800150 	cmplti	r2,r2,5
    1c94:	103fd21e 	bne	r2,zero,1be0 <vPrimaryBlockTimeTestTask+0x1d4>
			vTaskPrioritySet( xSecondary, bktSECONDARY_PRIORITY );
		}

		/* Let the other task timeout.  When it unblockes it will check that it
		unblocked at the correct time, then suspend itself. */
		while( xRunIndicator != bktRUN_INDICATOR )
    1c98:	00000206 	br	1ca4 <vPrimaryBlockTimeTestTask+0x298>
		{
			vTaskDelay( bktSHORT_WAIT );
    1c9c:	01000504 	movi	r4,20
    1ca0:	000f8c00 	call	f8c0 <vTaskDelay>
			vTaskPrioritySet( xSecondary, bktSECONDARY_PRIORITY );
		}

		/* Let the other task timeout.  When it unblockes it will check that it
		unblocked at the correct time, then suspend itself. */
		while( xRunIndicator != bktRUN_INDICATOR )
    1ca4:	d0a8d317 	ldw	r2,-23732(gp)
    1ca8:	10801558 	cmpnei	r2,r2,85
    1cac:	103ffb1e 	bne	r2,zero,1c9c <vPrimaryBlockTimeTestTask+0x290>
		{
			vTaskDelay( bktSHORT_WAIT );
		}
		vTaskDelay( bktSHORT_WAIT );
    1cb0:	01000504 	movi	r4,20
    1cb4:	000f8c00 	call	f8c0 <vTaskDelay>
		xRunIndicator = 0;
    1cb8:	d028d315 	stw	zero,-23732(gp)

		As per test 3 - but with the send and receive the other way around.
		The other task blocks attempting to read from the queue.

		Empty the queue.  We should find that it is full. */
		for( xItem = 0; xItem < bktQUEUE_LENGTH; xItem++ )
    1cbc:	e03ffd15 	stw	zero,-12(fp)
    1cc0:	00000e06 	br	1cfc <vPrimaryBlockTimeTestTask+0x2f0>
		{
			if( xQueueReceive( xTestQueue, &xData, bktDONT_BLOCK ) != pdPASS )
    1cc4:	d0e8ce17 	ldw	r3,-23752(gp)
    1cc8:	e0bffe04 	addi	r2,fp,-8
    1ccc:	1809883a 	mov	r4,r3
    1cd0:	100b883a 	mov	r5,r2
    1cd4:	000d883a 	mov	r6,zero
    1cd8:	000f883a 	mov	r7,zero
    1cdc:	000ebd80 	call	ebd8 <xQueueGenericReceive>
    1ce0:	10800060 	cmpeqi	r2,r2,1
    1ce4:	1000021e 	bne	r2,zero,1cf0 <vPrimaryBlockTimeTestTask+0x2e4>
			{
				xErrorOccurred = pdTRUE;
    1ce8:	00800044 	movi	r2,1
    1cec:	d0a8d215 	stw	r2,-23736(gp)

		As per test 3 - but with the send and receive the other way around.
		The other task blocks attempting to read from the queue.

		Empty the queue.  We should find that it is full. */
		for( xItem = 0; xItem < bktQUEUE_LENGTH; xItem++ )
    1cf0:	e0bffd17 	ldw	r2,-12(fp)
    1cf4:	10800044 	addi	r2,r2,1
    1cf8:	e0bffd15 	stw	r2,-12(fp)
    1cfc:	e0bffd17 	ldw	r2,-12(fp)
    1d00:	10800150 	cmplti	r2,r2,5
    1d04:	103fef1e 	bne	r2,zero,1cc4 <vPrimaryBlockTimeTestTask+0x2b8>
			}
		}

		/* Wake the other task so it blocks attempting to read from  the
		already	empty queue. */
		vTaskResume( xSecondary );
    1d08:	d0a8cf17 	ldw	r2,-23748(gp)
    1d0c:	1009883a 	mov	r4,r2
    1d10:	000fc800 	call	fc80 <vTaskResume>

		/* We need to wait a little to ensure the other task executes. */
		while( xRunIndicator != bktRUN_INDICATOR )
    1d14:	00000206 	br	1d20 <vPrimaryBlockTimeTestTask+0x314>
		{
			vTaskDelay( bktSHORT_WAIT );
    1d18:	01000504 	movi	r4,20
    1d1c:	000f8c00 	call	f8c0 <vTaskDelay>
		/* Wake the other task so it blocks attempting to read from  the
		already	empty queue. */
		vTaskResume( xSecondary );

		/* We need to wait a little to ensure the other task executes. */
		while( xRunIndicator != bktRUN_INDICATOR )
    1d20:	d0a8d317 	ldw	r2,-23732(gp)
    1d24:	10801558 	cmpnei	r2,r2,85
    1d28:	103ffb1e 	bne	r2,zero,1d18 <vPrimaryBlockTimeTestTask+0x30c>
		{
			vTaskDelay( bktSHORT_WAIT );
		}
		vTaskDelay( bktSHORT_WAIT );
    1d2c:	01000504 	movi	r4,20
    1d30:	000f8c00 	call	f8c0 <vTaskDelay>
		xRunIndicator = 0;
    1d34:	d028d315 	stw	zero,-23732(gp)

		for( xItem = 0; xItem < bktQUEUE_LENGTH; xItem++ )
    1d38:	e03ffd15 	stw	zero,-12(fp)
    1d3c:	00002b06 	br	1dec <vPrimaryBlockTimeTestTask+0x3e0>
		{
			/* Now when we place an item on the queue the other task should
			wake but not execute as this task has higher priority. */
			if( xQueueSend( xTestQueue, &xItem, bktDONT_BLOCK ) != pdPASS )
    1d40:	d0e8ce17 	ldw	r3,-23752(gp)
    1d44:	e0bffd04 	addi	r2,fp,-12
    1d48:	1809883a 	mov	r4,r3
    1d4c:	100b883a 	mov	r5,r2
    1d50:	000d883a 	mov	r6,zero
    1d54:	000f883a 	mov	r7,zero
    1d58:	000e95c0 	call	e95c <xQueueGenericSend>
    1d5c:	10800060 	cmpeqi	r2,r2,1
    1d60:	1000021e 	bne	r2,zero,1d6c <vPrimaryBlockTimeTestTask+0x360>
			{
				xErrorOccurred = pdTRUE;
    1d64:	00800044 	movi	r2,1
    1d68:	d0a8d215 	stw	r2,-23736(gp)
			}

			/* Now empty the queue again before the other task gets a chance to
			execute.  If the other task had executed we would find the queue
			empty ourselves, and the other task would be suspended. */
			if( xQueueReceive( xTestQueue, &xData, bktDONT_BLOCK ) != pdPASS )
    1d6c:	d0e8ce17 	ldw	r3,-23752(gp)
    1d70:	e0bffe04 	addi	r2,fp,-8
    1d74:	1809883a 	mov	r4,r3
    1d78:	100b883a 	mov	r5,r2
    1d7c:	000d883a 	mov	r6,zero
    1d80:	000f883a 	mov	r7,zero
    1d84:	000ebd80 	call	ebd8 <xQueueGenericReceive>
    1d88:	10800060 	cmpeqi	r2,r2,1
    1d8c:	1000021e 	bne	r2,zero,1d98 <vPrimaryBlockTimeTestTask+0x38c>
			{
				xErrorOccurred = pdTRUE;
    1d90:	00800044 	movi	r2,1
    1d94:	d0a8d215 	stw	r2,-23736(gp)
			}

			if( xRunIndicator == bktRUN_INDICATOR )
    1d98:	d0a8d317 	ldw	r2,-23732(gp)
    1d9c:	10801558 	cmpnei	r2,r2,85
    1da0:	1000021e 	bne	r2,zero,1dac <vPrimaryBlockTimeTestTask+0x3a0>
			{
				/* The other task should not have executed. */
				xErrorOccurred = pdTRUE;
    1da4:	00800044 	movi	r2,1
    1da8:	d0a8d215 	stw	r2,-23736(gp)
			}

			/* Raise the priority of the other task so it executes and blocks
			on the queue again. */
			vTaskPrioritySet( xSecondary, bktPRIMARY_PRIORITY + 2 );
    1dac:	d0a8cf17 	ldw	r2,-23748(gp)
    1db0:	1009883a 	mov	r4,r2
    1db4:	01400104 	movi	r5,4
    1db8:	000f99c0 	call	f99c <vTaskPrioritySet>

			/* The other task should now have re-blocked without exiting the
			queue function. */
			if( xRunIndicator == bktRUN_INDICATOR )
    1dbc:	d0a8d317 	ldw	r2,-23732(gp)
    1dc0:	10801558 	cmpnei	r2,r2,85
    1dc4:	1000021e 	bne	r2,zero,1dd0 <vPrimaryBlockTimeTestTask+0x3c4>
			{
				/* The other task should not have executed outside of the
				queue function. */
				xErrorOccurred = pdTRUE;
    1dc8:	00800044 	movi	r2,1
    1dcc:	d0a8d215 	stw	r2,-23736(gp)
			}
			vTaskPrioritySet( xSecondary, bktSECONDARY_PRIORITY );
    1dd0:	d0a8cf17 	ldw	r2,-23748(gp)
    1dd4:	1009883a 	mov	r4,r2
    1dd8:	01400044 	movi	r5,1
    1ddc:	000f99c0 	call	f99c <vTaskPrioritySet>
			vTaskDelay( bktSHORT_WAIT );
		}
		vTaskDelay( bktSHORT_WAIT );
		xRunIndicator = 0;

		for( xItem = 0; xItem < bktQUEUE_LENGTH; xItem++ )
    1de0:	e0bffd17 	ldw	r2,-12(fp)
    1de4:	10800044 	addi	r2,r2,1
    1de8:	e0bffd15 	stw	r2,-12(fp)
    1dec:	e0bffd17 	ldw	r2,-12(fp)
    1df0:	10800150 	cmplti	r2,r2,5
    1df4:	103fd21e 	bne	r2,zero,1d40 <vPrimaryBlockTimeTestTask+0x334>
			vTaskPrioritySet( xSecondary, bktSECONDARY_PRIORITY );
		}

		/* Let the other task timeout.  When it unblockes it will check that it
		unblocked at the correct time, then suspend itself. */
		while( xRunIndicator != bktRUN_INDICATOR )
    1df8:	00000206 	br	1e04 <vPrimaryBlockTimeTestTask+0x3f8>
		{
			vTaskDelay( bktSHORT_WAIT );
    1dfc:	01000504 	movi	r4,20
    1e00:	000f8c00 	call	f8c0 <vTaskDelay>
			vTaskPrioritySet( xSecondary, bktSECONDARY_PRIORITY );
		}

		/* Let the other task timeout.  When it unblockes it will check that it
		unblocked at the correct time, then suspend itself. */
		while( xRunIndicator != bktRUN_INDICATOR )
    1e04:	d0a8d317 	ldw	r2,-23732(gp)
    1e08:	10801558 	cmpnei	r2,r2,85
    1e0c:	103ffb1e 	bne	r2,zero,1dfc <vPrimaryBlockTimeTestTask+0x3f0>
		{
			vTaskDelay( bktSHORT_WAIT );
		}
		vTaskDelay( bktSHORT_WAIT );
    1e10:	01000504 	movi	r4,20
    1e14:	000f8c00 	call	f8c0 <vTaskDelay>

		xPrimaryCycles++;
    1e18:	d0a8d017 	ldw	r2,-23744(gp)
    1e1c:	10800044 	addi	r2,r2,1
    1e20:	d0a8d015 	stw	r2,-23744(gp)
	}
    1e24:	003efe06 	br	1a20 <vPrimaryBlockTimeTestTask+0x14>

00001e28 <vSecondaryBlockTimeTestTask>:
}
/*-----------------------------------------------------------*/

static void vSecondaryBlockTimeTestTask( void *pvParameters )
{
    1e28:	defffa04 	addi	sp,sp,-24
    1e2c:	dfc00515 	stw	ra,20(sp)
    1e30:	df000415 	stw	fp,16(sp)
    1e34:	df000404 	addi	fp,sp,16
    1e38:	e13fff15 	stw	r4,-4(fp)
	{
		/*********************************************************************
        Test 1 and 2

		This task does does not participate in these tests. */
		vTaskSuspend( NULL );
    1e3c:	0009883a 	mov	r4,zero
    1e40:	000fb300 	call	fb30 <vTaskSuspend>
        Test 3

		The first thing we do is attempt to read from the queue.  It should be
		full so we block.  Note the time before we block so we can check the
		wake time is as per that expected. */
		xTimeWhenBlocking = xTaskGetTickCount();
    1e44:	001006c0 	call	1006c <xTaskGetTickCount>
    1e48:	e0bffc15 	stw	r2,-16(fp)

		/* We should unblock after bktTIME_TO_BLOCK having not sent
		anything to the queue. */
		xData = 0;
    1e4c:	e03ffe15 	stw	zero,-8(fp)
		xRunIndicator = bktRUN_INDICATOR;
    1e50:	00801544 	movi	r2,85
    1e54:	d0a8d315 	stw	r2,-23732(gp)
		if( xQueueSend( xTestQueue, &xData, bktTIME_TO_BLOCK ) != errQUEUE_FULL )
    1e58:	d0e8ce17 	ldw	r3,-23752(gp)
    1e5c:	e0bffe04 	addi	r2,fp,-8
    1e60:	1809883a 	mov	r4,r3
    1e64:	100b883a 	mov	r5,r2
    1e68:	01802bc4 	movi	r6,175
    1e6c:	000f883a 	mov	r7,zero
    1e70:	000e95c0 	call	e95c <xQueueGenericSend>
    1e74:	10000226 	beq	r2,zero,1e80 <vSecondaryBlockTimeTestTask+0x58>
		{
			xErrorOccurred = pdTRUE;
    1e78:	00800044 	movi	r2,1
    1e7c:	d0a8d215 	stw	r2,-23736(gp)
		}

		/* How long were we inside the send function? */
		xBlockedTime = xTaskGetTickCount() - xTimeWhenBlocking;
    1e80:	001006c0 	call	1006c <xTaskGetTickCount>
    1e84:	e0fffc17 	ldw	r3,-16(fp)
    1e88:	10c5c83a 	sub	r2,r2,r3
    1e8c:	e0bffd15 	stw	r2,-12(fp)

		/* We should not have blocked for less time than bktTIME_TO_BLOCK. */
		if( xBlockedTime < bktTIME_TO_BLOCK )
    1e90:	e0bffd17 	ldw	r2,-12(fp)
    1e94:	10802be8 	cmpgeui	r2,r2,175
    1e98:	1000021e 	bne	r2,zero,1ea4 <vSecondaryBlockTimeTestTask+0x7c>
		{
			xErrorOccurred = pdTRUE;
    1e9c:	00800044 	movi	r2,1
    1ea0:	d0a8d215 	stw	r2,-23736(gp)
		}

		/* We should of not blocked for much longer than bktALLOWABLE_MARGIN
		either.  A margin is permitted as we would not necessarily run as
		soon as we unblocked. */
		if( xBlockedTime > ( bktTIME_TO_BLOCK + bktALLOWABLE_MARGIN ) )
    1ea4:	e0bffd17 	ldw	r2,-12(fp)
    1ea8:	10802ff0 	cmpltui	r2,r2,191
    1eac:	1000021e 	bne	r2,zero,1eb8 <vSecondaryBlockTimeTestTask+0x90>
		{
			xErrorOccurred = pdTRUE;
    1eb0:	00800044 	movi	r2,1
    1eb4:	d0a8d215 	stw	r2,-23736(gp)
		}

		/* Suspend ready for test 3. */
		xRunIndicator = bktRUN_INDICATOR;
    1eb8:	00801544 	movi	r2,85
    1ebc:	d0a8d315 	stw	r2,-23732(gp)
		vTaskSuspend( NULL );
    1ec0:	0009883a 	mov	r4,zero
    1ec4:	000fb300 	call	fb30 <vTaskSuspend>

		/*********************************************************************
        Test 4

		As per test three, but with the send and receive reversed. */
		xTimeWhenBlocking = xTaskGetTickCount();
    1ec8:	001006c0 	call	1006c <xTaskGetTickCount>
    1ecc:	e0bffc15 	stw	r2,-16(fp)

		/* We should unblock after bktTIME_TO_BLOCK having not received
		anything on the queue. */
		xRunIndicator = bktRUN_INDICATOR;
    1ed0:	00801544 	movi	r2,85
    1ed4:	d0a8d315 	stw	r2,-23732(gp)
		if( xQueueReceive( xTestQueue, &xData, bktTIME_TO_BLOCK ) != errQUEUE_EMPTY )
    1ed8:	d0e8ce17 	ldw	r3,-23752(gp)
    1edc:	e0bffe04 	addi	r2,fp,-8
    1ee0:	1809883a 	mov	r4,r3
    1ee4:	100b883a 	mov	r5,r2
    1ee8:	01802bc4 	movi	r6,175
    1eec:	000f883a 	mov	r7,zero
    1ef0:	000ebd80 	call	ebd8 <xQueueGenericReceive>
    1ef4:	10000226 	beq	r2,zero,1f00 <vSecondaryBlockTimeTestTask+0xd8>
		{
			xErrorOccurred = pdTRUE;
    1ef8:	00800044 	movi	r2,1
    1efc:	d0a8d215 	stw	r2,-23736(gp)
		}

		xBlockedTime = xTaskGetTickCount() - xTimeWhenBlocking;
    1f00:	001006c0 	call	1006c <xTaskGetTickCount>
    1f04:	e0fffc17 	ldw	r3,-16(fp)
    1f08:	10c5c83a 	sub	r2,r2,r3
    1f0c:	e0bffd15 	stw	r2,-12(fp)

		/* We should not have blocked for less time than bktTIME_TO_BLOCK. */
		if( xBlockedTime < bktTIME_TO_BLOCK )
    1f10:	e0bffd17 	ldw	r2,-12(fp)
    1f14:	10802be8 	cmpgeui	r2,r2,175
    1f18:	1000021e 	bne	r2,zero,1f24 <vSecondaryBlockTimeTestTask+0xfc>
		{
			xErrorOccurred = pdTRUE;
    1f1c:	00800044 	movi	r2,1
    1f20:	d0a8d215 	stw	r2,-23736(gp)
		}

		/* We should of not blocked for much longer than bktALLOWABLE_MARGIN
		either.  A margin is permitted as we would not necessarily run as soon
		as we unblocked. */
		if( xBlockedTime > ( bktTIME_TO_BLOCK + bktALLOWABLE_MARGIN ) )
    1f24:	e0bffd17 	ldw	r2,-12(fp)
    1f28:	10802ff0 	cmpltui	r2,r2,191
    1f2c:	1000021e 	bne	r2,zero,1f38 <vSecondaryBlockTimeTestTask+0x110>
		{
			xErrorOccurred = pdTRUE;
    1f30:	00800044 	movi	r2,1
    1f34:	d0a8d215 	stw	r2,-23736(gp)
		}

		xRunIndicator = bktRUN_INDICATOR;
    1f38:	00801544 	movi	r2,85
    1f3c:	d0a8d315 	stw	r2,-23732(gp)

		xSecondaryCycles++;
    1f40:	d0a8d117 	ldw	r2,-23740(gp)
    1f44:	10800044 	addi	r2,r2,1
    1f48:	d0a8d115 	stw	r2,-23740(gp)
	}
    1f4c:	003fbb06 	br	1e3c <vSecondaryBlockTimeTestTask+0x14>

00001f50 <xAreBlockTimeTestTasksStillRunning>:
}
/*-----------------------------------------------------------*/

portBASE_TYPE xAreBlockTimeTestTasksStillRunning( void )
{
    1f50:	defffe04 	addi	sp,sp,-8
    1f54:	df000115 	stw	fp,4(sp)
    1f58:	df000104 	addi	fp,sp,4
static portBASE_TYPE xLastPrimaryCycleCount = 0, xLastSecondaryCycleCount = 0;
portBASE_TYPE xReturn = pdPASS;
    1f5c:	00800044 	movi	r2,1
    1f60:	e0bfff15 	stw	r2,-4(fp)

	/* Have both tasks performed at least one cycle since this function was
	last called? */
	if( xPrimaryCycles == xLastPrimaryCycleCount )
    1f64:	d0e8d017 	ldw	r3,-23744(gp)
    1f68:	d0a8d417 	ldw	r2,-23728(gp)
    1f6c:	1880011e 	bne	r3,r2,1f74 <xAreBlockTimeTestTasksStillRunning+0x24>
	{
		xReturn = pdFAIL;
    1f70:	e03fff15 	stw	zero,-4(fp)
	}

	if( xSecondaryCycles == xLastSecondaryCycleCount )
    1f74:	d0e8d117 	ldw	r3,-23740(gp)
    1f78:	d0a8d517 	ldw	r2,-23724(gp)
    1f7c:	1880011e 	bne	r3,r2,1f84 <xAreBlockTimeTestTasksStillRunning+0x34>
	{
		xReturn = pdFAIL;
    1f80:	e03fff15 	stw	zero,-4(fp)
	}

	if( xErrorOccurred == pdTRUE )
    1f84:	d0a8d217 	ldw	r2,-23736(gp)
    1f88:	10800058 	cmpnei	r2,r2,1
    1f8c:	1000011e 	bne	r2,zero,1f94 <xAreBlockTimeTestTasksStillRunning+0x44>
	{
		xReturn = pdFAIL;
    1f90:	e03fff15 	stw	zero,-4(fp)
	}

	xLastSecondaryCycleCount = xSecondaryCycles;
    1f94:	d0a8d117 	ldw	r2,-23740(gp)
    1f98:	d0a8d515 	stw	r2,-23724(gp)
	xLastPrimaryCycleCount = xPrimaryCycles;
    1f9c:	d0a8d017 	ldw	r2,-23744(gp)
    1fa0:	d0a8d415 	stw	r2,-23728(gp)

	return xReturn;
    1fa4:	e0bfff17 	ldw	r2,-4(fp)
}
    1fa8:	e037883a 	mov	sp,fp
    1fac:	df000017 	ldw	fp,0(sp)
    1fb0:	dec00104 	addi	sp,sp,4
    1fb4:	f800283a 	ret

00001fb8 <vStartCountingSemaphoreTasks>:
static volatile xCountSemStruct xParameters[ countNUM_TEST_TASKS ];

/*-----------------------------------------------------------*/

void vStartCountingSemaphoreTasks( void )
{
    1fb8:	defffa04 	addi	sp,sp,-24
    1fbc:	dfc00515 	stw	ra,20(sp)
    1fc0:	df000415 	stw	fp,16(sp)
    1fc4:	df000404 	addi	fp,sp,16
	/* Create the semaphores that we are going to use for the test/demo.  The
	first should be created such that it starts at its maximum count value,
	the second should be created such that it starts with a count value of zero. */
	xParameters[ 0 ].xSemaphore = xSemaphoreCreateCounting( countMAX_COUNT_VALUE, countMAX_COUNT_VALUE );
    1fc8:	01003204 	movi	r4,200
    1fcc:	01403204 	movi	r5,200
    1fd0:	000e9040 	call	e904 <xQueueCreateCountingSemaphore>
    1fd4:	00c00134 	movhi	r3,4
    1fd8:	18df0e04 	addi	r3,r3,31800
    1fdc:	18800015 	stw	r2,0(r3)
	xParameters[ 0 ].uxExpectedStartCount = countSTART_AT_MAX_COUNT;
    1fe0:	00800134 	movhi	r2,4
    1fe4:	109f0e04 	addi	r2,r2,31800
    1fe8:	00c02a84 	movi	r3,170
    1fec:	10c00115 	stw	r3,4(r2)
	xParameters[ 0 ].uxLoopCounter = 0;
    1ff0:	00800134 	movhi	r2,4
    1ff4:	109f0e04 	addi	r2,r2,31800
    1ff8:	10000215 	stw	zero,8(r2)

	xParameters[ 1 ].xSemaphore = xSemaphoreCreateCounting( countMAX_COUNT_VALUE, 0 );
    1ffc:	01003204 	movi	r4,200
    2000:	000b883a 	mov	r5,zero
    2004:	000e9040 	call	e904 <xQueueCreateCountingSemaphore>
    2008:	00c00134 	movhi	r3,4
    200c:	18df0e04 	addi	r3,r3,31800
    2010:	18800315 	stw	r2,12(r3)
	xParameters[ 1 ].uxExpectedStartCount = 0;
    2014:	00800134 	movhi	r2,4
    2018:	109f0e04 	addi	r2,r2,31800
    201c:	10000415 	stw	zero,16(r2)
	xParameters[ 1 ].uxLoopCounter = 0;
    2020:	00800134 	movhi	r2,4
    2024:	109f0e04 	addi	r2,r2,31800
    2028:	10000515 	stw	zero,20(r2)
	vQueueAddToRegistry( ( xQueueHandle ) xParameters[ 0 ].xSemaphore, ( signed portCHAR * ) "Counting_Sem_1" );
	vQueueAddToRegistry( ( xQueueHandle ) xParameters[ 1 ].xSemaphore, ( signed portCHAR * ) "Counting_Sem_2" );


	/* Were the semaphores created? */
	if( ( xParameters[ 0 ].xSemaphore != NULL ) || ( xParameters[ 1 ].xSemaphore != NULL ) )
    202c:	00800134 	movhi	r2,4
    2030:	109f0e04 	addi	r2,r2,31800
    2034:	10800017 	ldw	r2,0(r2)
    2038:	1000041e 	bne	r2,zero,204c <vStartCountingSemaphoreTasks+0x94>
    203c:	00800134 	movhi	r2,4
    2040:	109f0e04 	addi	r2,r2,31800
    2044:	10800317 	ldw	r2,12(r2)
    2048:	10001826 	beq	r2,zero,20ac <vStartCountingSemaphoreTasks+0xf4>
	{
		/* Create the demo tasks, passing in the semaphore to use as the parameter. */
		xTaskCreate( prvCountingSemaphoreTask, ( signed portCHAR * ) "CNT1", configMINIMAL_STACK_SIZE, ( void * ) &( xParameters[ 0 ] ), tskIDLE_PRIORITY, NULL );
    204c:	d8000015 	stw	zero,0(sp)
    2050:	d8000115 	stw	zero,4(sp)
    2054:	d8000215 	stw	zero,8(sp)
    2058:	d8000315 	stw	zero,12(sp)
    205c:	01000034 	movhi	r4,0
    2060:	21089604 	addi	r4,r4,8792
    2064:	01400134 	movhi	r5,4
    2068:	297e6504 	addi	r5,r5,-1644
    206c:	018c9604 	movi	r6,12888
    2070:	01c00134 	movhi	r7,4
    2074:	39df0e04 	addi	r7,r7,31800
    2078:	000f5140 	call	f514 <xTaskGenericCreate>
		xTaskCreate( prvCountingSemaphoreTask, ( signed portCHAR * ) "CNT2", configMINIMAL_STACK_SIZE, ( void * ) &( xParameters[ 1 ] ), tskIDLE_PRIORITY, NULL );		
    207c:	d8000015 	stw	zero,0(sp)
    2080:	d8000115 	stw	zero,4(sp)
    2084:	d8000215 	stw	zero,8(sp)
    2088:	d8000315 	stw	zero,12(sp)
    208c:	01000034 	movhi	r4,0
    2090:	21089604 	addi	r4,r4,8792
    2094:	01400134 	movhi	r5,4
    2098:	297e6704 	addi	r5,r5,-1636
    209c:	018c9604 	movi	r6,12888
    20a0:	01c00134 	movhi	r7,4
    20a4:	39df1104 	addi	r7,r7,31812
    20a8:	000f5140 	call	f514 <xTaskGenericCreate>
	}
}
    20ac:	e037883a 	mov	sp,fp
    20b0:	dfc00117 	ldw	ra,4(sp)
    20b4:	df000017 	ldw	fp,0(sp)
    20b8:	dec00204 	addi	sp,sp,8
    20bc:	f800283a 	ret

000020c0 <prvDecrementSemaphoreCount>:
/*-----------------------------------------------------------*/

static void prvDecrementSemaphoreCount( xSemaphoreHandle xSemaphore, unsigned portBASE_TYPE *puxLoopCounter )
{
    20c0:	defffb04 	addi	sp,sp,-20
    20c4:	dfc00415 	stw	ra,16(sp)
    20c8:	df000315 	stw	fp,12(sp)
    20cc:	df000304 	addi	fp,sp,12
    20d0:	e13ffe15 	stw	r4,-8(fp)
    20d4:	e17fff15 	stw	r5,-4(fp)
unsigned portBASE_TYPE ux;

	/* If the semaphore count is at its maximum then we should not be able to
	'give' the semaphore. */
	if( xSemaphoreGive( xSemaphore ) == pdPASS )
    20d8:	e13ffe17 	ldw	r4,-8(fp)
    20dc:	000b883a 	mov	r5,zero
    20e0:	000d883a 	mov	r6,zero
    20e4:	000f883a 	mov	r7,zero
    20e8:	000e95c0 	call	e95c <xQueueGenericSend>
    20ec:	10800058 	cmpnei	r2,r2,1
    20f0:	1000021e 	bne	r2,zero,20fc <prvDecrementSemaphoreCount+0x3c>
	{
		xErrorDetected = pdTRUE;
    20f4:	00800044 	movi	r2,1
    20f8:	d0a8d615 	stw	r2,-23720(gp)
	}

	/* We should be able to 'take' the semaphore countMAX_COUNT_VALUE times. */
	for( ux = 0; ux < countMAX_COUNT_VALUE; ux++ )
    20fc:	e03ffd15 	stw	zero,-12(fp)
    2100:	00001106 	br	2148 <prvDecrementSemaphoreCount+0x88>
	{
		if( xSemaphoreTake( xSemaphore, countDONT_BLOCK ) != pdPASS )
    2104:	e13ffe17 	ldw	r4,-8(fp)
    2108:	000b883a 	mov	r5,zero
    210c:	000d883a 	mov	r6,zero
    2110:	000f883a 	mov	r7,zero
    2114:	000ebd80 	call	ebd8 <xQueueGenericReceive>
    2118:	10800060 	cmpeqi	r2,r2,1
    211c:	1000021e 	bne	r2,zero,2128 <prvDecrementSemaphoreCount+0x68>
		{
			/* We expected to be able to take the semaphore. */
			xErrorDetected = pdTRUE;
    2120:	00800044 	movi	r2,1
    2124:	d0a8d615 	stw	r2,-23720(gp)
		}

		( *puxLoopCounter )++;
    2128:	e0bfff17 	ldw	r2,-4(fp)
    212c:	10800017 	ldw	r2,0(r2)
    2130:	10c00044 	addi	r3,r2,1
    2134:	e0bfff17 	ldw	r2,-4(fp)
    2138:	10c00015 	stw	r3,0(r2)
	{
		xErrorDetected = pdTRUE;
	}

	/* We should be able to 'take' the semaphore countMAX_COUNT_VALUE times. */
	for( ux = 0; ux < countMAX_COUNT_VALUE; ux++ )
    213c:	e0bffd17 	ldw	r2,-12(fp)
    2140:	10800044 	addi	r2,r2,1
    2144:	e0bffd15 	stw	r2,-12(fp)
    2148:	e0bffd17 	ldw	r2,-12(fp)
    214c:	10803230 	cmpltui	r2,r2,200
    2150:	103fec1e 	bne	r2,zero,2104 <prvDecrementSemaphoreCount+0x44>
		taskYIELD();
	#endif

	/* If the semaphore count is zero then we should not be able to	'take' 
	the semaphore. */
	if( xSemaphoreTake( xSemaphore, countDONT_BLOCK ) == pdPASS )
    2154:	e13ffe17 	ldw	r4,-8(fp)
    2158:	000b883a 	mov	r5,zero
    215c:	000d883a 	mov	r6,zero
    2160:	000f883a 	mov	r7,zero
    2164:	000ebd80 	call	ebd8 <xQueueGenericReceive>
    2168:	10800058 	cmpnei	r2,r2,1
    216c:	1000021e 	bne	r2,zero,2178 <prvDecrementSemaphoreCount+0xb8>
	{
		xErrorDetected = pdTRUE;
    2170:	00800044 	movi	r2,1
    2174:	d0a8d615 	stw	r2,-23720(gp)
	}
}
    2178:	e037883a 	mov	sp,fp
    217c:	dfc00117 	ldw	ra,4(sp)
    2180:	df000017 	ldw	fp,0(sp)
    2184:	dec00204 	addi	sp,sp,8
    2188:	f800283a 	ret

0000218c <prvIncrementSemaphoreCount>:
/*-----------------------------------------------------------*/

static void prvIncrementSemaphoreCount( xSemaphoreHandle xSemaphore, unsigned portBASE_TYPE *puxLoopCounter )
{
    218c:	defffb04 	addi	sp,sp,-20
    2190:	dfc00415 	stw	ra,16(sp)
    2194:	df000315 	stw	fp,12(sp)
    2198:	df000304 	addi	fp,sp,12
    219c:	e13ffe15 	stw	r4,-8(fp)
    21a0:	e17fff15 	stw	r5,-4(fp)
unsigned portBASE_TYPE ux;

	/* If the semaphore count is zero then we should not be able to	'take' 
	the semaphore. */
	if( xSemaphoreTake( xSemaphore, countDONT_BLOCK ) == pdPASS )
    21a4:	e13ffe17 	ldw	r4,-8(fp)
    21a8:	000b883a 	mov	r5,zero
    21ac:	000d883a 	mov	r6,zero
    21b0:	000f883a 	mov	r7,zero
    21b4:	000ebd80 	call	ebd8 <xQueueGenericReceive>
    21b8:	10800058 	cmpnei	r2,r2,1
    21bc:	1000021e 	bne	r2,zero,21c8 <prvIncrementSemaphoreCount+0x3c>
	{
		xErrorDetected = pdTRUE;
    21c0:	00800044 	movi	r2,1
    21c4:	d0a8d615 	stw	r2,-23720(gp)
	}

	/* We should be able to 'give' the semaphore countMAX_COUNT_VALUE times. */
	for( ux = 0; ux < countMAX_COUNT_VALUE; ux++ )
    21c8:	e03ffd15 	stw	zero,-12(fp)
    21cc:	00001106 	br	2214 <prvIncrementSemaphoreCount+0x88>
	{
		if( xSemaphoreGive( xSemaphore ) != pdPASS )
    21d0:	e13ffe17 	ldw	r4,-8(fp)
    21d4:	000b883a 	mov	r5,zero
    21d8:	000d883a 	mov	r6,zero
    21dc:	000f883a 	mov	r7,zero
    21e0:	000e95c0 	call	e95c <xQueueGenericSend>
    21e4:	10800060 	cmpeqi	r2,r2,1
    21e8:	1000021e 	bne	r2,zero,21f4 <prvIncrementSemaphoreCount+0x68>
		{
			/* We expected to be able to take the semaphore. */
			xErrorDetected = pdTRUE;
    21ec:	00800044 	movi	r2,1
    21f0:	d0a8d615 	stw	r2,-23720(gp)
		}

		( *puxLoopCounter )++;
    21f4:	e0bfff17 	ldw	r2,-4(fp)
    21f8:	10800017 	ldw	r2,0(r2)
    21fc:	10c00044 	addi	r3,r2,1
    2200:	e0bfff17 	ldw	r2,-4(fp)
    2204:	10c00015 	stw	r3,0(r2)
	{
		xErrorDetected = pdTRUE;
	}

	/* We should be able to 'give' the semaphore countMAX_COUNT_VALUE times. */
	for( ux = 0; ux < countMAX_COUNT_VALUE; ux++ )
    2208:	e0bffd17 	ldw	r2,-12(fp)
    220c:	10800044 	addi	r2,r2,1
    2210:	e0bffd15 	stw	r2,-12(fp)
    2214:	e0bffd17 	ldw	r2,-12(fp)
    2218:	10803230 	cmpltui	r2,r2,200
    221c:	103fec1e 	bne	r2,zero,21d0 <prvIncrementSemaphoreCount+0x44>
		taskYIELD();
	#endif

	/* If the semaphore count is at its maximum then we should not be able to
	'give' the semaphore. */
	if( xSemaphoreGive( xSemaphore ) == pdPASS )
    2220:	e13ffe17 	ldw	r4,-8(fp)
    2224:	000b883a 	mov	r5,zero
    2228:	000d883a 	mov	r6,zero
    222c:	000f883a 	mov	r7,zero
    2230:	000e95c0 	call	e95c <xQueueGenericSend>
    2234:	10800058 	cmpnei	r2,r2,1
    2238:	1000021e 	bne	r2,zero,2244 <prvIncrementSemaphoreCount+0xb8>
	{
		xErrorDetected = pdTRUE;
    223c:	00800044 	movi	r2,1
    2240:	d0a8d615 	stw	r2,-23720(gp)
	}
}
    2244:	e037883a 	mov	sp,fp
    2248:	dfc00117 	ldw	ra,4(sp)
    224c:	df000017 	ldw	fp,0(sp)
    2250:	dec00204 	addi	sp,sp,8
    2254:	f800283a 	ret

00002258 <prvCountingSemaphoreTask>:
/*-----------------------------------------------------------*/

static void prvCountingSemaphoreTask( void *pvParameters )
{
    2258:	defffc04 	addi	sp,sp,-16
    225c:	dfc00315 	stw	ra,12(sp)
    2260:	df000215 	stw	fp,8(sp)
    2264:	df000204 	addi	fp,sp,8
    2268:	e13fff15 	stw	r4,-4(fp)
		/* Queue a message for printing to say the task has started. */
		vPrintDisplayMessage( &pcTaskStartMsg );
	#endif

	/* The semaphore to be used was passed as the parameter. */
	pxParameter = ( xCountSemStruct * ) pvParameters;
    226c:	e0bfff17 	ldw	r2,-4(fp)
    2270:	e0bffe15 	stw	r2,-8(fp)

	/* Did we expect to find the semaphore already at its max count value, or
	at zero? */
	if( pxParameter->uxExpectedStartCount == countSTART_AT_MAX_COUNT )
    2274:	e0bffe17 	ldw	r2,-8(fp)
    2278:	10800117 	ldw	r2,4(r2)
    227c:	10802a98 	cmpnei	r2,r2,170
    2280:	1000071e 	bne	r2,zero,22a0 <prvCountingSemaphoreTask+0x48>
	{
		prvDecrementSemaphoreCount( pxParameter->xSemaphore, &( pxParameter->uxLoopCounter ) );
    2284:	e0bffe17 	ldw	r2,-8(fp)
    2288:	10c00017 	ldw	r3,0(r2)
    228c:	e0bffe17 	ldw	r2,-8(fp)
    2290:	10800204 	addi	r2,r2,8
    2294:	1809883a 	mov	r4,r3
    2298:	100b883a 	mov	r5,r2
    229c:	00020c00 	call	20c0 <prvDecrementSemaphoreCount>
	}

	/* Now we expect the semaphore count to be 0, so this time there is an
	error if we can take the semaphore. */
	if( xSemaphoreTake( pxParameter->xSemaphore, 0 ) == pdPASS )
    22a0:	e0bffe17 	ldw	r2,-8(fp)
    22a4:	10800017 	ldw	r2,0(r2)
    22a8:	1009883a 	mov	r4,r2
    22ac:	000b883a 	mov	r5,zero
    22b0:	000d883a 	mov	r6,zero
    22b4:	000f883a 	mov	r7,zero
    22b8:	000ebd80 	call	ebd8 <xQueueGenericReceive>
    22bc:	10800058 	cmpnei	r2,r2,1
    22c0:	1000021e 	bne	r2,zero,22cc <prvCountingSemaphoreTask+0x74>
	{
		xErrorDetected = pdTRUE;
    22c4:	00800044 	movi	r2,1
    22c8:	d0a8d615 	stw	r2,-23720(gp)
	}

	for( ;; )
	{
		prvIncrementSemaphoreCount( pxParameter->xSemaphore, &( pxParameter->uxLoopCounter ) );
    22cc:	e0bffe17 	ldw	r2,-8(fp)
    22d0:	10c00017 	ldw	r3,0(r2)
    22d4:	e0bffe17 	ldw	r2,-8(fp)
    22d8:	10800204 	addi	r2,r2,8
    22dc:	1809883a 	mov	r4,r3
    22e0:	100b883a 	mov	r5,r2
    22e4:	000218c0 	call	218c <prvIncrementSemaphoreCount>
		prvDecrementSemaphoreCount( pxParameter->xSemaphore, &( pxParameter->uxLoopCounter ) );
    22e8:	e0bffe17 	ldw	r2,-8(fp)
    22ec:	10c00017 	ldw	r3,0(r2)
    22f0:	e0bffe17 	ldw	r2,-8(fp)
    22f4:	10800204 	addi	r2,r2,8
    22f8:	1809883a 	mov	r4,r3
    22fc:	100b883a 	mov	r5,r2
    2300:	00020c00 	call	20c0 <prvDecrementSemaphoreCount>
	}
    2304:	003ff106 	br	22cc <prvCountingSemaphoreTask+0x74>

00002308 <xAreCountingSemaphoreTasksStillRunning>:
}
/*-----------------------------------------------------------*/

portBASE_TYPE xAreCountingSemaphoreTasksStillRunning( void )
{
    2308:	defffe04 	addi	sp,sp,-8
    230c:	df000115 	stw	fp,4(sp)
    2310:	df000104 	addi	fp,sp,4
static unsigned portBASE_TYPE uxLastCount0 = 0, uxLastCount1 = 0;
portBASE_TYPE xReturn = pdPASS;
    2314:	00800044 	movi	r2,1
    2318:	e0bfff15 	stw	r2,-4(fp)

	/* Return fail if any 'give' or 'take' did not result in the expected
	behaviour. */
	if( xErrorDetected != pdFALSE )
    231c:	d0a8d617 	ldw	r2,-23720(gp)
    2320:	10000126 	beq	r2,zero,2328 <xAreCountingSemaphoreTasksStillRunning+0x20>
	{
		xReturn = pdFAIL;
    2324:	e03fff15 	stw	zero,-4(fp)
	}

	/* Return fail if either task is not still incrementing its loop counter. */
	if( uxLastCount0 == xParameters[ 0 ].uxLoopCounter )
    2328:	00800134 	movhi	r2,4
    232c:	109f0e04 	addi	r2,r2,31800
    2330:	10c00217 	ldw	r3,8(r2)
    2334:	d0a8d717 	ldw	r2,-23716(gp)
    2338:	1880021e 	bne	r3,r2,2344 <xAreCountingSemaphoreTasksStillRunning+0x3c>
	{
		xReturn = pdFAIL;
    233c:	e03fff15 	stw	zero,-4(fp)
    2340:	00000406 	br	2354 <xAreCountingSemaphoreTasksStillRunning+0x4c>
	}
	else
	{
		uxLastCount0 = xParameters[ 0 ].uxLoopCounter;
    2344:	00800134 	movhi	r2,4
    2348:	109f0e04 	addi	r2,r2,31800
    234c:	10800217 	ldw	r2,8(r2)
    2350:	d0a8d715 	stw	r2,-23716(gp)
	}

	if( uxLastCount1 == xParameters[ 1 ].uxLoopCounter )
    2354:	00800134 	movhi	r2,4
    2358:	109f0e04 	addi	r2,r2,31800
    235c:	10c00517 	ldw	r3,20(r2)
    2360:	d0a8d817 	ldw	r2,-23712(gp)
    2364:	1880021e 	bne	r3,r2,2370 <xAreCountingSemaphoreTasksStillRunning+0x68>
	{
		xReturn = pdFAIL;
    2368:	e03fff15 	stw	zero,-4(fp)
    236c:	00000406 	br	2380 <xAreCountingSemaphoreTasksStillRunning+0x78>
	}
	else
	{
		uxLastCount1 = xParameters[ 1 ].uxLoopCounter;
    2370:	00800134 	movhi	r2,4
    2374:	109f0e04 	addi	r2,r2,31800
    2378:	10800517 	ldw	r2,20(r2)
    237c:	d0a8d815 	stw	r2,-23712(gp)
	}

	return xReturn;
    2380:	e0bfff17 	ldw	r2,-4(fp)
}
    2384:	e037883a 	mov	sp,fp
    2388:	df000017 	ldw	fp,0(sp)
    238c:	dec00104 	addi	sp,sp,4
    2390:	f800283a 	ret

00002394 <vCreateSuicidalTasks>:
xTaskHandle xCreatedTask;

/*-----------------------------------------------------------*/

void vCreateSuicidalTasks( unsigned portBASE_TYPE uxPriority )
{
    2394:	defff804 	addi	sp,sp,-32
    2398:	dfc00715 	stw	ra,28(sp)
    239c:	df000615 	stw	fp,24(sp)
    23a0:	df000604 	addi	fp,sp,24
    23a4:	e13fff15 	stw	r4,-4(fp)
unsigned portBASE_TYPE *puxPriority;

	/* Create the Creator tasks - passing in as a parameter the priority at which
	the suicidal tasks should be created. */
	puxPriority = ( unsigned portBASE_TYPE * ) pvPortMalloc( sizeof( unsigned portBASE_TYPE ) );
    23a8:	01000104 	movi	r4,4
    23ac:	000e4980 	call	e498 <pvPortMalloc>
    23b0:	e0bffe15 	stw	r2,-8(fp)
	*puxPriority = uxPriority;
    23b4:	e0bffe17 	ldw	r2,-8(fp)
    23b8:	e0ffff17 	ldw	r3,-4(fp)
    23bc:	10c00015 	stw	r3,0(r2)

	xTaskCreate( vCreateTasks, ( signed char * ) "CREATOR", deathSTACK_SIZE, ( void * ) puxPriority, uxPriority, NULL );
    23c0:	e0bfff17 	ldw	r2,-4(fp)
    23c4:	d8800015 	stw	r2,0(sp)
    23c8:	d8000115 	stw	zero,4(sp)
    23cc:	d8000215 	stw	zero,8(sp)
    23d0:	d8000315 	stw	zero,12(sp)
    23d4:	01000034 	movhi	r4,0
    23d8:	21092c04 	addi	r4,r4,9392
    23dc:	01400134 	movhi	r5,4
    23e0:	297e6904 	addi	r5,r5,-1628
    23e4:	018ca504 	movi	r6,12948
    23e8:	e1fffe17 	ldw	r7,-8(fp)
    23ec:	000f5140 	call	f514 <xTaskGenericCreate>

	/* Record the number of tasks that are running now so we know if any of the
	suicidal tasks have failed to be killed. */
	uxTasksRunningAtStart = ( unsigned portBASE_TYPE ) uxTaskGetNumberOfTasks();
    23f0:	00100e00 	call	100e0 <uxTaskGetNumberOfTasks>
    23f4:	d0a8da15 	stw	r2,-23704(gp)
	/* FreeRTOS.org versions before V3.0 started the idle-task as the very
	first task. The idle task was then already included in uxTasksRunningAtStart.
	From FreeRTOS V3.0 on, the idle task is started when the scheduler is
	started. Therefore the idle task is not yet accounted for. We correct
	this by increasing uxTasksRunningAtStart by 1. */
	uxTasksRunningAtStart++;
    23f8:	d0a8da17 	ldw	r2,-23704(gp)
    23fc:	10800044 	addi	r2,r2,1
    2400:	d0a8da15 	stw	r2,-23704(gp)
	
	/* From FreeRTOS version 7.0.0 can optionally create a timer service task.  
	If this is done, then uxTasksRunningAtStart needs incrementing again as that
	too is created when the scheduler is started. */
	#if configUSE_TIMERS == 1
		uxTasksRunningAtStart++;
    2404:	d0a8da17 	ldw	r2,-23704(gp)
    2408:	10800044 	addi	r2,r2,1
    240c:	d0a8da15 	stw	r2,-23704(gp)
	#endif
}
    2410:	e037883a 	mov	sp,fp
    2414:	dfc00117 	ldw	ra,4(sp)
    2418:	df000017 	ldw	fp,0(sp)
    241c:	dec00204 	addi	sp,sp,8
    2420:	f800283a 	ret

00002424 <vSuicidalTask>:
/*-----------------------------------------------------------*/
					
static portTASK_FUNCTION( vSuicidalTask, pvParameters )
{
    2424:	defff904 	addi	sp,sp,-28
    2428:	dfc00615 	stw	ra,24(sp)
    242c:	df000515 	stw	fp,20(sp)
    2430:	df000504 	addi	fp,sp,20
    2434:	e13fff15 	stw	r4,-4(fp)
volatile long l1, l2;
xTaskHandle xTaskToKill;
const portTickType xDelay = ( portTickType ) 200 / portTICK_RATE_MS;
    2438:	00803204 	movi	r2,200
    243c:	e0bffc15 	stw	r2,-16(fp)

	if( pvParameters != NULL )
    2440:	e0bfff17 	ldw	r2,-4(fp)
    2444:	10000426 	beq	r2,zero,2458 <vSuicidalTask+0x34>
	{
		/* This task is periodically created four times.  Two created tasks are
		passed a handle to the other task so it can kill it before killing itself.
		The other task is passed in null. */
		xTaskToKill = *( xTaskHandle* )pvParameters;
    2448:	e0bfff17 	ldw	r2,-4(fp)
    244c:	10800017 	ldw	r2,0(r2)
    2450:	e0bffb15 	stw	r2,-20(fp)
    2454:	00000306 	br	2464 <vSuicidalTask+0x40>
	}
	else
	{
		xTaskToKill = NULL;
    2458:	e03ffb15 	stw	zero,-20(fp)
    245c:	00000106 	br	2464 <vSuicidalTask+0x40>
			vTaskDelete( xTaskToKill );

			/* Kill ourselves. */
			vTaskDelete( NULL );
		}
	}
    2460:	0001883a 	nop
	}

	for( ;; )
	{
		/* Do something random just to use some stack and registers. */
		l1 = 2;
    2464:	00800084 	movi	r2,2
    2468:	e0bffd15 	stw	r2,-12(fp)
		l2 = 89;
    246c:	00801644 	movi	r2,89
    2470:	e0bffe15 	stw	r2,-8(fp)
		l2 *= l1;
    2474:	e0fffe17 	ldw	r3,-8(fp)
    2478:	e0bffd17 	ldw	r2,-12(fp)
    247c:	1885383a 	mul	r2,r3,r2
    2480:	e0bffe15 	stw	r2,-8(fp)
		vTaskDelay( xDelay );
    2484:	e13ffc17 	ldw	r4,-16(fp)
    2488:	000f8c00 	call	f8c0 <vTaskDelay>

		if( xTaskToKill != NULL )
    248c:	e0bffb17 	ldw	r2,-20(fp)
    2490:	103ff326 	beq	r2,zero,2460 <vSuicidalTask+0x3c>
		{
			/* Make sure the other task has a go before we delete it. */
			vTaskDelay( ( portTickType ) 0 );
    2494:	0009883a 	mov	r4,zero
    2498:	000f8c00 	call	f8c0 <vTaskDelay>

			/* Kill the other task that was created by vCreateTasks(). */
			vTaskDelete( xTaskToKill );
    249c:	e13ffb17 	ldw	r4,-20(fp)
    24a0:	000f7040 	call	f704 <vTaskDelete>

			/* Kill ourselves. */
			vTaskDelete( NULL );
    24a4:	0009883a 	mov	r4,zero
    24a8:	000f7040 	call	f704 <vTaskDelete>
		}
	}
    24ac:	003fec06 	br	2460 <vSuicidalTask+0x3c>

000024b0 <vCreateTasks>:
}/*lint !e818 !e550 Function prototype must be as per standard for task functions. */
/*-----------------------------------------------------------*/

static portTASK_FUNCTION( vCreateTasks, pvParameters )
{
    24b0:	defff704 	addi	sp,sp,-36
    24b4:	dfc00815 	stw	ra,32(sp)
    24b8:	df000715 	stw	fp,28(sp)
    24bc:	df000704 	addi	fp,sp,28
    24c0:	e13fff15 	stw	r4,-4(fp)
const portTickType xDelay = ( portTickType ) 1000 / portTICK_RATE_MS;
    24c4:	0080fa04 	movi	r2,1000
    24c8:	e0bffd15 	stw	r2,-12(fp)
unsigned portBASE_TYPE uxPriority;

	uxPriority = *( unsigned portBASE_TYPE * ) pvParameters;
    24cc:	e0bfff17 	ldw	r2,-4(fp)
    24d0:	10800017 	ldw	r2,0(r2)
    24d4:	e0bffe15 	stw	r2,-8(fp)
	vPortFree( pvParameters );
    24d8:	e13fff17 	ldw	r4,-4(fp)
    24dc:	000e4d80 	call	e4d8 <vPortFree>

	for( ;; )
	{
		/* Just loop round, delaying then creating the four suicidal tasks. */
		vTaskDelay( xDelay );
    24e0:	e13ffd17 	ldw	r4,-12(fp)
    24e4:	000f8c00 	call	f8c0 <vTaskDelay>

		xCreatedTask = NULL;
    24e8:	d028dc15 	stw	zero,-23696(gp)

		xTaskCreate( vSuicidalTask, ( signed char * ) "SUICID1", configMINIMAL_STACK_SIZE, NULL, uxPriority, &xCreatedTask );
    24ec:	e0bffe17 	ldw	r2,-8(fp)
    24f0:	d8800015 	stw	r2,0(sp)
    24f4:	d0a8dc04 	addi	r2,gp,-23696
    24f8:	d8800115 	stw	r2,4(sp)
    24fc:	d8000215 	stw	zero,8(sp)
    2500:	d8000315 	stw	zero,12(sp)
    2504:	01000034 	movhi	r4,0
    2508:	21090904 	addi	r4,r4,9252
    250c:	01400134 	movhi	r5,4
    2510:	297e6b04 	addi	r5,r5,-1620
    2514:	018c9604 	movi	r6,12888
    2518:	000f883a 	mov	r7,zero
    251c:	000f5140 	call	f514 <xTaskGenericCreate>
		xTaskCreate( vSuicidalTask, ( signed char * ) "SUICID2", configMINIMAL_STACK_SIZE, &xCreatedTask, uxPriority, NULL );
    2520:	e0bffe17 	ldw	r2,-8(fp)
    2524:	d8800015 	stw	r2,0(sp)
    2528:	d8000115 	stw	zero,4(sp)
    252c:	d8000215 	stw	zero,8(sp)
    2530:	d8000315 	stw	zero,12(sp)
    2534:	01000034 	movhi	r4,0
    2538:	21090904 	addi	r4,r4,9252
    253c:	01400134 	movhi	r5,4
    2540:	297e6d04 	addi	r5,r5,-1612
    2544:	018c9604 	movi	r6,12888
    2548:	d1e8dc04 	addi	r7,gp,-23696
    254c:	000f5140 	call	f514 <xTaskGenericCreate>

		++usCreationCount;
    2550:	d0a8d90b 	ldhu	r2,-23708(gp)
    2554:	10800044 	addi	r2,r2,1
    2558:	d0a8d90d 	sth	r2,-23708(gp)
	}
    255c:	003fe006 	br	24e0 <vCreateTasks+0x30>

00002560 <xIsCreateTaskStillRunning>:
/*-----------------------------------------------------------*/

/* This is called to check that the creator task is still running and that there
are not any more than four extra tasks. */
portBASE_TYPE xIsCreateTaskStillRunning( void )
{
    2560:	defffd04 	addi	sp,sp,-12
    2564:	dfc00215 	stw	ra,8(sp)
    2568:	df000115 	stw	fp,4(sp)
    256c:	df000104 	addi	fp,sp,4
static unsigned short usLastCreationCount = 0xfff;
portBASE_TYPE xReturn = pdTRUE;
    2570:	00800044 	movi	r2,1
    2574:	e0bfff15 	stw	r2,-4(fp)
static unsigned portBASE_TYPE uxTasksRunningNow;

	if( usLastCreationCount == usCreationCount )
    2578:	d0e0010b 	ldhu	r3,-32764(gp)
    257c:	d0a8d90b 	ldhu	r2,-23708(gp)
    2580:	18ffffcc 	andi	r3,r3,65535
    2584:	10bfffcc 	andi	r2,r2,65535
    2588:	1880021e 	bne	r3,r2,2594 <xIsCreateTaskStillRunning+0x34>
	{
		xReturn = pdFALSE;
    258c:	e03fff15 	stw	zero,-4(fp)
    2590:	00000206 	br	259c <xIsCreateTaskStillRunning+0x3c>
	}
	else
	{
		usLastCreationCount = usCreationCount;
    2594:	d0a8d90b 	ldhu	r2,-23708(gp)
    2598:	d0a0010d 	sth	r2,-32764(gp)
	}
	
	uxTasksRunningNow = ( unsigned portBASE_TYPE ) uxTaskGetNumberOfTasks();
    259c:	00100e00 	call	100e0 <uxTaskGetNumberOfTasks>
    25a0:	d0a8db15 	stw	r2,-23700(gp)

	if( uxTasksRunningNow < uxTasksRunningAtStart )
    25a4:	d0e8db17 	ldw	r3,-23700(gp)
    25a8:	d0a8da17 	ldw	r2,-23704(gp)
    25ac:	1880022e 	bgeu	r3,r2,25b8 <xIsCreateTaskStillRunning+0x58>
	{
		xReturn = pdFALSE;
    25b0:	e03fff15 	stw	zero,-4(fp)
    25b4:	00000606 	br	25d0 <xIsCreateTaskStillRunning+0x70>
	}
	else if( ( uxTasksRunningNow - uxTasksRunningAtStart ) > uxMaxNumberOfExtraTasksRunning )
    25b8:	d0e8db17 	ldw	r3,-23700(gp)
    25bc:	d0a8da17 	ldw	r2,-23704(gp)
    25c0:	1885c83a 	sub	r2,r3,r2
    25c4:	d0e00017 	ldw	r3,-32768(gp)
    25c8:	1880012e 	bgeu	r3,r2,25d0 <xIsCreateTaskStillRunning+0x70>
	{
		xReturn = pdFALSE;
    25cc:	e03fff15 	stw	zero,-4(fp)
	else
	{
		/* Everything is okay. */
	}

	return xReturn;
    25d0:	e0bfff17 	ldw	r2,-4(fp)
}
    25d4:	e037883a 	mov	sp,fp
    25d8:	dfc00117 	ldw	ra,4(sp)
    25dc:	df000017 	ldw	fp,0(sp)
    25e0:	dec00204 	addi	sp,sp,8
    25e4:	f800283a 	ret

000025e8 <vStartDynamicPriorityTasks>:
/*
 * Start the three tasks as described at the top of the file.
 * Note that the limited count task is given a higher priority.
 */
void vStartDynamicPriorityTasks( void )
{
    25e8:	defffa04 	addi	sp,sp,-24
    25ec:	dfc00515 	stw	ra,20(sp)
    25f0:	df000415 	stw	fp,16(sp)
    25f4:	df000404 	addi	fp,sp,16
	xSuspendedTestQueue = xQueueCreate( priSUSPENDED_QUEUE_LENGTH, sizeof( unsigned long ) );
    25f8:	01000044 	movi	r4,1
    25fc:	01400104 	movi	r5,4
    2600:	000d883a 	mov	r6,zero
    2604:	000e6380 	call	e638 <xQueueGenericCreate>
    2608:	d0a8e715 	stw	r2,-23652(gp)
	is not being used.  The call to vQueueAddToRegistry() will be removed
	by the pre-processor if configQUEUE_REGISTRY_SIZE is not defined or is 
	defined to be less than 1. */
	vQueueAddToRegistry( xSuspendedTestQueue, ( signed char * ) "Suspended_Test_Queue" );

	xTaskCreate( vContinuousIncrementTask, ( signed char * ) "CNT_INC", priSTACK_SIZE, ( void * ) &ulCounter, tskIDLE_PRIORITY, &xContinousIncrementHandle );
    260c:	d8000015 	stw	zero,0(sp)
    2610:	d0a8dd04 	addi	r2,gp,-23692
    2614:	d8800115 	stw	r2,4(sp)
    2618:	d8000215 	stw	zero,8(sp)
    261c:	d8000315 	stw	zero,12(sp)
    2620:	01000034 	movhi	r4,0
    2624:	2109d904 	addi	r4,r4,10084
    2628:	01400134 	movhi	r5,4
    262c:	297e6f04 	addi	r5,r5,-1604
    2630:	018c9604 	movi	r6,12888
    2634:	d1e8df04 	addi	r7,gp,-23684
    2638:	000f5140 	call	f514 <xTaskGenericCreate>
	xTaskCreate( vLimitedIncrementTask, ( signed char * ) "LIM_INC", priSTACK_SIZE, ( void * ) &ulCounter, tskIDLE_PRIORITY + 1, &xLimitedIncrementHandle );
    263c:	00800044 	movi	r2,1
    2640:	d8800015 	stw	r2,0(sp)
    2644:	d0a8de04 	addi	r2,gp,-23688
    2648:	d8800115 	stw	r2,4(sp)
    264c:	d8000215 	stw	zero,8(sp)
    2650:	d8000315 	stw	zero,12(sp)
    2654:	01000034 	movhi	r4,0
    2658:	2109c204 	addi	r4,r4,9992
    265c:	01400134 	movhi	r5,4
    2660:	297e7104 	addi	r5,r5,-1596
    2664:	018c9604 	movi	r6,12888
    2668:	d1e8df04 	addi	r7,gp,-23684
    266c:	000f5140 	call	f514 <xTaskGenericCreate>
	xTaskCreate( vCounterControlTask, ( signed char * ) "C_CTRL", priSTACK_SIZE, NULL, tskIDLE_PRIORITY, NULL );
    2670:	d8000015 	stw	zero,0(sp)
    2674:	d8000115 	stw	zero,4(sp)
    2678:	d8000215 	stw	zero,8(sp)
    267c:	d8000315 	stw	zero,12(sp)
    2680:	01000034 	movhi	r4,0
    2684:	2109f104 	addi	r4,r4,10180
    2688:	01400134 	movhi	r5,4
    268c:	297e7304 	addi	r5,r5,-1588
    2690:	018c9604 	movi	r6,12888
    2694:	000f883a 	mov	r7,zero
    2698:	000f5140 	call	f514 <xTaskGenericCreate>
	xTaskCreate( vQueueSendWhenSuspendedTask, ( signed char * ) "SUSP_TX", priSTACK_SIZE, NULL, tskIDLE_PRIORITY, NULL );
    269c:	d8000015 	stw	zero,0(sp)
    26a0:	d8000115 	stw	zero,4(sp)
    26a4:	d8000215 	stw	zero,8(sp)
    26a8:	d8000315 	stw	zero,12(sp)
    26ac:	01000034 	movhi	r4,0
    26b0:	210a2c04 	addi	r4,r4,10416
    26b4:	01400134 	movhi	r5,4
    26b8:	297e7504 	addi	r5,r5,-1580
    26bc:	018c9604 	movi	r6,12888
    26c0:	000f883a 	mov	r7,zero
    26c4:	000f5140 	call	f514 <xTaskGenericCreate>
	xTaskCreate( vQueueReceiveWhenSuspendedTask, ( signed char * ) "SUSP_RX", priSTACK_SIZE, NULL, tskIDLE_PRIORITY, NULL );
    26c8:	d8000015 	stw	zero,0(sp)
    26cc:	d8000115 	stw	zero,4(sp)
    26d0:	d8000215 	stw	zero,8(sp)
    26d4:	d8000315 	stw	zero,12(sp)
    26d8:	01000034 	movhi	r4,0
    26dc:	210a4304 	addi	r4,r4,10508
    26e0:	01400134 	movhi	r5,4
    26e4:	297e7704 	addi	r5,r5,-1572
    26e8:	018c9604 	movi	r6,12888
    26ec:	000f883a 	mov	r7,zero
    26f0:	000f5140 	call	f514 <xTaskGenericCreate>
}
    26f4:	e037883a 	mov	sp,fp
    26f8:	dfc00117 	ldw	ra,4(sp)
    26fc:	df000017 	ldw	fp,0(sp)
    2700:	dec00204 	addi	sp,sp,8
    2704:	f800283a 	ret

00002708 <vLimitedIncrementTask>:
/*
 * Just loops around incrementing the shared variable until the limit has been
 * reached.  Once the limit has been reached it suspends itself. 
 */
static portTASK_FUNCTION( vLimitedIncrementTask, pvParameters )
{
    2708:	defffc04 	addi	sp,sp,-16
    270c:	dfc00315 	stw	ra,12(sp)
    2710:	df000215 	stw	fp,8(sp)
    2714:	df000204 	addi	fp,sp,8
    2718:	e13fff15 	stw	r4,-4(fp)
unsigned long *pulCounter;

	/* Take a pointer to the shared variable from the parameters passed into
	the task. */
	pulCounter = ( unsigned long * ) pvParameters;
    271c:	e0bfff17 	ldw	r2,-4(fp)
    2720:	e0bffe15 	stw	r2,-8(fp)

	/* This will run before the control task, so the first thing it does is
	suspend - the control task will resume it when ready. */
	vTaskSuspend( NULL );
    2724:	0009883a 	mov	r4,zero
    2728:	000fb300 	call	fb30 <vTaskSuspend>
    272c:	00000106 	br	2734 <vLimitedIncrementTask+0x2c>
		
		if( *pulCounter >= priMAX_COUNT )
		{
			vTaskSuspend( NULL );
		} 	
	}
    2730:	0001883a 	nop
	vTaskSuspend( NULL );

	for( ;; )
	{
		/* Just count up to a value then suspend. */
		( *pulCounter )++;	
    2734:	e0bffe17 	ldw	r2,-8(fp)
    2738:	10800017 	ldw	r2,0(r2)
    273c:	10c00044 	addi	r3,r2,1
    2740:	e0bffe17 	ldw	r2,-8(fp)
    2744:	10c00015 	stw	r3,0(r2)
		
		if( *pulCounter >= priMAX_COUNT )
    2748:	e0bffe17 	ldw	r2,-8(fp)
    274c:	10800017 	ldw	r2,0(r2)
    2750:	10803ff0 	cmpltui	r2,r2,255
    2754:	103ff61e 	bne	r2,zero,2730 <vLimitedIncrementTask+0x28>
		{
			vTaskSuspend( NULL );
    2758:	0009883a 	mov	r4,zero
    275c:	000fb300 	call	fb30 <vTaskSuspend>
		} 	
	}
    2760:	003ff306 	br	2730 <vLimitedIncrementTask+0x28>

00002764 <vContinuousIncrementTask>:
/*
 * Just keep counting the shared variable up.  The control task will suspend
 * this task when it wants.
 */
static portTASK_FUNCTION( vContinuousIncrementTask, pvParameters )
{
    2764:	defffb04 	addi	sp,sp,-20
    2768:	dfc00415 	stw	ra,16(sp)
    276c:	df000315 	stw	fp,12(sp)
    2770:	df000304 	addi	fp,sp,12
    2774:	e13fff15 	stw	r4,-4(fp)
unsigned long *pulCounter;
unsigned portBASE_TYPE uxOurPriority;

	/* Take a pointer to the shared variable from the parameters passed into
	the task. */
	pulCounter = ( unsigned long * ) pvParameters;
    2778:	e0bfff17 	ldw	r2,-4(fp)
    277c:	e0bffd15 	stw	r2,-12(fp)

	/* Query our priority so we can raise it when exclusive access to the 
	shared variable is required. */
	uxOurPriority = uxTaskPriorityGet( NULL );
    2780:	0009883a 	mov	r4,zero
    2784:	000f9340 	call	f934 <uxTaskPriorityGet>
    2788:	e0bffe15 	stw	r2,-8(fp)

	for( ;; )
	{
		/* Raise our priority above the controller task to ensure a context
		switch does not occur while we are accessing this variable. */
		vTaskPrioritySet( NULL, uxOurPriority + 1 );
    278c:	e0bffe17 	ldw	r2,-8(fp)
    2790:	10800044 	addi	r2,r2,1
    2794:	0009883a 	mov	r4,zero
    2798:	100b883a 	mov	r5,r2
    279c:	000f99c0 	call	f99c <vTaskPrioritySet>
			( *pulCounter )++;		
    27a0:	e0bffd17 	ldw	r2,-12(fp)
    27a4:	10800017 	ldw	r2,0(r2)
    27a8:	10c00044 	addi	r3,r2,1
    27ac:	e0bffd17 	ldw	r2,-12(fp)
    27b0:	10c00015 	stw	r3,0(r2)
		vTaskPrioritySet( NULL, uxOurPriority );
    27b4:	0009883a 	mov	r4,zero
    27b8:	e17ffe17 	ldw	r5,-8(fp)
    27bc:	000f99c0 	call	f99c <vTaskPrioritySet>
	}
    27c0:	003ff206 	br	278c <vContinuousIncrementTask+0x28>

000027c4 <vCounterControlTask>:

/*
 * Controller task as described above.
 */
static portTASK_FUNCTION( vCounterControlTask, pvParameters )
{
    27c4:	defffb04 	addi	sp,sp,-20
    27c8:	dfc00415 	stw	ra,16(sp)
    27cc:	df000315 	stw	fp,12(sp)
    27d0:	df000304 	addi	fp,sp,12
    27d4:	e13fff15 	stw	r4,-4(fp)
unsigned long ulLastCounter;
short sLoops;
short sError = pdFALSE;
    27d8:	e03ffd8d 	sth	zero,-10(fp)
	( void ) pvParameters;

	for( ;; )
	{
		/* Start with the counter at zero. */
		ulCounter = ( unsigned long ) 0;
    27dc:	d028df15 	stw	zero,-23684(gp)

		/* First section : */

		/* Check the continuous count task is running. */
		for( sLoops = 0; sLoops < priLOOPS; sLoops++ )
    27e0:	e03ffd0d 	sth	zero,-12(fp)
    27e4:	00001406 	br	2838 <vCounterControlTask+0x74>
		{
			/* Suspend the continuous count task so we can take a mirror of the
			shared variable without risk of corruption. */
			vTaskSuspend( xContinousIncrementHandle );
    27e8:	d0a8dd17 	ldw	r2,-23692(gp)
    27ec:	1009883a 	mov	r4,r2
    27f0:	000fb300 	call	fb30 <vTaskSuspend>
				ulLastCounter = ulCounter;
    27f4:	d0a8df17 	ldw	r2,-23684(gp)
    27f8:	e0bffe15 	stw	r2,-8(fp)
			vTaskResume( xContinousIncrementHandle );
    27fc:	d0a8dd17 	ldw	r2,-23692(gp)
    2800:	1009883a 	mov	r4,r2
    2804:	000fc800 	call	fc80 <vTaskResume>
			
			/* Now delay to ensure the other task has processor time. */
			vTaskDelay( priSLEEP_TIME );
    2808:	01002004 	movi	r4,128
    280c:	000f8c00 	call	f8c0 <vTaskDelay>

			/* Check the shared variable again.  This time to ensure mutual 
			exclusion the whole scheduler will be locked.  This is just for
			demo purposes! */
			vTaskSuspendAll();
    2810:	000fef80 	call	fef8 <vTaskSuspendAll>
			{
				if( ulLastCounter == ulCounter )
    2814:	d0a8df17 	ldw	r2,-23684(gp)
    2818:	e0fffe17 	ldw	r3,-8(fp)
    281c:	1880021e 	bne	r3,r2,2828 <vCounterControlTask+0x64>
				{
					/* The shared variable has not changed.  There is a problem
					with the continuous count task so flag an error. */
					sError = pdTRUE;
    2820:	00800044 	movi	r2,1
    2824:	e0bffd8d 	sth	r2,-10(fp)
				}
			}
			xTaskResumeAll();
    2828:	000ff200 	call	ff20 <xTaskResumeAll>
		ulCounter = ( unsigned long ) 0;

		/* First section : */

		/* Check the continuous count task is running. */
		for( sLoops = 0; sLoops < priLOOPS; sLoops++ )
    282c:	e0bffd0b 	ldhu	r2,-12(fp)
    2830:	10800044 	addi	r2,r2,1
    2834:	e0bffd0d 	sth	r2,-12(fp)
    2838:	e0bffd0f 	ldh	r2,-12(fp)
    283c:	10800150 	cmplti	r2,r2,5
    2840:	103fe91e 	bne	r2,zero,27e8 <vCounterControlTask+0x24>


		/* Second section: */

		/* Suspend the continuous counter task so it stops accessing the shared variable. */
		vTaskSuspend( xContinousIncrementHandle );
    2844:	d0a8dd17 	ldw	r2,-23692(gp)
    2848:	1009883a 	mov	r4,r2
    284c:	000fb300 	call	fb30 <vTaskSuspend>

		/* Reset the variable. */
		ulCounter = ( unsigned long ) 0;
    2850:	d028df15 	stw	zero,-23684(gp)

		/* Resume the limited count task which has a higher priority than us.
		We should therefore not return from this call until the limited count
