Archive member included because of file (symbol)

c:/altera/13.1/nios2eds/bin/gnu/h-i686-mingw32/bin/../lib/gcc/nios2-elf/4.7.3/../../../../../H-i686-mingw32/nios2-elf/lib\libc.a(lib_a-memcpy.o)
                              obj/default/BasicWEB.o (memcpy)
c:/altera/13.1/nios2eds/bin/gnu/h-i686-mingw32/bin/../lib/gcc/nios2-elf/4.7.3/../../../../../H-i686-mingw32/nios2-elf/lib\libc.a(lib_a-memset.o)
                              obj/default/echo_server.o (memset)
c:/altera/13.1/nios2eds/bin/gnu/h-i686-mingw32/bin/../lib/gcc/nios2-elf/4.7.3/../../../../../H-i686-mingw32/nios2-elf/lib\libc.a(lib_a-perror.o)
                              obj/default/echo_server.o (perror)
c:/altera/13.1/nios2eds/bin/gnu/h-i686-mingw32/bin/../lib/gcc/nios2-elf/4.7.3/../../../../../H-i686-mingw32/nios2-elf/lib\libc.a(lib_a-printf.o)
                              obj/default/echo_server.o (printf)
c:/altera/13.1/nios2eds/bin/gnu/h-i686-mingw32/bin/../lib/gcc/nios2-elf/4.7.3/../../../../../H-i686-mingw32/nios2-elf/lib\libc.a(lib_a-puts.o)
                              obj/default/echo_server.o (puts)
c:/altera/13.1/nios2eds/bin/gnu/h-i686-mingw32/bin/../lib/gcc/nios2-elf/4.7.3/../../../../../H-i686-mingw32/nios2-elf/lib\libc.a(lib_a-sprintf.o)
                              obj/default/BasicWEB.o (sprintf)
c:/altera/13.1/nios2eds/bin/gnu/h-i686-mingw32/bin/../lib/gcc/nios2-elf/4.7.3/../../../../../H-i686-mingw32/nios2-elf/lib\libc.a(lib_a-strcat.o)
                              obj/default/BasicWEB.o (strcat)
c:/altera/13.1/nios2eds/bin/gnu/h-i686-mingw32/bin/../lib/gcc/nios2-elf/4.7.3/../../../../../H-i686-mingw32/nios2-elf/lib\libc.a(lib_a-strcpy.o)
                              c:/altera/13.1/nios2eds/bin/gnu/h-i686-mingw32/bin/../lib/gcc/nios2-elf/4.7.3/../../../../../H-i686-mingw32/nios2-elf/lib\libc.a(lib_a-strcat.o) (strcpy)
c:/altera/13.1/nios2eds/bin/gnu/h-i686-mingw32/bin/../lib/gcc/nios2-elf/4.7.3/../../../../../H-i686-mingw32/nios2-elf/lib\libc.a(lib_a-strerror.o)
                              c:/altera/13.1/nios2eds/bin/gnu/h-i686-mingw32/bin/../lib/gcc/nios2-elf/4.7.3/../../../../../H-i686-mingw32/nios2-elf/lib\libc.a(lib_a-perror.o) (strerror)
c:/altera/13.1/nios2eds/bin/gnu/h-i686-mingw32/bin/../lib/gcc/nios2-elf/4.7.3/../../../../../H-i686-mingw32/nios2-elf/lib\libc.a(lib_a-strlen.o)
                              obj/default/BasicWEB.o (strlen)
c:/altera/13.1/nios2eds/bin/gnu/h-i686-mingw32/bin/../lib/gcc/nios2-elf/4.7.3/../../../../../H-i686-mingw32/nios2-elf/lib\libc.a(lib_a-strncmp.o)
                              obj/default/BasicWEB.o (strncmp)
c:/altera/13.1/nios2eds/bin/gnu/h-i686-mingw32/bin/../lib/gcc/nios2-elf/4.7.3/../../../../../H-i686-mingw32/nios2-elf/lib\libc.a(lib_a-u_strerr.o)
                              c:/altera/13.1/nios2eds/bin/gnu/h-i686-mingw32/bin/../lib/gcc/nios2-elf/4.7.3/../../../../../H-i686-mingw32/nios2-elf/lib\libc.a(lib_a-strerror.o) (_user_strerror)
c:/altera/13.1/nios2eds/bin/gnu/h-i686-mingw32/bin/../lib/gcc/nios2-elf/4.7.3/../../../../../H-i686-mingw32/nios2-elf/lib\libc.a(lib_a-vfprintf.o)
                              c:/altera/13.1/nios2eds/bin/gnu/h-i686-mingw32/bin/../lib/gcc/nios2-elf/4.7.3/../../../../../H-i686-mingw32/nios2-elf/lib\libc.a(lib_a-printf.o) (___vfprintf_internal_r)
c:/altera/13.1/nios2eds/bin/gnu/h-i686-mingw32/bin/../lib/gcc/nios2-elf/4.7.3/../../../../../H-i686-mingw32/nios2-elf/lib\libc.a(lib_a-wsetup.o)
                              c:/altera/13.1/nios2eds/bin/gnu/h-i686-mingw32/bin/../lib/gcc/nios2-elf/4.7.3/../../../../../H-i686-mingw32/nios2-elf/lib\libc.a(lib_a-vfprintf.o) (__swsetup_r)
c:/altera/13.1/nios2eds/bin/gnu/h-i686-mingw32/bin/../lib/gcc/nios2-elf/4.7.3/../../../../../H-i686-mingw32/nios2-elf/lib\libc.a(lib_a-dtoa.o)
                              c:/altera/13.1/nios2eds/bin/gnu/h-i686-mingw32/bin/../lib/gcc/nios2-elf/4.7.3/../../../../../H-i686-mingw32/nios2-elf/lib\libc.a(lib_a-vfprintf.o) (_dtoa_r)
c:/altera/13.1/nios2eds/bin/gnu/h-i686-mingw32/bin/../lib/gcc/nios2-elf/4.7.3/../../../../../H-i686-mingw32/nios2-elf/lib\libc.a(lib_a-fflush.o)
                              c:/altera/13.1/nios2eds/bin/gnu/h-i686-mingw32/bin/../lib/gcc/nios2-elf/4.7.3/../../../../../H-i686-mingw32/nios2-elf/lib\libc.a(lib_a-vfprintf.o) (_fflush_r)
c:/altera/13.1/nios2eds/bin/gnu/h-i686-mingw32/bin/../lib/gcc/nios2-elf/4.7.3/../../../../../H-i686-mingw32/nios2-elf/lib\libc.a(lib_a-findfp.o)
                              c:/altera/13.1/nios2eds/bin/gnu/h-i686-mingw32/bin/../lib/gcc/nios2-elf/4.7.3/../../../../../H-i686-mingw32/nios2-elf/lib\libc.a(lib_a-vfprintf.o) (__sinit)
c:/altera/13.1/nios2eds/bin/gnu/h-i686-mingw32/bin/../lib/gcc/nios2-elf/4.7.3/../../../../../H-i686-mingw32/nios2-elf/lib\libc.a(lib_a-fputc.o)
                              c:/altera/13.1/nios2eds/bin/gnu/h-i686-mingw32/bin/../lib/gcc/nios2-elf/4.7.3/../../../../../H-i686-mingw32/nios2-elf/lib\libc.a(lib_a-perror.o) (fputc)
c:/altera/13.1/nios2eds/bin/gnu/h-i686-mingw32/bin/../lib/gcc/nios2-elf/4.7.3/../../../../../H-i686-mingw32/nios2-elf/lib\libc.a(lib_a-fputs.o)
                              c:/altera/13.1/nios2eds/bin/gnu/h-i686-mingw32/bin/../lib/gcc/nios2-elf/4.7.3/../../../../../H-i686-mingw32/nios2-elf/lib\libc.a(lib_a-perror.o) (fputs)
c:/altera/13.1/nios2eds/bin/gnu/h-i686-mingw32/bin/../lib/gcc/nios2-elf/4.7.3/../../../../../H-i686-mingw32/nios2-elf/lib\libc.a(lib_a-freer.o)
                              c:/altera/13.1/nios2eds/bin/gnu/h-i686-mingw32/bin/../lib/gcc/nios2-elf/4.7.3/../../../../../H-i686-mingw32/nios2-elf/lib\libc.a(lib_a-wsetup.o) (_free_r)
c:/altera/13.1/nios2eds/bin/gnu/h-i686-mingw32/bin/../lib/gcc/nios2-elf/4.7.3/../../../../../H-i686-mingw32/nios2-elf/lib\libc.a(lib_a-fvwrite.o)
                              c:/altera/13.1/nios2eds/bin/gnu/h-i686-mingw32/bin/../lib/gcc/nios2-elf/4.7.3/../../../../../H-i686-mingw32/nios2-elf/lib\libc.a(lib_a-puts.o) (__sfvwrite_r)
c:/altera/13.1/nios2eds/bin/gnu/h-i686-mingw32/bin/../lib/gcc/nios2-elf/4.7.3/../../../../../H-i686-mingw32/nios2-elf/lib\libc.a(lib_a-fwalk.o)
                              c:/altera/13.1/nios2eds/bin/gnu/h-i686-mingw32/bin/../lib/gcc/nios2-elf/4.7.3/../../../../../H-i686-mingw32/nios2-elf/lib\libc.a(lib_a-findfp.o) (_fwalk)
c:/altera/13.1/nios2eds/bin/gnu/h-i686-mingw32/bin/../lib/gcc/nios2-elf/4.7.3/../../../../../H-i686-mingw32/nios2-elf/lib\libc.a(lib_a-impure.o)
                              c:/altera/13.1/nios2eds/bin/gnu/h-i686-mingw32/bin/../lib/gcc/nios2-elf/4.7.3/../../../../../H-i686-mingw32/nios2-elf/lib\libc.a(lib_a-fflush.o) (_global_impure_ptr)
c:/altera/13.1/nios2eds/bin/gnu/h-i686-mingw32/bin/../lib/gcc/nios2-elf/4.7.3/../../../../../H-i686-mingw32/nios2-elf/lib\libc.a(lib_a-locale.o)
                              c:/altera/13.1/nios2eds/bin/gnu/h-i686-mingw32/bin/../lib/gcc/nios2-elf/4.7.3/../../../../../H-i686-mingw32/nios2-elf/lib\libc.a(lib_a-vfprintf.o) (_localeconv_r)
c:/altera/13.1/nios2eds/bin/gnu/h-i686-mingw32/bin/../lib/gcc/nios2-elf/4.7.3/../../../../../H-i686-mingw32/nios2-elf/lib\libc.a(lib_a-makebuf.o)
                              c:/altera/13.1/nios2eds/bin/gnu/h-i686-mingw32/bin/../lib/gcc/nios2-elf/4.7.3/../../../../../H-i686-mingw32/nios2-elf/lib\libc.a(lib_a-wsetup.o) (__smakebuf_r)
c:/altera/13.1/nios2eds/bin/gnu/h-i686-mingw32/bin/../lib/gcc/nios2-elf/4.7.3/../../../../../H-i686-mingw32/nios2-elf/lib\libc.a(lib_a-mallocr.o)
                              c:/altera/13.1/nios2eds/bin/gnu/h-i686-mingw32/bin/../lib/gcc/nios2-elf/4.7.3/../../../../../H-i686-mingw32/nios2-elf/lib\libc.a(lib_a-findfp.o) (_malloc_r)
c:/altera/13.1/nios2eds/bin/gnu/h-i686-mingw32/bin/../lib/gcc/nios2-elf/4.7.3/../../../../../H-i686-mingw32/nios2-elf/lib\libc.a(lib_a-memchr.o)
                              c:/altera/13.1/nios2eds/bin/gnu/h-i686-mingw32/bin/../lib/gcc/nios2-elf/4.7.3/../../../../../H-i686-mingw32/nios2-elf/lib\libc.a(lib_a-vfprintf.o) (memchr)
c:/altera/13.1/nios2eds/bin/gnu/h-i686-mingw32/bin/../lib/gcc/nios2-elf/4.7.3/../../../../../H-i686-mingw32/nios2-elf/lib\libc.a(lib_a-memmove.o)
                              c:/altera/13.1/nios2eds/bin/gnu/h-i686-mingw32/bin/../lib/gcc/nios2-elf/4.7.3/../../../../../H-i686-mingw32/nios2-elf/lib\libc.a(lib_a-fvwrite.o) (memmove)
c:/altera/13.1/nios2eds/bin/gnu/h-i686-mingw32/bin/../lib/gcc/nios2-elf/4.7.3/../../../../../H-i686-mingw32/nios2-elf/lib\libc.a(lib_a-mprec.o)
                              c:/altera/13.1/nios2eds/bin/gnu/h-i686-mingw32/bin/../lib/gcc/nios2-elf/4.7.3/../../../../../H-i686-mingw32/nios2-elf/lib\libc.a(lib_a-dtoa.o) (_Balloc)
c:/altera/13.1/nios2eds/bin/gnu/h-i686-mingw32/bin/../lib/gcc/nios2-elf/4.7.3/../../../../../H-i686-mingw32/nios2-elf/lib\libc.a(lib_a-putc.o)
                              c:/altera/13.1/nios2eds/bin/gnu/h-i686-mingw32/bin/../lib/gcc/nios2-elf/4.7.3/../../../../../H-i686-mingw32/nios2-elf/lib\libc.a(lib_a-fputc.o) (_putc_r)
c:/altera/13.1/nios2eds/bin/gnu/h-i686-mingw32/bin/../lib/gcc/nios2-elf/4.7.3/../../../../../H-i686-mingw32/nios2-elf/lib\libc.a(lib_a-reallocr.o)
                              c:/altera/13.1/nios2eds/bin/gnu/h-i686-mingw32/bin/../lib/gcc/nios2-elf/4.7.3/../../../../../H-i686-mingw32/nios2-elf/lib\libc.a(lib_a-fvwrite.o) (_realloc_r)
c:/altera/13.1/nios2eds/bin/gnu/h-i686-mingw32/bin/../lib/gcc/nios2-elf/4.7.3/../../../../../H-i686-mingw32/nios2-elf/lib\libc.a(lib_a-s_isinfd.o)
                              c:/altera/13.1/nios2eds/bin/gnu/h-i686-mingw32/bin/../lib/gcc/nios2-elf/4.7.3/../../../../../H-i686-mingw32/nios2-elf/lib\libc.a(lib_a-vfprintf.o) (__isinfd)
c:/altera/13.1/nios2eds/bin/gnu/h-i686-mingw32/bin/../lib/gcc/nios2-elf/4.7.3/../../../../../H-i686-mingw32/nios2-elf/lib\libc.a(lib_a-s_isnand.o)
                              c:/altera/13.1/nios2eds/bin/gnu/h-i686-mingw32/bin/../lib/gcc/nios2-elf/4.7.3/../../../../../H-i686-mingw32/nios2-elf/lib\libc.a(lib_a-vfprintf.o) (__isnand)
c:/altera/13.1/nios2eds/bin/gnu/h-i686-mingw32/bin/../lib/gcc/nios2-elf/4.7.3/../../../../../H-i686-mingw32/nios2-elf/lib\libc.a(lib_a-sbrkr.o)
                              c:/altera/13.1/nios2eds/bin/gnu/h-i686-mingw32/bin/../lib/gcc/nios2-elf/4.7.3/../../../../../H-i686-mingw32/nios2-elf/lib\libc.a(lib_a-freer.o) (_sbrk_r)
c:/altera/13.1/nios2eds/bin/gnu/h-i686-mingw32/bin/../lib/gcc/nios2-elf/4.7.3/../../../../../H-i686-mingw32/nios2-elf/lib\libc.a(lib_a-stdio.o)
                              c:/altera/13.1/nios2eds/bin/gnu/h-i686-mingw32/bin/../lib/gcc/nios2-elf/4.7.3/../../../../../H-i686-mingw32/nios2-elf/lib\libc.a(lib_a-findfp.o) (__sread)
c:/altera/13.1/nios2eds/bin/gnu/h-i686-mingw32/bin/../lib/gcc/nios2-elf/4.7.3/../../../../../H-i686-mingw32/nios2-elf/lib\libc.a(lib_a-strcmp.o)
                              c:/altera/13.1/nios2eds/bin/gnu/h-i686-mingw32/bin/../lib/gcc/nios2-elf/4.7.3/../../../../../H-i686-mingw32/nios2-elf/lib\libc.a(lib_a-locale.o) (strcmp)
c:/altera/13.1/nios2eds/bin/gnu/h-i686-mingw32/bin/../lib/gcc/nios2-elf/4.7.3/../../../../../H-i686-mingw32/nios2-elf/lib\libc.a(lib_a-wbuf.o)
                              c:/altera/13.1/nios2eds/bin/gnu/h-i686-mingw32/bin/../lib/gcc/nios2-elf/4.7.3/../../../../../H-i686-mingw32/nios2-elf/lib\libc.a(lib_a-putc.o) (__swbuf_r)
c:/altera/13.1/nios2eds/bin/gnu/h-i686-mingw32/bin/../lib/gcc/nios2-elf/4.7.3/../../../../../H-i686-mingw32/nios2-elf/lib\libc.a(lib_a-writer.o)
                              c:/altera/13.1/nios2eds/bin/gnu/h-i686-mingw32/bin/../lib/gcc/nios2-elf/4.7.3/../../../../../H-i686-mingw32/nios2-elf/lib\libc.a(lib_a-stdio.o) (_write_r)
c:/altera/13.1/nios2eds/bin/gnu/h-i686-mingw32/bin/../lib/gcc/nios2-elf/4.7.3/../../../../../H-i686-mingw32/nios2-elf/lib\libc.a(lib_a-callocr.o)
                              c:/altera/13.1/nios2eds/bin/gnu/h-i686-mingw32/bin/../lib/gcc/nios2-elf/4.7.3/../../../../../H-i686-mingw32/nios2-elf/lib\libc.a(lib_a-mprec.o) (_calloc_r)
c:/altera/13.1/nios2eds/bin/gnu/h-i686-mingw32/bin/../lib/gcc/nios2-elf/4.7.3/../../../../../H-i686-mingw32/nios2-elf/lib\libc.a(lib_a-closer.o)
                              c:/altera/13.1/nios2eds/bin/gnu/h-i686-mingw32/bin/../lib/gcc/nios2-elf/4.7.3/../../../../../H-i686-mingw32/nios2-elf/lib\libc.a(lib_a-stdio.o) (_close_r)
c:/altera/13.1/nios2eds/bin/gnu/h-i686-mingw32/bin/../lib/gcc/nios2-elf/4.7.3/../../../../../H-i686-mingw32/nios2-elf/lib\libc.a(lib_a-fclose.o)
                              c:/altera/13.1/nios2eds/bin/gnu/h-i686-mingw32/bin/../lib/gcc/nios2-elf/4.7.3/../../../../../H-i686-mingw32/nios2-elf/lib\libc.a(lib_a-findfp.o) (fclose)
c:/altera/13.1/nios2eds/bin/gnu/h-i686-mingw32/bin/../lib/gcc/nios2-elf/4.7.3/../../../../../H-i686-mingw32/nios2-elf/lib\libc.a(lib_a-fstatr.o)
                              c:/altera/13.1/nios2eds/bin/gnu/h-i686-mingw32/bin/../lib/gcc/nios2-elf/4.7.3/../../../../../H-i686-mingw32/nios2-elf/lib\libc.a(lib_a-makebuf.o) (_fstat_r)
c:/altera/13.1/nios2eds/bin/gnu/h-i686-mingw32/bin/../lib/gcc/nios2-elf/4.7.3/../../../../../H-i686-mingw32/nios2-elf/lib\libc.a(lib_a-int_errno.o)
                              c:/altera/13.1/nios2eds/bin/gnu/h-i686-mingw32/bin/../lib/gcc/nios2-elf/4.7.3/../../../../../H-i686-mingw32/nios2-elf/lib\libc.a(lib_a-sbrkr.o) (errno)
c:/altera/13.1/nios2eds/bin/gnu/h-i686-mingw32/bin/../lib/gcc/nios2-elf/4.7.3/../../../../../H-i686-mingw32/nios2-elf/lib\libc.a(lib_a-isattyr.o)
                              c:/altera/13.1/nios2eds/bin/gnu/h-i686-mingw32/bin/../lib/gcc/nios2-elf/4.7.3/../../../../../H-i686-mingw32/nios2-elf/lib\libc.a(lib_a-makebuf.o) (_isatty_r)
c:/altera/13.1/nios2eds/bin/gnu/h-i686-mingw32/bin/../lib/gcc/nios2-elf/4.7.3/../../../../../H-i686-mingw32/nios2-elf/lib\libc.a(lib_a-lseekr.o)
                              c:/altera/13.1/nios2eds/bin/gnu/h-i686-mingw32/bin/../lib/gcc/nios2-elf/4.7.3/../../../../../H-i686-mingw32/nios2-elf/lib\libc.a(lib_a-stdio.o) (_lseek_r)
c:/altera/13.1/nios2eds/bin/gnu/h-i686-mingw32/bin/../lib/gcc/nios2-elf/4.7.3/../../../../../H-i686-mingw32/nios2-elf/lib\libc.a(lib_a-readr.o)
                              c:/altera/13.1/nios2eds/bin/gnu/h-i686-mingw32/bin/../lib/gcc/nios2-elf/4.7.3/../../../../../H-i686-mingw32/nios2-elf/lib\libc.a(lib_a-stdio.o) (_read_r)
c:/altera/13.1/nios2eds/bin/gnu/h-i686-mingw32/bin/../lib/gcc/nios2-elf/4.7.3\libgcc.a(_udivdi3.o)
                              c:/altera/13.1/nios2eds/bin/gnu/h-i686-mingw32/bin/../lib/gcc/nios2-elf/4.7.3/../../../../../H-i686-mingw32/nios2-elf/lib\libc.a(lib_a-vfprintf.o) (__udivdi3)
c:/altera/13.1/nios2eds/bin/gnu/h-i686-mingw32/bin/../lib/gcc/nios2-elf/4.7.3\libgcc.a(_umoddi3.o)
                              c:/altera/13.1/nios2eds/bin/gnu/h-i686-mingw32/bin/../lib/gcc/nios2-elf/4.7.3/../../../../../H-i686-mingw32/nios2-elf/lib\libc.a(lib_a-vfprintf.o) (__umoddi3)
c:/altera/13.1/nios2eds/bin/gnu/h-i686-mingw32/bin/../lib/gcc/nios2-elf/4.7.3\libgcc.a(_addsub_df.o)
                              c:/altera/13.1/nios2eds/bin/gnu/h-i686-mingw32/bin/../lib/gcc/nios2-elf/4.7.3/../../../../../H-i686-mingw32/nios2-elf/lib\libc.a(lib_a-dtoa.o) (__adddf3)
c:/altera/13.1/nios2eds/bin/gnu/h-i686-mingw32/bin/../lib/gcc/nios2-elf/4.7.3\libgcc.a(_mul_df.o)
                              c:/altera/13.1/nios2eds/bin/gnu/h-i686-mingw32/bin/../lib/gcc/nios2-elf/4.7.3/../../../../../H-i686-mingw32/nios2-elf/lib\libc.a(lib_a-dtoa.o) (__muldf3)
c:/altera/13.1/nios2eds/bin/gnu/h-i686-mingw32/bin/../lib/gcc/nios2-elf/4.7.3\libgcc.a(_div_df.o)
                              c:/altera/13.1/nios2eds/bin/gnu/h-i686-mingw32/bin/../lib/gcc/nios2-elf/4.7.3/../../../../../H-i686-mingw32/nios2-elf/lib\libc.a(lib_a-dtoa.o) (__divdf3)
c:/altera/13.1/nios2eds/bin/gnu/h-i686-mingw32/bin/../lib/gcc/nios2-elf/4.7.3\libgcc.a(_eq_df.o)
                              c:/altera/13.1/nios2eds/bin/gnu/h-i686-mingw32/bin/../lib/gcc/nios2-elf/4.7.3/../../../../../H-i686-mingw32/nios2-elf/lib\libc.a(lib_a-vfprintf.o) (__eqdf2)
c:/altera/13.1/nios2eds/bin/gnu/h-i686-mingw32/bin/../lib/gcc/nios2-elf/4.7.3\libgcc.a(_ne_df.o)
                              c:/altera/13.1/nios2eds/bin/gnu/h-i686-mingw32/bin/../lib/gcc/nios2-elf/4.7.3/../../../../../H-i686-mingw32/nios2-elf/lib\libc.a(lib_a-vfprintf.o) (__nedf2)
c:/altera/13.1/nios2eds/bin/gnu/h-i686-mingw32/bin/../lib/gcc/nios2-elf/4.7.3\libgcc.a(_gt_df.o)
                              c:/altera/13.1/nios2eds/bin/gnu/h-i686-mingw32/bin/../lib/gcc/nios2-elf/4.7.3/../../../../../H-i686-mingw32/nios2-elf/lib\libc.a(lib_a-dtoa.o) (__gtdf2)
c:/altera/13.1/nios2eds/bin/gnu/h-i686-mingw32/bin/../lib/gcc/nios2-elf/4.7.3\libgcc.a(_ge_df.o)
                              c:/altera/13.1/nios2eds/bin/gnu/h-i686-mingw32/bin/../lib/gcc/nios2-elf/4.7.3/../../../../../H-i686-mingw32/nios2-elf/lib\libc.a(lib_a-dtoa.o) (__gedf2)
c:/altera/13.1/nios2eds/bin/gnu/h-i686-mingw32/bin/../lib/gcc/nios2-elf/4.7.3\libgcc.a(_lt_df.o)
                              c:/altera/13.1/nios2eds/bin/gnu/h-i686-mingw32/bin/../lib/gcc/nios2-elf/4.7.3/../../../../../H-i686-mingw32/nios2-elf/lib\libc.a(lib_a-vfprintf.o) (__ltdf2)
c:/altera/13.1/nios2eds/bin/gnu/h-i686-mingw32/bin/../lib/gcc/nios2-elf/4.7.3\libgcc.a(_si_to_df.o)
                              c:/altera/13.1/nios2eds/bin/gnu/h-i686-mingw32/bin/../lib/gcc/nios2-elf/4.7.3/../../../../../H-i686-mingw32/nios2-elf/lib\libc.a(lib_a-dtoa.o) (__floatsidf)
c:/altera/13.1/nios2eds/bin/gnu/h-i686-mingw32/bin/../lib/gcc/nios2-elf/4.7.3\libgcc.a(_df_to_si.o)
                              c:/altera/13.1/nios2eds/bin/gnu/h-i686-mingw32/bin/../lib/gcc/nios2-elf/4.7.3/../../../../../H-i686-mingw32/nios2-elf/lib\libc.a(lib_a-dtoa.o) (__fixdfsi)
c:/altera/13.1/nios2eds/bin/gnu/h-i686-mingw32/bin/../lib/gcc/nios2-elf/4.7.3\libgcc.a(_thenan_df.o)
                              c:/altera/13.1/nios2eds/bin/gnu/h-i686-mingw32/bin/../lib/gcc/nios2-elf/4.7.3\libgcc.a(_addsub_df.o) (__thenan_df)
c:/altera/13.1/nios2eds/bin/gnu/h-i686-mingw32/bin/../lib/gcc/nios2-elf/4.7.3\libgcc.a(_usi_to_df.o)
                              c:/altera/13.1/nios2eds/bin/gnu/h-i686-mingw32/bin/../lib/gcc/nios2-elf/4.7.3/../../../../../H-i686-mingw32/nios2-elf/lib\libc.a(lib_a-dtoa.o) (__floatunsidf)
c:/altera/13.1/nios2eds/bin/gnu/h-i686-mingw32/bin/../lib/gcc/nios2-elf/4.7.3\libgcc.a(lib2-divmod.o)
                              c:/altera/13.1/nios2eds/bin/gnu/h-i686-mingw32/bin/../lib/gcc/nios2-elf/4.7.3/../../../../../H-i686-mingw32/nios2-elf/lib\libc.a(lib_a-vfprintf.o) (__divsi3)
c:/altera/13.1/nios2eds/bin/gnu/h-i686-mingw32/bin/../lib/gcc/nios2-elf/4.7.3\libgcc.a(_muldi3.o)
                              c:/altera/13.1/nios2eds/bin/gnu/h-i686-mingw32/bin/../lib/gcc/nios2-elf/4.7.3\libgcc.a(_mul_df.o) (__muldi3)
c:/altera/13.1/nios2eds/bin/gnu/h-i686-mingw32/bin/../lib/gcc/nios2-elf/4.7.3\libgcc.a(_clz.o)
                              c:/altera/13.1/nios2eds/bin/gnu/h-i686-mingw32/bin/../lib/gcc/nios2-elf/4.7.3\libgcc.a(_udivdi3.o) (__clz_tab)
c:/altera/13.1/nios2eds/bin/gnu/h-i686-mingw32/bin/../lib/gcc/nios2-elf/4.7.3\libgcc.a(_clzsi2.o)
                              c:/altera/13.1/nios2eds/bin/gnu/h-i686-mingw32/bin/../lib/gcc/nios2-elf/4.7.3\libgcc.a(_si_to_df.o) (__clzsi2)
c:/altera/13.1/nios2eds/bin/gnu/h-i686-mingw32/bin/../lib/gcc/nios2-elf/4.7.3\libgcc.a(_pack_df.o)
                              c:/altera/13.1/nios2eds/bin/gnu/h-i686-mingw32/bin/../lib/gcc/nios2-elf/4.7.3\libgcc.a(_addsub_df.o) (__pack_d)
c:/altera/13.1/nios2eds/bin/gnu/h-i686-mingw32/bin/../lib/gcc/nios2-elf/4.7.3\libgcc.a(_unpack_df.o)
                              c:/altera/13.1/nios2eds/bin/gnu/h-i686-mingw32/bin/../lib/gcc/nios2-elf/4.7.3\libgcc.a(_addsub_df.o) (__unpack_d)
c:/altera/13.1/nios2eds/bin/gnu/h-i686-mingw32/bin/../lib/gcc/nios2-elf/4.7.3\libgcc.a(_fpcmp_parts_df.o)
                              c:/altera/13.1/nios2eds/bin/gnu/h-i686-mingw32/bin/../lib/gcc/nios2-elf/4.7.3\libgcc.a(_eq_df.o) (__fpcmp_parts_d)
c:/altera/13.1/nios2eds/bin/gnu/h-i686-mingw32/bin/../lib/gcc/nios2-elf/4.7.3\libgcc.a(_lshrdi3.o)
                              c:/altera/13.1/nios2eds/bin/gnu/h-i686-mingw32/bin/../lib/gcc/nios2-elf/4.7.3\libgcc.a(_pack_df.o) (__lshrdi3)
c:/altera/13.1/nios2eds/bin/gnu/h-i686-mingw32/bin/../lib/gcc/nios2-elf/4.7.3\libgcc.a(_ashldi3.o)
                              c:/altera/13.1/nios2eds/bin/gnu/h-i686-mingw32/bin/../lib/gcc/nios2-elf/4.7.3\libgcc.a(_pack_df.o) (__ashldi3)
../FreeLwIP_bsp/\libfreertos_bsp.a(alt_main.o)
                              ../FreeLwIP_bsp//obj/HAL/src/crt0.o (alt_main)
../FreeLwIP_bsp/\libfreertos_bsp.a(alt_malloc_lock.o)
                              ../FreeLwIP_bsp/\libfreertos_bsp.a(alt_main.o) (alt_heapsem)
../FreeLwIP_bsp/\libfreertos_bsp.a(heap_3.o)
                              obj/default/BlockQ.o (pvPortMalloc)
../FreeLwIP_bsp/\libfreertos_bsp.a(queue.o)
                              obj/default/BlockQ.o (xQueueGenericCreate)
../FreeLwIP_bsp/\libfreertos_bsp.a(tasks.o)
                              obj/default/BlockQ.o (xTaskGenericCreate)
../FreeLwIP_bsp/\libfreertos_bsp.a(timers.o)
                              ../FreeLwIP_bsp/\libfreertos_bsp.a(tasks.o) (xTimerCreateTimerTask)
../FreeLwIP_bsp/\libfreertos_bsp.a(alt_dev.o)
                              ../FreeLwIP_bsp/\libfreertos_bsp.a(alt_main.o) (alt_fd_list_lock)
../FreeLwIP_bsp/\libfreertos_bsp.a(alt_do_ctors.o)
                              ../FreeLwIP_bsp/\libfreertos_bsp.a(alt_main.o) (_do_ctors)
../FreeLwIP_bsp/\libfreertos_bsp.a(alt_do_dtors.o)
                              ../FreeLwIP_bsp/\libfreertos_bsp.a(alt_main.o) (_do_dtors)
../FreeLwIP_bsp/\libfreertos_bsp.a(alt_fstat.o)
                              c:/altera/13.1/nios2eds/bin/gnu/h-i686-mingw32/bin/../lib/gcc/nios2-elf/4.7.3/../../../../../H-i686-mingw32/nios2-elf/lib\libc.a(lib_a-fstatr.o) (fstat)
../FreeLwIP_bsp/\libfreertos_bsp.a(alt_io_redirect.o)
                              ../FreeLwIP_bsp/\libfreertos_bsp.a(alt_main.o) (alt_io_redirect)
../FreeLwIP_bsp/\libfreertos_bsp.a(alt_isatty.o)
                              c:/altera/13.1/nios2eds/bin/gnu/h-i686-mingw32/bin/../lib/gcc/nios2-elf/4.7.3/../../../../../H-i686-mingw32/nios2-elf/lib\libc.a(lib_a-isattyr.o) (isatty)
../FreeLwIP_bsp/\libfreertos_bsp.a(alt_load.o)
                              ../FreeLwIP_bsp//obj/HAL/src/crt0.o (alt_load)
../FreeLwIP_bsp/\libfreertos_bsp.a(alt_lseek.o)
                              c:/altera/13.1/nios2eds/bin/gnu/h-i686-mingw32/bin/../lib/gcc/nios2-elf/4.7.3/../../../../../H-i686-mingw32/nios2-elf/lib\libc.a(lib_a-lseekr.o) (lseek)
../FreeLwIP_bsp/\libfreertos_bsp.a(alt_open.o)
                              ../FreeLwIP_bsp/\libfreertos_bsp.a(alt_io_redirect.o) (open)
../FreeLwIP_bsp/\libfreertos_bsp.a(alt_release_fd.o)
                              ../FreeLwIP_bsp/\libfreertos_bsp.a(alt_io_redirect.o) (alt_release_fd)
../FreeLwIP_bsp/\libfreertos_bsp.a(alt_sbrk.o)
                              c:/altera/13.1/nios2eds/bin/gnu/h-i686-mingw32/bin/../lib/gcc/nios2-elf/4.7.3/../../../../../H-i686-mingw32/nios2-elf/lib\libc.a(lib_a-sbrkr.o) (sbrk)
../FreeLwIP_bsp/\libfreertos_bsp.a(alt_usleep.o)
                              obj/default/ethernet.o (usleep)
../FreeLwIP_bsp/\libfreertos_bsp.a(api_lib.o)
                              obj/default/BasicWEB.o (netconn_new_with_proto_and_callback)
../FreeLwIP_bsp/\libfreertos_bsp.a(api_msg.o)
                              ../FreeLwIP_bsp/\libfreertos_bsp.a(api_lib.o) (netconn_alloc)
../FreeLwIP_bsp/\libfreertos_bsp.a(netbuf.o)
                              obj/default/BasicWEB.o (netbuf_delete)
../FreeLwIP_bsp/\libfreertos_bsp.a(sockets.o)
                              obj/default/echo_server.o (lwip_accept)
../FreeLwIP_bsp/\libfreertos_bsp.a(tcpip.o)
                              ../FreeLwIP_bsp/\libfreertos_bsp.a(sockets.o) (tcpip_callback_with_block)
../FreeLwIP_bsp/\libfreertos_bsp.a(alt_lwip_close.o)
                              obj/default/echo_server.o (close)
../FreeLwIP_bsp/\libfreertos_bsp.a(alt_lwip_read.o)
                              obj/default/echo_server.o (read)
../FreeLwIP_bsp/\libfreertos_bsp.a(alt_lwip_write.o)
                              obj/default/echo_server.o (write)
../FreeLwIP_bsp/\libfreertos_bsp.a(lwip_main.o)
                              obj/default/ethernet.o (lwip_initialize)
../FreeLwIP_bsp/\libfreertos_bsp.a(lwip_tse_mac.o)
                              ../FreeLwIP_bsp/\libfreertos_bsp.a(lwip_main.o) (tse_mac_init)
../FreeLwIP_bsp/\libfreertos_bsp.a(sys_arch.o)
                              ../FreeLwIP_bsp/\libfreertos_bsp.a(api_msg.o) (sys_sem_new)
../FreeLwIP_bsp/\libfreertos_bsp.a(dhcp.o)
                              ../FreeLwIP_bsp/\libfreertos_bsp.a(lwip_main.o) (dhcp_start)
../FreeLwIP_bsp/\libfreertos_bsp.a(init.o)
                              ../FreeLwIP_bsp/\libfreertos_bsp.a(tcpip.o) (lwip_init)
../FreeLwIP_bsp/\libfreertos_bsp.a(ip.o)
                              ../FreeLwIP_bsp/\libfreertos_bsp.a(api_msg.o) (current_iphdr_src)
../FreeLwIP_bsp/\libfreertos_bsp.a(ip_addr.o)
                              ../FreeLwIP_bsp/\libfreertos_bsp.a(dhcp.o) (ip_addr_any)
../FreeLwIP_bsp/\libfreertos_bsp.a(ip_frag.o)
                              ../FreeLwIP_bsp/\libfreertos_bsp.a(ip.o) (ip_reass)
../FreeLwIP_bsp/\libfreertos_bsp.a(mem.o)
                              ../FreeLwIP_bsp/\libfreertos_bsp.a(init.o) (mem_init)
../FreeLwIP_bsp/\libfreertos_bsp.a(memp.o)
                              ../FreeLwIP_bsp/\libfreertos_bsp.a(init.o) (memp_init)
../FreeLwIP_bsp/\libfreertos_bsp.a(netif.o)
                              ../FreeLwIP_bsp/\libfreertos_bsp.a(dhcp.o) (netif_list)
../FreeLwIP_bsp/\libfreertos_bsp.a(pbuf.o)
                              ../FreeLwIP_bsp/\libfreertos_bsp.a(api_msg.o) (pbuf_alloc)
../FreeLwIP_bsp/\libfreertos_bsp.a(raw.o)
                              ../FreeLwIP_bsp/\libfreertos_bsp.a(ip.o) (raw_input)
../FreeLwIP_bsp/\libfreertos_bsp.a(stats.o)
                              ../FreeLwIP_bsp/\libfreertos_bsp.a(lwip_tse_mac.o) (lwip_stats)
../FreeLwIP_bsp/\libfreertos_bsp.a(tcp.o)
                              ../FreeLwIP_bsp/\libfreertos_bsp.a(netif.o) (tcp_listen_pcbs)
../FreeLwIP_bsp/\libfreertos_bsp.a(tcp_in.o)
                              ../FreeLwIP_bsp/\libfreertos_bsp.a(ip.o) (tcp_input)
../FreeLwIP_bsp/\libfreertos_bsp.a(tcp_out.o)
                              ../FreeLwIP_bsp/\libfreertos_bsp.a(tcp.o) (tcp_send_fin)
../FreeLwIP_bsp/\libfreertos_bsp.a(timers.o)
                              ../FreeLwIP_bsp/\libfreertos_bsp.a(tcpip.o) (sys_timeout)
../FreeLwIP_bsp/\libfreertos_bsp.a(udp.o)
                              ../FreeLwIP_bsp/\libfreertos_bsp.a(init.o) (udp_init)
../FreeLwIP_bsp/\libfreertos_bsp.a(etharp.o)
                              ../FreeLwIP_bsp/\libfreertos_bsp.a(timers.o) (etharp_tmr)
../FreeLwIP_bsp/\libfreertos_bsp.a(alt_sys_init.o)
                              ../FreeLwIP_bsp/\libfreertos_bsp.a(alt_main.o) (alt_irq_init)
../FreeLwIP_bsp/\libfreertos_bsp.a(altera_avalon_cfi_flash.o)
                              ../FreeLwIP_bsp/\libfreertos_bsp.a(alt_sys_init.o) (alt_flash_cfi_init)
../FreeLwIP_bsp/\libfreertos_bsp.a(altera_avalon_cfi_flash_table.o)
                              ../FreeLwIP_bsp/\libfreertos_bsp.a(altera_avalon_cfi_flash.o) (alt_set_flash_width_func)
../FreeLwIP_bsp/\libfreertos_bsp.a(altera_avalon_jtag_uart_fd.o)
                              ../FreeLwIP_bsp/\libfreertos_bsp.a(alt_sys_init.o) (altera_avalon_jtag_uart_read_fd)
../FreeLwIP_bsp/\libfreertos_bsp.a(altera_avalon_jtag_uart_init.o)
                              ../FreeLwIP_bsp/\libfreertos_bsp.a(alt_sys_init.o) (altera_avalon_jtag_uart_init)
../FreeLwIP_bsp/\libfreertos_bsp.a(altera_avalon_jtag_uart_ioctl.o)
                              ../FreeLwIP_bsp/\libfreertos_bsp.a(altera_avalon_jtag_uart_fd.o) (altera_avalon_jtag_uart_ioctl)
../FreeLwIP_bsp/\libfreertos_bsp.a(altera_avalon_jtag_uart_read.o)
                              ../FreeLwIP_bsp/\libfreertos_bsp.a(altera_avalon_jtag_uart_fd.o) (altera_avalon_jtag_uart_read)
../FreeLwIP_bsp/\libfreertos_bsp.a(altera_avalon_jtag_uart_write.o)
                              ../FreeLwIP_bsp/\libfreertos_bsp.a(altera_avalon_jtag_uart_fd.o) (altera_avalon_jtag_uart_write)
../FreeLwIP_bsp/\libfreertos_bsp.a(altera_avalon_lcd_16207.o)
                              ../FreeLwIP_bsp/\libfreertos_bsp.a(alt_sys_init.o) (altera_avalon_lcd_16207_init)
../FreeLwIP_bsp/\libfreertos_bsp.a(altera_avalon_lcd_16207_fd.o)
                              ../FreeLwIP_bsp/\libfreertos_bsp.a(alt_sys_init.o) (altera_avalon_lcd_16207_write_fd)
../FreeLwIP_bsp/\libfreertos_bsp.a(altera_avalon_sgdma.o)
                              ../FreeLwIP_bsp/\libfreertos_bsp.a(lwip_tse_mac.o) (alt_avalon_sgdma_construct_stream_to_mem_desc)
../FreeLwIP_bsp/\libfreertos_bsp.a(altera_avalon_timer_sc.o)
                              ../FreeLwIP_bsp/\libfreertos_bsp.a(alt_sys_init.o) (alt_avalon_timer_sc_init)
../FreeLwIP_bsp/\libfreertos_bsp.a(altera_avalon_tse.o)
                              ../FreeLwIP_bsp/\libfreertos_bsp.a(lwip_tse_mac.o) (tse_mac_initTransInfo2)
../FreeLwIP_bsp/\libfreertos_bsp.a(altera_avalon_tse_system_info.o)
                              ../FreeLwIP_bsp/\libfreertos_bsp.a(lwip_main.o) (tse_mac_device)
../FreeLwIP_bsp/\libfreertos_bsp.a(altera_avalon_uart_fd.o)
                              ../FreeLwIP_bsp/\libfreertos_bsp.a(alt_sys_init.o) (altera_avalon_uart_read_fd)
../FreeLwIP_bsp/\libfreertos_bsp.a(altera_avalon_uart_init.o)
                              ../FreeLwIP_bsp/\libfreertos_bsp.a(alt_sys_init.o) (altera_avalon_uart_init)
../FreeLwIP_bsp/\libfreertos_bsp.a(altera_avalon_uart_read.o)
                              ../FreeLwIP_bsp/\libfreertos_bsp.a(altera_avalon_uart_fd.o) (altera_avalon_uart_read)
../FreeLwIP_bsp/\libfreertos_bsp.a(altera_avalon_uart_write.o)
                              ../FreeLwIP_bsp/\libfreertos_bsp.a(altera_avalon_uart_fd.o) (altera_avalon_uart_write)
../FreeLwIP_bsp/\libfreertos_bsp.a(altera_vic_0_vector_tbl.o)
                              ../FreeLwIP_bsp/\libfreertos_bsp.a(alt_sys_init.o) (VIC_0_VECTOR_TABLE)
../FreeLwIP_bsp/\libfreertos_bsp.a(altera_vic_funnel_non_preemptive.o)
                              ../FreeLwIP_bsp/\libfreertos_bsp.a(altera_vic_0_vector_tbl.o) (alt_shadow_non_preemptive_interrupt)
../FreeLwIP_bsp/\libfreertos_bsp.a(altera_vic_irq_init.o)
                              ../FreeLwIP_bsp/\libfreertos_bsp.a(alt_sys_init.o) (alt_vic_irq_init)
../FreeLwIP_bsp/\libfreertos_bsp.a(altera_vic_isr_register.o)
                              ../FreeLwIP_bsp/\libfreertos_bsp.a(altera_avalon_jtag_uart_init.o) (alt_ic_isr_register)
../FreeLwIP_bsp/\libfreertos_bsp.a(alt_env_lock.o)
                              ../FreeLwIP_bsp/\libfreertos_bsp.a(alt_main.o) (alt_envsem)
../FreeLwIP_bsp/\libfreertos_bsp.a(list.o)
                              ../FreeLwIP_bsp/\libfreertos_bsp.a(queue.o) (vListInitialise)
../FreeLwIP_bsp/\libfreertos_bsp.a(port.o)
                              ../FreeLwIP_bsp/\libfreertos_bsp.a(tasks.o) (enh_alt_irq_disable_all)
../FreeLwIP_bsp/\libfreertos_bsp.a(port_asm.o)
                              ../FreeLwIP_bsp/\libfreertos_bsp.a(port.o) (restore_sp_from_pxCurrentTCB)
../FreeLwIP_bsp/\libfreertos_bsp.a(alt_alarm_start.o)
                              ../FreeLwIP_bsp/\libfreertos_bsp.a(altera_avalon_jtag_uart_init.o) (alt_alarm_start)
../FreeLwIP_bsp/\libfreertos_bsp.a(alt_busy_sleep.o)
                              ../FreeLwIP_bsp/\libfreertos_bsp.a(alt_usleep.o) (alt_busy_sleep)
../FreeLwIP_bsp/\libfreertos_bsp.a(alt_close.o)
                              ../FreeLwIP_bsp/\libfreertos_bsp.a(alt_lwip_close.o) (alt_close)
../FreeLwIP_bsp/\libfreertos_bsp.a(alt_dcache_flush.o)
                              ../FreeLwIP_bsp/\libfreertos_bsp.a(altera_avalon_cfi_flash.o) (alt_dcache_flush)
../FreeLwIP_bsp/\libfreertos_bsp.a(alt_dcache_flush_all.o)
                              ../FreeLwIP_bsp/\libfreertos_bsp.a(alt_load.o) (alt_dcache_flush_all)
../FreeLwIP_bsp/\libfreertos_bsp.a(alt_dev_llist_insert.o)
                              ../FreeLwIP_bsp/\libfreertos_bsp.a(alt_sys_init.o) (alt_dev_llist_insert)
../FreeLwIP_bsp/\libfreertos_bsp.a(alt_errno.o)
                              ../FreeLwIP_bsp/\libfreertos_bsp.a(alt_fstat.o) (alt_errno)
../FreeLwIP_bsp/\libfreertos_bsp.a(alt_find_dev.o)
                              ../FreeLwIP_bsp/\libfreertos_bsp.a(alt_open.o) (alt_find_dev)
../FreeLwIP_bsp/\libfreertos_bsp.a(alt_find_file.o)
                              ../FreeLwIP_bsp/\libfreertos_bsp.a(alt_open.o) (alt_find_file)
../FreeLwIP_bsp/\libfreertos_bsp.a(alt_flash_dev.o)
                              ../FreeLwIP_bsp/\libfreertos_bsp.a(altera_avalon_cfi_flash.o) (alt_flash_dev_list)
../FreeLwIP_bsp/\libfreertos_bsp.a(alt_get_fd.o)
                              ../FreeLwIP_bsp/\libfreertos_bsp.a(alt_open.o) (alt_get_fd)
../FreeLwIP_bsp/\libfreertos_bsp.a(alt_gettod.o)
                              ../FreeLwIP_bsp/\libfreertos_bsp.a(sys_arch.o) (gettimeofday)
../FreeLwIP_bsp/\libfreertos_bsp.a(alt_icache_flush_all.o)
                              ../FreeLwIP_bsp/\libfreertos_bsp.a(alt_load.o) (alt_icache_flush_all)
../FreeLwIP_bsp/\libfreertos_bsp.a(alt_instruction_exception_entry.o)
                              ../FreeLwIP_bsp/\libfreertos_bsp.a(port_asm.o) (alt_instruction_exception_entry)
../FreeLwIP_bsp/\libfreertos_bsp.a(alt_read.o)
                              ../FreeLwIP_bsp/\libfreertos_bsp.a(alt_lwip_read.o) (alt_read)
../FreeLwIP_bsp/\libfreertos_bsp.a(alt_remap_uncached.o)
                              ../FreeLwIP_bsp/\libfreertos_bsp.a(lwip_tse_mac.o) (alt_remap_uncached)
../FreeLwIP_bsp/\libfreertos_bsp.a(alt_tick.o)
                              ../FreeLwIP_bsp/\libfreertos_bsp.a(alt_usleep.o) (_alt_tick_rate)
../FreeLwIP_bsp/\libfreertos_bsp.a(alt_uncached_malloc.o)
                              ../FreeLwIP_bsp/\libfreertos_bsp.a(lwip_tse_mac.o) (alt_uncached_malloc)
../FreeLwIP_bsp/\libfreertos_bsp.a(alt_write.o)
                              ../FreeLwIP_bsp/\libfreertos_bsp.a(alt_lwip_write.o) (alt_write)
../FreeLwIP_bsp/\libfreertos_bsp.a(altera_tse_ethernetif.o)
                              ../FreeLwIP_bsp/\libfreertos_bsp.a(lwip_main.o) (ethernetif_input)
../FreeLwIP_bsp/\libfreertos_bsp.a(icmp.o)
                              ../FreeLwIP_bsp/\libfreertos_bsp.a(ip.o) (icmp_input)
../FreeLwIP_bsp/\libfreertos_bsp.a(inet_chksum.o)
                              ../FreeLwIP_bsp/\libfreertos_bsp.a(tcp_in.o) (inet_chksum_pseudo)
../FreeLwIP_bsp/\libfreertos_bsp.a(altera_avalon_cfi_flash_amd.o)
                              ../FreeLwIP_bsp/\libfreertos_bsp.a(altera_avalon_cfi_flash_table.o) (alt_program_amd)
../FreeLwIP_bsp/\libfreertos_bsp.a(altera_avalon_cfi_flash_intel.o)
                              ../FreeLwIP_bsp/\libfreertos_bsp.a(altera_avalon_cfi_flash_table.o) (alt_program_intel)
../FreeLwIP_bsp/\libfreertos_bsp.a(alt_icache_flush.o)
                              ../FreeLwIP_bsp/\libfreertos_bsp.a(alt_icache_flush_all.o) (alt_icache_flush)
c:/altera/13.1/nios2eds/bin/gnu/h-i686-mingw32/bin/../lib/gcc/nios2-elf/4.7.3/../../../../../H-i686-mingw32/nios2-elf/lib\libc.a(lib_a-atexit.o)
                              ../FreeLwIP_bsp/\libfreertos_bsp.a(alt_main.o) (atexit)
c:/altera/13.1/nios2eds/bin/gnu/h-i686-mingw32/bin/../lib/gcc/nios2-elf/4.7.3/../../../../../H-i686-mingw32/nios2-elf/lib\libc.a(lib_a-ctype_.o)
                              ../FreeLwIP_bsp/\libfreertos_bsp.a(altera_avalon_lcd_16207.o) (__ctype_ptr)
c:/altera/13.1/nios2eds/bin/gnu/h-i686-mingw32/bin/../lib/gcc/nios2-elf/4.7.3/../../../../../H-i686-mingw32/nios2-elf/lib\libc.a(lib_a-errno.o)
                              ../FreeLwIP_bsp/\libfreertos_bsp.a(port_asm.o) (__errno)
c:/altera/13.1/nios2eds/bin/gnu/h-i686-mingw32/bin/../lib/gcc/nios2-elf/4.7.3/../../../../../H-i686-mingw32/nios2-elf/lib\libc.a(lib_a-exit.o)
                              ../FreeLwIP_bsp/\libfreertos_bsp.a(alt_main.o) (exit)
c:/altera/13.1/nios2eds/bin/gnu/h-i686-mingw32/bin/../lib/gcc/nios2-elf/4.7.3/../../../../../H-i686-mingw32/nios2-elf/lib\libc.a(lib_a-malloc.o)
                              ../FreeLwIP_bsp/\libfreertos_bsp.a(heap_3.o) (malloc)
c:/altera/13.1/nios2eds/bin/gnu/h-i686-mingw32/bin/../lib/gcc/nios2-elf/4.7.3/../../../../../H-i686-mingw32/nios2-elf/lib\libc.a(lib_a-memcmp.o)
                              ../FreeLwIP_bsp/\libfreertos_bsp.a(tasks.o) (memcmp)
c:/altera/13.1/nios2eds/bin/gnu/h-i686-mingw32/bin/../lib/gcc/nios2-elf/4.7.3/../../../../../H-i686-mingw32/nios2-elf/lib\libc.a(lib_a-snprintf.o)
                              ../FreeLwIP_bsp/\libfreertos_bsp.a(lwip_main.o) (snprintf)
c:/altera/13.1/nios2eds/bin/gnu/h-i686-mingw32/bin/../lib/gcc/nios2-elf/4.7.3/../../../../../H-i686-mingw32/nios2-elf/lib\libc.a(lib_a-strncpy.o)
                              ../FreeLwIP_bsp/\libfreertos_bsp.a(tasks.o) (strncpy)
c:/altera/13.1/nios2eds/bin/gnu/h-i686-mingw32/bin/../lib/gcc/nios2-elf/4.7.3/../../../../../H-i686-mingw32/nios2-elf/lib\libc.a(lib_a-__atexit.o)
                              c:/altera/13.1/nios2eds/bin/gnu/h-i686-mingw32/bin/../lib/gcc/nios2-elf/4.7.3/../../../../../H-i686-mingw32/nios2-elf/lib\libc.a(lib_a-atexit.o) (__register_exitproc)
c:/altera/13.1/nios2eds/bin/gnu/h-i686-mingw32/bin/../lib/gcc/nios2-elf/4.7.3/../../../../../H-i686-mingw32/nios2-elf/lib\libc.a(lib_a-__call_atexit.o)
                              c:/altera/13.1/nios2eds/bin/gnu/h-i686-mingw32/bin/../lib/gcc/nios2-elf/4.7.3/../../../../../H-i686-mingw32/nios2-elf/lib\libc.a(lib_a-exit.o) (__call_exitprocs)
../FreeLwIP_bsp/\libfreertos_bsp.a(alt_exit.o)
                              c:/altera/13.1/nios2eds/bin/gnu/h-i686-mingw32/bin/../lib/gcc/nios2-elf/4.7.3/../../../../../H-i686-mingw32/nios2-elf/lib\libc.a(lib_a-exit.o) (_exit)

Allocating common symbols
Common symbol       size              file

current_iphdr_src   0x4               ../FreeLwIP_bsp/\libfreertos_bsp.a(ip.o)
netif_list          0x4               ../FreeLwIP_bsp/\libfreertos_bsp.a(netif.o)
cDynamicPage        0xc00             obj/default/BasicWEB.o
tcp_active_pcbs_changed
                    0x1               ../FreeLwIP_bsp/\libfreertos_bsp.a(tcp.o)
tcp_active_pcbs     0x4               ../FreeLwIP_bsp/\libfreertos_bsp.a(tcp.o)
udp_pcbs            0x4               ../FreeLwIP_bsp/\libfreertos_bsp.a(udp.o)
errno               0x4               c:/altera/13.1/nios2eds/bin/gnu/h-i686-mingw32/bin/../lib/gcc/nios2-elf/4.7.3/../../../../../H-i686-mingw32/nios2-elf/lib\libc.a(lib_a-int_errno.o)
pmac_groups         0x20              ../FreeLwIP_bsp/\libfreertos_bsp.a(altera_avalon_tse.o)
current_netif       0x4               ../FreeLwIP_bsp/\libfreertos_bsp.a(ip.o)
alt_heapsem         0x4               ../FreeLwIP_bsp/\libfreertos_bsp.a(alt_malloc_lock.o)
tcp_ticks           0x4               ../FreeLwIP_bsp/\libfreertos_bsp.a(tcp.o)
tcp_listen_pcbs     0x4               ../FreeLwIP_bsp/\libfreertos_bsp.a(tcp.o)
xHighPriorityTask   0x4               obj/default/QPeek.o
current_iphdr_dest  0x4               ../FreeLwIP_bsp/\libfreertos_bsp.a(ip.o)
tse                 0x0               ../FreeLwIP_bsp/\libfreertos_bsp.a(lwip_tse_mac.o)
xMediumPriorityTask
                    0x4               obj/default/QPeek.o
alt_fd_list_lock    0x4               ../FreeLwIP_bsp/\libfreertos_bsp.a(alt_dev.o)
pphy_profiles       0x20              ../FreeLwIP_bsp/\libfreertos_bsp.a(altera_avalon_tse.o)
tcp_tmp_pcb         0x4               ../FreeLwIP_bsp/\libfreertos_bsp.a(tcp.o)
tcp_input_pcb       0x4               ../FreeLwIP_bsp/\libfreertos_bsp.a(tcp_in.o)
current_header      0x4               ../FreeLwIP_bsp/\libfreertos_bsp.a(ip.o)
dhcp_rx_options_given
                    0xa               ../FreeLwIP_bsp/\libfreertos_bsp.a(dhcp.o)
tcp_bound_pcbs      0x4               ../FreeLwIP_bsp/\libfreertos_bsp.a(tcp.o)
eth_tse             0x0               ../FreeLwIP_bsp/\libfreertos_bsp.a(lwip_main.o)
xHighestPriorityTask
                    0x4               obj/default/QPeek.o
_atexit0            0x190             c:/altera/13.1/nios2eds/bin/gnu/h-i686-mingw32/bin/../lib/gcc/nios2-elf/4.7.3/../../../../../H-i686-mingw32/nios2-elf/lib\libc.a(lib_a-atexit.o)
pbuf_free_ooseq_pending
                    0x1               ../FreeLwIP_bsp/\libfreertos_bsp.a(pbuf.o)
alt_vic_dev_list    0x4               ../FreeLwIP_bsp/\libfreertos_bsp.a(altera_vic_irq_init.o)
xCreatedTask        0x4               obj/default/death.o
cPageHits           0xb               obj/default/BasicWEB.o
tcp_tw_pcbs         0x4               ../FreeLwIP_bsp/\libfreertos_bsp.a(tcp.o)
lwip_stats          0x274             ../FreeLwIP_bsp/\libfreertos_bsp.a(stats.o)
netif_default       0x4               ../FreeLwIP_bsp/\libfreertos_bsp.a(netif.o)
dhcp_rx_options_val
                    0x28              ../FreeLwIP_bsp/\libfreertos_bsp.a(dhcp.o)
xSuspendedTestQueue
                    0x4               obj/default/dynamic.o
ram_heap            0x8014            ../FreeLwIP_bsp/\libfreertos_bsp.a(mem.o)
alt_envsem          0x4               ../FreeLwIP_bsp/\libfreertos_bsp.a(alt_env_lock.o)

Memory Configuration

Name             Origin             Length             Attributes
sdram_BEFORE_EXCEPTION 0x00000000         0x00000020
sdram            0x00000020         0x01ffffe0
descriptor_memory 0x02001000         0x00001000
cfi_flash        0x04000000         0x00800000
reset            0x05000000         0x00000020
sram             0x05000020         0x001fffe0
onchip_memory2   0x0a000000         0x00020000
*default*        0x00000000         0xffffffff

Linker script and memory map

LOAD ../FreeLwIP_bsp//obj/HAL/src/crt0.o
LOAD obj/default/BasicWEB.o
LOAD obj/default/BlockQ.o
LOAD obj/default/GenQTest.o
LOAD obj/default/PollQ.o
LOAD obj/default/QPeek.o
LOAD obj/default/blocktim.o
LOAD obj/default/countsem.o
LOAD obj/default/death.o
LOAD obj/default/dynamic.o
LOAD obj/default/echo_server.o
LOAD obj/default/ethernet.o
LOAD obj/default/integer.o
LOAD obj/default/main.o
LOAD obj/default/recmutex.o
LOAD obj/default/semtest.o
LOAD c:/altera/13.1/nios2eds/bin/gnu/h-i686-mingw32/bin/../lib/gcc/nios2-elf/4.7.3/../../../../../H-i686-mingw32/nios2-elf/lib\libstdc++.a
LOAD c:/altera/13.1/nios2eds/bin/gnu/h-i686-mingw32/bin/../lib/gcc/nios2-elf/4.7.3/../../../../../H-i686-mingw32/nios2-elf/lib\libm.a
LOAD c:/altera/13.1/nios2eds/bin/gnu/h-i686-mingw32/bin/../lib/gcc/nios2-elf/4.7.3\libgcc.a
START GROUP
LOAD c:/altera/13.1/nios2eds/bin/gnu/h-i686-mingw32/bin/../lib/gcc/nios2-elf/4.7.3/../../../../../H-i686-mingw32/nios2-elf/lib\libc.a
LOAD c:/altera/13.1/nios2eds/bin/gnu/h-i686-mingw32/bin/../lib/gcc/nios2-elf/4.7.3\libgcc.a
LOAD ../FreeLwIP_bsp/\libfreertos_bsp.a
END GROUP
LOAD c:/altera/13.1/nios2eds/bin/gnu/h-i686-mingw32/bin/../lib/gcc/nios2-elf/4.7.3\libgcc.a
                0x00000000                __alt_mem_sdram = 0x0
                0x02001000                __alt_mem_descriptor_memory = 0x2001000
                0x04000000                __alt_mem_cfi_flash = 0x4000000
                0x05000000                __alt_mem_sram = 0x5000000
                0x0a000000                __alt_mem_onchip_memory2 = 0xa000000

.entry          0x05000000       0x20
 *(.entry)
 .entry         0x05000000       0x20 ../FreeLwIP_bsp//obj/HAL/src/crt0.o
                0x05000000                __reset

.exceptions     0x00000020      0x204
                0x00000020                PROVIDE (__ram_exceptions_start, ABSOLUTE (.))
                0x00000020                . = ALIGN (0x20)
 *(.irq)
 *(.exceptions.entry.label)
 *(.exceptions.entry.user)
 *(.exceptions.entry.ecc_fatal)
 *(.exceptions.entry)
 .exceptions.entry
                0x00000020       0xa0 ../FreeLwIP_bsp/\libfreertos_bsp.a(port_asm.o)
 *(.exceptions.irqtest.user)
 *(.exceptions.irqtest)
 .exceptions.irqtest
                0x000000c0       0x14 ../FreeLwIP_bsp/\libfreertos_bsp.a(port_asm.o)
 *(.exceptions.irqhandler.user)
 *(.exceptions.irqhandler)
 .exceptions.irqhandler
                0x000000d4        0x4 ../FreeLwIP_bsp/\libfreertos_bsp.a(port_asm.o)
 *(.exceptions.irqreturn.user)
 *(.exceptions.irqreturn)
 .exceptions.irqreturn
                0x000000d8       0xa0 ../FreeLwIP_bsp/\libfreertos_bsp.a(port_asm.o)
                0x000000d8                restore_sp_from_pxCurrentTCB
 *(.exceptions.notirq.label)
 *(.exceptions.notirq.user)
 *(.exceptions.notirq)
 *(.exceptions.soft.user)
 *(.exceptions.soft)
 .exceptions.soft
                0x00000178       0x38 ../FreeLwIP_bsp/\libfreertos_bsp.a(port_asm.o)
 *(.exceptions.unknown.user)
 *(.exceptions.unknown)
 *(.exceptions.exit.label)
 *(.exceptions.exit.user)
 *(.exceptions.exit)
 *(.exceptions)
 .exceptions    0x000001b0       0x74 ../FreeLwIP_bsp/\libfreertos_bsp.a(alt_instruction_exception_entry.o)
                0x000001b0                alt_instruction_exception_entry
                0x00000224                PROVIDE (__ram_exceptions_end, ABSOLUTE (.))
                0x00000020                PROVIDE (__flash_exceptions_start, LOADADDR (.exceptions))

.text           0x00000224    0x3f58c
                0x00000224                PROVIDE (stext, ABSOLUTE (.))
 *(.interp)
 *(.hash)
 *(.dynsym)
 *(.dynstr)
 *(.gnu.version)
 *(.gnu.version_d)
 *(.gnu.version_r)
 *(.rel.init)
 *(.rela.init)
 *(.rel.text .rel.text.* .rel.gnu.linkonce.t.*)
 *(.rela.text .rela.text.* .rela.gnu.linkonce.t.*)
 *(.rel.fini)
 *(.rela.fini)
 *(.rel.rodata .rel.rodata.* .rel.gnu.linkonce.r.*)
 *(.rela.rodata .rela.rodata.* .rela.gnu.linkonce.r.*)
 *(.rel.data .rel.data.* .rel.gnu.linkonce.d.*)
 *(.rela.data .rela.data.* .rela.gnu.linkonce.d.*)
 *(.rel.tdata .rel.tdata.* .rel.gnu.linkonce.td.*)
 *(.rela.tdata .rela.tdata.* .rela.gnu.linkonce.td.*)
 *(.rel.tbss .rel.tbss.* .rel.gnu.linkonce.tb.*)
 *(.rela.tbss .rela.tbss.* .rela.gnu.linkonce.tb.*)
 *(.rel.ctors)
 *(.rela.ctors)
 *(.rel.dtors)
 *(.rela.dtors)
 *(.rel.got)
 *(.rela.got)
 *(.rel.sdata .rel.sdata.* .rel.gnu.linkonce.s.*)
 *(.rela.sdata .rela.sdata.* .rela.gnu.linkonce.s.*)
 *(.rel.sbss .rel.sbss.* .rel.gnu.linkonce.sb.*)
 *(.rela.sbss .rela.sbss.* .rela.gnu.linkonce.sb.*)
 *(.rel.sdata2 .rel.sdata2.* .rel.gnu.linkonce.s2.*)
 *(.rela.sdata2 .rela.sdata2.* .rela.gnu.linkonce.s2.*)
 *(.rel.sbss2 .rel.sbss2.* .rel.gnu.linkonce.sb2.*)
 *(.rela.sbss2 .rela.sbss2.* .rela.gnu.linkonce.sb2.*)
 *(.rel.bss .rel.bss.* .rel.gnu.linkonce.b.*)
 *(.rela.bss .rela.bss.* .rela.gnu.linkonce.b.*)
 *(.rel.plt)
 *(.rela.plt)
 *(.rel.dyn)
 *(.init)
 *(.plt)
 *(.text .stub .text.* .gnu.linkonce.t.*)
 .text          0x00000224       0x7c ../FreeLwIP_bsp//obj/HAL/src/crt0.o
                0x00000224                _start
 .text          0x000002a0      0x260 obj/default/BasicWEB.o
                0x000002a0                vBasicWEBServer
 .text          0x00000500      0x50c obj/default/BlockQ.o
                0x00000500                vStartBlockingQueueTasks
                0x000008e4                xAreBlockingQueuesStillRunning
 .text          0x00000a0c      0x79c obj/default/GenQTest.o
                0x00000a0c                vStartGenericQueueTasks
                0x00001148                xAreGenericQueueTasksStillRunning
 .text          0x000011a8      0x260 obj/default/PollQ.o
                0x000011a8                vStartPolledQueueTasks
                0x000013c0                xArePollingQueuesStillRunning
 .text          0x00001408      0x568 obj/default/QPeek.o
                0x00001408                vStartQueuePeekTasks
                0x0000192c                xAreQueuePeekTasksStillRunning
 .text          0x00001970      0x648 obj/default/blocktim.o
                0x00001970                vCreateBlockTimeTasks
                0x00001f50                xAreBlockTimeTestTasksStillRunning
 .text          0x00001fb8      0x3dc obj/default/countsem.o
                0x00001fb8                vStartCountingSemaphoreTasks
                0x00002308                xAreCountingSemaphoreTasksStillRunning
 .text          0x00002394      0x254 obj/default/death.o
                0x00002394                vCreateSuicidalTasks
                0x00002560                xIsCreateTaskStillRunning
 .text          0x000025e8      0x404 obj/default/dynamic.o
                0x000025e8                vStartDynamicPriorityTasks
                0x00002984                xAreDynamicPriorityTasksStillRunning
 .text          0x000029ec      0x1d4 obj/default/echo_server.o
                0x000029ec                prvMySocketTest
 .text          0x00002bc0      0x5a8 obj/default/ethernet.o
                0x00002c20                InitNetwork
                0x00002e3c                xEthernetRun
                0x00002eec                get_mac_addr
                0x00003008                get_ip_addr
                0x000030c4                get_hostname
                0x000030fc                get_iface_name
                0x00003144                is_interface_active
 .text          0x00003168      0x1ac obj/default/integer.o
                0x00003168                vStartIntegerMathTasks
                0x00003298                xAreIntegerMathsTaskStillRunning
 .text          0x00003314      0x6c8 obj/default/main.o
                0x00003314                main
                0x00003430                vApplicationStackOverflowHook
                0x0000346c                vApplicationMallocFailedHook
                0x0000349c                _general_exception_handler
 .text          0x000039dc      0x3c8 obj/default/recmutex.o
                0x000039dc                vStartRecursiveMutexTasks
                0x00003d08                xAreRecursiveMutexTasksStillRunning
 .text          0x00003da4      0x44c obj/default/semtest.o
                0x00003da4                vStartSemaphoreTasks
                0x00004138                xAreSemaphoreTasksStillRunning
 .text          0x000041f0       0xf8 c:/altera/13.1/nios2eds/bin/gnu/h-i686-mingw32/bin/../lib/gcc/nios2-elf/4.7.3/../../../../../H-i686-mingw32/nios2-elf/lib\libc.a(lib_a-memcpy.o)
                0x000041f0                memcpy
 .text          0x000042e8       0xdc c:/altera/13.1/nios2eds/bin/gnu/h-i686-mingw32/bin/../lib/gcc/nios2-elf/4.7.3/../../../../../H-i686-mingw32/nios2-elf/lib\libc.a(lib_a-memset.o)
                0x000042e8                memset
 .text          0x000043c4       0x84 c:/altera/13.1/nios2eds/bin/gnu/h-i686-mingw32/bin/../lib/gcc/nios2-elf/4.7.3/../../../../../H-i686-mingw32/nios2-elf/lib\libc.a(lib_a-perror.o)
                0x000043c4                _perror_r
                0x00004434                perror
 .text          0x00004448       0x68 c:/altera/13.1/nios2eds/bin/gnu/h-i686-mingw32/bin/../lib/gcc/nios2-elf/4.7.3/../../../../../H-i686-mingw32/nios2-elf/lib\libc.a(lib_a-printf.o)
                0x00004448                _printf_r
                0x00004474                printf
 .text          0x000044b0       0x98 c:/altera/13.1/nios2eds/bin/gnu/h-i686-mingw32/bin/../lib/gcc/nios2-elf/4.7.3/../../../../../H-i686-mingw32/nios2-elf/lib\libc.a(lib_a-puts.o)
                0x000044b0                _puts_r
                0x00004534                puts
 .text          0x00004548       0xc4 c:/altera/13.1/nios2eds/bin/gnu/h-i686-mingw32/bin/../lib/gcc/nios2-elf/4.7.3/../../../../../H-i686-mingw32/nios2-elf/lib\libc.a(lib_a-sprintf.o)
                0x00004548                _sprintf_r
                0x000045a0                sprintf
 .text          0x0000460c       0x98 c:/altera/13.1/nios2eds/bin/gnu/h-i686-mingw32/bin/../lib/gcc/nios2-elf/4.7.3/../../../../../H-i686-mingw32/nios2-elf/lib\libc.a(lib_a-strcat.o)
                0x0000460c                strcat
 .text          0x000046a4       0x94 c:/altera/13.1/nios2eds/bin/gnu/h-i686-mingw32/bin/../lib/gcc/nios2-elf/4.7.3/../../../../../H-i686-mingw32/nios2-elf/lib\libc.a(lib_a-strcpy.o)
                0x000046a4                strcpy
 .text          0x00004738      0x664 c:/altera/13.1/nios2eds/bin/gnu/h-i686-mingw32/bin/../lib/gcc/nios2-elf/4.7.3/../../../../../H-i686-mingw32/nios2-elf/lib\libc.a(lib_a-strerror.o)
                0x00004738                strerror
 .text          0x00004d9c       0x8c c:/altera/13.1/nios2eds/bin/gnu/h-i686-mingw32/bin/../lib/gcc/nios2-elf/4.7.3/../../../../../H-i686-mingw32/nios2-elf/lib\libc.a(lib_a-strlen.o)
                0x00004d9c                strlen
 .text          0x00004e28       0xfc c:/altera/13.1/nios2eds/bin/gnu/h-i686-mingw32/bin/../lib/gcc/nios2-elf/4.7.3/../../../../../H-i686-mingw32/nios2-elf/lib\libc.a(lib_a-strncmp.o)
                0x00004e28                strncmp
 .text          0x00004f24        0x8 c:/altera/13.1/nios2eds/bin/gnu/h-i686-mingw32/bin/../lib/gcc/nios2-elf/4.7.3/../../../../../H-i686-mingw32/nios2-elf/lib\libc.a(lib_a-u_strerr.o)
                0x00004f24                _user_strerror
 .text          0x00004f2c     0x1e50 c:/altera/13.1/nios2eds/bin/gnu/h-i686-mingw32/bin/../lib/gcc/nios2-elf/4.7.3/../../../../../H-i686-mingw32/nios2-elf/lib\libc.a(lib_a-vfprintf.o)
                0x00004f60                ___vfprintf_internal_r
                0x00006d58                __vfprintf_internal
 .text          0x00006d7c      0x174 c:/altera/13.1/nios2eds/bin/gnu/h-i686-mingw32/bin/../lib/gcc/nios2-elf/4.7.3/../../../../../H-i686-mingw32/nios2-elf/lib\libc.a(lib_a-wsetup.o)
                0x00006d7c                __swsetup_r
 .text          0x00006ef0     0x1824 c:/altera/13.1/nios2eds/bin/gnu/h-i686-mingw32/bin/../lib/gcc/nios2-elf/4.7.3/../../../../../H-i686-mingw32/nios2-elf/lib\libc.a(lib_a-dtoa.o)
                0x000070f8                _dtoa_r
 .text          0x00008714      0x218 c:/altera/13.1/nios2eds/bin/gnu/h-i686-mingw32/bin/../lib/gcc/nios2-elf/4.7.3/../../../../../H-i686-mingw32/nios2-elf/lib\libc.a(lib_a-fflush.o)
                0x00008714                _fflush_r
                0x000088fc                fflush
 .text          0x0000892c      0x2d8 c:/altera/13.1/nios2eds/bin/gnu/h-i686-mingw32/bin/../lib/gcc/nios2-elf/4.7.3/../../../../../H-i686-mingw32/nios2-elf/lib\libc.a(lib_a-findfp.o)
                0x0000893c                _cleanup_r
                0x00008948                __sfmoreglue
                0x000089ac                _cleanup
                0x000089bc                __sinit
                0x00008ac8                __sfp
                0x00008bc4                __sfp_lock_acquire
                0x00008bc8                __sfp_lock_release
                0x00008bcc                __sinit_lock_acquire
                0x00008bd0                __sinit_lock_release
                0x00008bd4                __fp_lock_all
                0x00008bec                __fp_unlock_all
 .text          0x00008c04       0xa4 c:/altera/13.1/nios2eds/bin/gnu/h-i686-mingw32/bin/../lib/gcc/nios2-elf/4.7.3/../../../../../H-i686-mingw32/nios2-elf/lib\libc.a(lib_a-fputc.o)
                0x00008c04                _fputc_r
                0x00008c48                fputc
 .text          0x00008ca8       0x90 c:/altera/13.1/nios2eds/bin/gnu/h-i686-mingw32/bin/../lib/gcc/nios2-elf/4.7.3/../../../../../H-i686-mingw32/nios2-elf/lib\libc.a(lib_a-fputs.o)
                0x00008ca8                _fputs_r
                0x00008d1c                fputs
 .text          0x00008d38      0x40c c:/altera/13.1/nios2eds/bin/gnu/h-i686-mingw32/bin/../lib/gcc/nios2-elf/4.7.3/../../../../../H-i686-mingw32/nios2-elf/lib\libc.a(lib_a-freer.o)
                0x00008d38                _malloc_trim_r
                0x00008e74                _free_r
 .text          0x00009144      0x4e4 c:/altera/13.1/nios2eds/bin/gnu/h-i686-mingw32/bin/../lib/gcc/nios2-elf/4.7.3/../../../../../H-i686-mingw32/nios2-elf/lib\libc.a(lib_a-fvwrite.o)
                0x00009144                __sfvwrite_r
 .text          0x00009628      0x160 c:/altera/13.1/nios2eds/bin/gnu/h-i686-mingw32/bin/../lib/gcc/nios2-elf/4.7.3/../../../../../H-i686-mingw32/nios2-elf/lib\libc.a(lib_a-fwalk.o)
                0x00009628                _fwalk
                0x000096d0                _fwalk_reent
 .text          0x00009788        0x0 c:/altera/13.1/nios2eds/bin/gnu/h-i686-mingw32/bin/../lib/gcc/nios2-elf/4.7.3/../../../../../H-i686-mingw32/nios2-elf/lib\libc.a(lib_a-impure.o)
 .text          0x00009788       0xdc c:/altera/13.1/nios2eds/bin/gnu/h-i686-mingw32/bin/../lib/gcc/nios2-elf/4.7.3/../../../../../H-i686-mingw32/nios2-elf/lib\libc.a(lib_a-locale.o)
                0x00009788                _setlocale_r
                0x00009824                __locale_charset
                0x00009830                _localeconv_r
                0x0000983c                setlocale
                0x00009858                localeconv
 .text          0x00009864      0x1a8 c:/altera/13.1/nios2eds/bin/gnu/h-i686-mingw32/bin/../lib/gcc/nios2-elf/4.7.3/../../../../../H-i686-mingw32/nios2-elf/lib\libc.a(lib_a-makebuf.o)
                0x00009864                __smakebuf_r
 .text          0x00009a0c      0x784 c:/altera/13.1/nios2eds/bin/gnu/h-i686-mingw32/bin/../lib/gcc/nios2-elf/4.7.3/../../../../../H-i686-mingw32/nios2-elf/lib\libc.a(lib_a-mallocr.o)
                0x00009a0c                _malloc_r
 .text          0x0000a190       0xf8 c:/altera/13.1/nios2eds/bin/gnu/h-i686-mingw32/bin/../lib/gcc/nios2-elf/4.7.3/../../../../../H-i686-mingw32/nios2-elf/lib\libc.a(lib_a-memchr.o)
                0x0000a190                memchr
 .text          0x0000a288      0x128 c:/altera/13.1/nios2eds/bin/gnu/h-i686-mingw32/bin/../lib/gcc/nios2-elf/4.7.3/../../../../../H-i686-mingw32/nios2-elf/lib\libc.a(lib_a-memmove.o)
                0x0000a288                memmove
 .text          0x0000a3b0      0xfa8 c:/altera/13.1/nios2eds/bin/gnu/h-i686-mingw32/bin/../lib/gcc/nios2-elf/4.7.3/../../../../../H-i686-mingw32/nios2-elf/lib\libc.a(lib_a-mprec.o)
                0x0000a3b0                _Balloc
                0x0000a458                _Bfree
                0x0000a480                __multadd
                0x0000a594                __s2b
                0x0000a698                __hi0bits
                0x0000a700                __lo0bits
                0x0000a7b0                __i2b
                0x0000a7ec                __multiply
                0x0000a9cc                __pow5mult
                0x0000aaf8                __lshift
                0x0000ac54                __mcmp
                0x0000acac                __mdiff
                0x0000ae54                __ulp
                0x0000aeb4                __b2d
                0x0000affc                __d2b
                0x0000b140                __ratio
                0x0000b1e4                _mprec_log10
                0x0000b258                __copybits
                0x0000b2d4                __any_on
 .text          0x0000b358      0x1ac c:/altera/13.1/nios2eds/bin/gnu/h-i686-mingw32/bin/../lib/gcc/nios2-elf/4.7.3/../../../../../H-i686-mingw32/nios2-elf/lib\libc.a(lib_a-putc.o)
                0x0000b358                _putc_r
                0x0000b414                putc
 .text          0x0000b504      0x5fc c:/altera/13.1/nios2eds/bin/gnu/h-i686-mingw32/bin/../lib/gcc/nios2-elf/4.7.3/../../../../../H-i686-mingw32/nios2-elf/lib\libc.a(lib_a-reallocr.o)
                0x0000b504                _realloc_r
 .text          0x0000bb00       0x38 c:/altera/13.1/nios2eds/bin/gnu/h-i686-mingw32/bin/../lib/gcc/nios2-elf/4.7.3/../../../../../H-i686-mingw32/nios2-elf/lib\libc.a(lib_a-s_isinfd.o)
                0x0000bb00                __isinfd
 .text          0x0000bb38       0x2c c:/altera/13.1/nios2eds/bin/gnu/h-i686-mingw32/bin/../lib/gcc/nios2-elf/4.7.3/../../../../../H-i686-mingw32/nios2-elf/lib\libc.a(lib_a-s_isnand.o)
                0x0000bb38                __isnand
 .text          0x0000bb64       0x64 c:/altera/13.1/nios2eds/bin/gnu/h-i686-mingw32/bin/../lib/gcc/nios2-elf/4.7.3/../../../../../H-i686-mingw32/nios2-elf/lib\libc.a(lib_a-sbrkr.o)
                0x0000bb64                _sbrk_r
 .text          0x0000bbc8      0x140 c:/altera/13.1/nios2eds/bin/gnu/h-i686-mingw32/bin/../lib/gcc/nios2-elf/4.7.3/../../../../../H-i686-mingw32/nios2-elf/lib\libc.a(lib_a-stdio.o)
                0x0000bbc8                __sread
                0x0000bc1c                __swrite
                0x0000bca4                __sseek
                0x0000bd00                __sclose
 .text          0x0000bd08       0xa4 c:/altera/13.1/nios2eds/bin/gnu/h-i686-mingw32/bin/../lib/gcc/nios2-elf/4.7.3/../../../../../H-i686-mingw32/nios2-elf/lib\libc.a(lib_a-strcmp.o)
                0x0000bd08                strcmp
 .text          0x0000bdac      0x158 c:/altera/13.1/nios2eds/bin/gnu/h-i686-mingw32/bin/../lib/gcc/nios2-elf/4.7.3/../../../../../H-i686-mingw32/nios2-elf/lib\libc.a(lib_a-wbuf.o)
                0x0000bdac                __swbuf_r
                0x0000bee8                __swbuf
 .text          0x0000bf04       0x6c c:/altera/13.1/nios2eds/bin/gnu/h-i686-mingw32/bin/../lib/gcc/nios2-elf/4.7.3/../../../../../H-i686-mingw32/nios2-elf/lib\libc.a(lib_a-writer.o)
                0x0000bf04                _write_r
 .text          0x0000bf70       0xbc c:/altera/13.1/nios2eds/bin/gnu/h-i686-mingw32/bin/../lib/gcc/nios2-elf/4.7.3/../../../../../H-i686-mingw32/nios2-elf/lib\libc.a(lib_a-callocr.o)
                0x0000bf70                _calloc_r
 .text          0x0000c02c       0x64 c:/altera/13.1/nios2eds/bin/gnu/h-i686-mingw32/bin/../lib/gcc/nios2-elf/4.7.3/../../../../../H-i686-mingw32/nios2-elf/lib\libc.a(lib_a-closer.o)
                0x0000c02c                _close_r
 .text          0x0000c090      0x150 c:/altera/13.1/nios2eds/bin/gnu/h-i686-mingw32/bin/../lib/gcc/nios2-elf/4.7.3/../../../../../H-i686-mingw32/nios2-elf/lib\libc.a(lib_a-fclose.o)
                0x0000c090                _fclose_r
                0x0000c1cc                fclose
 .text          0x0000c1e0       0x68 c:/altera/13.1/nios2eds/bin/gnu/h-i686-mingw32/bin/../lib/gcc/nios2-elf/4.7.3/../../../../../H-i686-mingw32/nios2-elf/lib\libc.a(lib_a-fstatr.o)
                0x0000c1e0                _fstat_r
 .text          0x0000c248        0x0 c:/altera/13.1/nios2eds/bin/gnu/h-i686-mingw32/bin/../lib/gcc/nios2-elf/4.7.3/../../../../../H-i686-mingw32/nios2-elf/lib\libc.a(lib_a-int_errno.o)
 .text          0x0000c248       0x64 c:/altera/13.1/nios2eds/bin/gnu/h-i686-mingw32/bin/../lib/gcc/nios2-elf/4.7.3/../../../../../H-i686-mingw32/nios2-elf/lib\libc.a(lib_a-isattyr.o)
                0x0000c248                _isatty_r
 .text          0x0000c2ac       0x6c c:/altera/13.1/nios2eds/bin/gnu/h-i686-mingw32/bin/../lib/gcc/nios2-elf/4.7.3/../../../../../H-i686-mingw32/nios2-elf/lib\libc.a(lib_a-lseekr.o)
                0x0000c2ac                _lseek_r
 .text          0x0000c318       0x6c c:/altera/13.1/nios2eds/bin/gnu/h-i686-mingw32/bin/../lib/gcc/nios2-elf/4.7.3/../../../../../H-i686-mingw32/nios2-elf/lib\libc.a(lib_a-readr.o)
                0x0000c318                _read_r
 .text          0x0000c384      0x5c8 c:/altera/13.1/nios2eds/bin/gnu/h-i686-mingw32/bin/../lib/gcc/nios2-elf/4.7.3\libgcc.a(_udivdi3.o)
                0x0000c384                __udivdi3
 .text          0x0000c94c      0x58c c:/altera/13.1/nios2eds/bin/gnu/h-i686-mingw32/bin/../lib/gcc/nios2-elf/4.7.3\libgcc.a(_umoddi3.o)
                0x0000c94c                __umoddi3
 .text          0x0000ced8      0x408 c:/altera/13.1/nios2eds/bin/gnu/h-i686-mingw32/bin/../lib/gcc/nios2-elf/4.7.3\libgcc.a(_addsub_df.o)
                0x0000d22c                __adddf3
                0x0000d280                __subdf3
 .text          0x0000d2e0      0x2e4 c:/altera/13.1/nios2eds/bin/gnu/h-i686-mingw32/bin/../lib/gcc/nios2-elf/4.7.3\libgcc.a(_mul_df.o)
                0x0000d2e0                __muldf3
 .text          0x0000d5c4      0x1b4 c:/altera/13.1/nios2eds/bin/gnu/h-i686-mingw32/bin/../lib/gcc/nios2-elf/4.7.3\libgcc.a(_div_df.o)
                0x0000d5c4                __divdf3
 .text          0x0000d778       0x5c c:/altera/13.1/nios2eds/bin/gnu/h-i686-mingw32/bin/../lib/gcc/nios2-elf/4.7.3\libgcc.a(_eq_df.o)
                0x0000d778                __eqdf2
 .text          0x0000d7d4       0x5c c:/altera/13.1/nios2eds/bin/gnu/h-i686-mingw32/bin/../lib/gcc/nios2-elf/4.7.3\libgcc.a(_ne_df.o)
                0x0000d7d4                __nedf2
 .text          0x0000d830       0x64 c:/altera/13.1/nios2eds/bin/gnu/h-i686-mingw32/bin/../lib/gcc/nios2-elf/4.7.3\libgcc.a(_gt_df.o)
                0x0000d830                __gtdf2
 .text          0x0000d894       0x64 c:/altera/13.1/nios2eds/bin/gnu/h-i686-mingw32/bin/../lib/gcc/nios2-elf/4.7.3\libgcc.a(_ge_df.o)
                0x0000d894                __gedf2
 .text          0x0000d8f8       0x5c c:/altera/13.1/nios2eds/bin/gnu/h-i686-mingw32/bin/../lib/gcc/nios2-elf/4.7.3\libgcc.a(_lt_df.o)
                0x0000d8f8                __ltdf2
 .text          0x0000d954       0xd4 c:/altera/13.1/nios2eds/bin/gnu/h-i686-mingw32/bin/../lib/gcc/nios2-elf/4.7.3\libgcc.a(_si_to_df.o)
                0x0000d954                __floatsidf
 .text          0x0000da28       0xd4 c:/altera/13.1/nios2eds/bin/gnu/h-i686-mingw32/bin/../lib/gcc/nios2-elf/4.7.3\libgcc.a(_df_to_si.o)
                0x0000da28                __fixdfsi
 .text          0x0000dafc        0x0 c:/altera/13.1/nios2eds/bin/gnu/h-i686-mingw32/bin/../lib/gcc/nios2-elf/4.7.3\libgcc.a(_thenan_df.o)
 .text          0x0000dafc      0x11c c:/altera/13.1/nios2eds/bin/gnu/h-i686-mingw32/bin/../lib/gcc/nios2-elf/4.7.3\libgcc.a(_usi_to_df.o)
                0x0000dafc                __floatunsidf
 .text          0x0000dc18      0x130 c:/altera/13.1/nios2eds/bin/gnu/h-i686-mingw32/bin/../lib/gcc/nios2-elf/4.7.3\libgcc.a(lib2-divmod.o)
                0x0000dc8c                __divsi3
                0x0000dcdc                __modsi3
                0x0000dd38                __udivsi3
                0x0000dd40                __umodsi3
 .text          0x0000dd48       0x60 c:/altera/13.1/nios2eds/bin/gnu/h-i686-mingw32/bin/../lib/gcc/nios2-elf/4.7.3\libgcc.a(_muldi3.o)
                0x0000dd48                __muldi3
 .text          0x0000dda8        0x0 c:/altera/13.1/nios2eds/bin/gnu/h-i686-mingw32/bin/../lib/gcc/nios2-elf/4.7.3\libgcc.a(_clz.o)
 .text          0x0000dda8       0xac c:/altera/13.1/nios2eds/bin/gnu/h-i686-mingw32/bin/../lib/gcc/nios2-elf/4.7.3\libgcc.a(_clzsi2.o)
                0x0000dda8                __clzsi2
 .text          0x0000de54      0x224 c:/altera/13.1/nios2eds/bin/gnu/h-i686-mingw32/bin/../lib/gcc/nios2-elf/4.7.3\libgcc.a(_pack_df.o)
                0x0000de54                __pack_d
 .text          0x0000e078      0x104 c:/altera/13.1/nios2eds/bin/gnu/h-i686-mingw32/bin/../lib/gcc/nios2-elf/4.7.3\libgcc.a(_unpack_df.o)
                0x0000e078                __unpack_d
 .text          0x0000e17c       0xd0 c:/altera/13.1/nios2eds/bin/gnu/h-i686-mingw32/bin/../lib/gcc/nios2-elf/4.7.3\libgcc.a(_fpcmp_parts_df.o)
                0x0000e17c                __fpcmp_parts_d
 .text          0x0000e24c       0x44 c:/altera/13.1/nios2eds/bin/gnu/h-i686-mingw32/bin/../lib/gcc/nios2-elf/4.7.3\libgcc.a(_lshrdi3.o)
                0x0000e24c                __lshrdi3
 .text          0x0000e290       0x44 c:/altera/13.1/nios2eds/bin/gnu/h-i686-mingw32/bin/../lib/gcc/nios2-elf/4.7.3\libgcc.a(_ashldi3.o)
                0x0000e290                __ashldi3
 .text          0x0000e2d4      0x120 ../FreeLwIP_bsp/\libfreertos_bsp.a(alt_main.o)
                0x0000e2d4                pre_constructors
                0x0000e2f0                post_constructors
                0x0000e30c                alt_main
 .text          0x0000e3f4       0xa4 ../FreeLwIP_bsp/\libfreertos_bsp.a(alt_malloc_lock.o)
                0x0000e3f4                __malloc_lock
                0x0000e454                __malloc_unlock
 .text          0x0000e498       0x80 ../FreeLwIP_bsp/\libfreertos_bsp.a(heap_3.o)
                0x0000e498                pvPortMalloc
                0x0000e4d8                vPortFree
 .text          0x0000e518      0xffc ../FreeLwIP_bsp/\libfreertos_bsp.a(queue.o)
                0x0000e518                xQueueGenericReset
                0x0000e638                xQueueGenericCreate
                0x0000e704                xQueueCreateMutex
                0x0000e7dc                xQueueGiveMutexRecursive
                0x0000e864                xQueueTakeMutexRecursive
                0x0000e904                xQueueCreateCountingSemaphore
                0x0000e95c                xQueueGenericSend
                0x0000eb0c                xQueueGenericSendFromISR
                0x0000ebd8                xQueueGenericReceive
                0x0000ee24                xQueueReceiveFromISR
                0x0000eef4                uxQueueMessagesWaiting
                0x0000ef44                uxQueueMessagesWaitingFromISR
                0x0000ef74                vQueueDelete
                0x0000efb4                ucQueueGetQueueNumber
                0x0000efdc                vQueueSetQueueNumber
                0x0000f010                ucQueueGetQueueType
                0x0000f3a0                xQueueIsQueueEmptyFromISR
                0x0000f438                xQueueIsQueueFullFromISR
                0x0000f478                vQueueWaitForMessageRestricted
 .text          0x0000f514     0x1c54 ../FreeLwIP_bsp/\libfreertos_bsp.a(tasks.o)
                0x0000f514                xTaskGenericCreate
                0x0000f704                vTaskDelete
                0x0000f7dc                vTaskDelayUntil
                0x0000f8c0                vTaskDelay
                0x0000f934                uxTaskPriorityGet
                0x0000f99c                vTaskPrioritySet
                0x0000fb30                vTaskSuspend
                0x0000fc14                xTaskIsTaskSuspended
                0x0000fc80                vTaskResume
                0x0000fd5c                xTaskResumeFromISR
                0x0000fe40                vTaskStartScheduler
                0x0000fec8                vTaskEndScheduler
                0x0000fef8                vTaskSuspendAll
                0x0000ff20                xTaskResumeAll
                0x0001006c                xTaskGetTickCount
                0x000100b4                xTaskGetTickCountFromISR
                0x000100e0                uxTaskGetNumberOfTasks
                0x00010100                vTaskList
                0x0001024c                vTaskIncrementTick
                0x000103c0                vTaskSwitchContext
                0x000104f4                vTaskPlaceOnEventList
                0x00010584                vTaskPlaceOnEventListRestricted
                0x000105ec                xTaskRemoveFromEventList
                0x000106d8                vTaskSetTimeOutState
                0x00010710                xTaskCheckForTimeOut
                0x000107f4                vTaskMissedYield
                0x00010818                uxTaskGetTaskNumber
                0x00010860                vTaskSetTaskNumber
                0x00010df4                uxTaskGetStackHighWaterMark
                0x00010e94                xTaskGetCurrentTaskHandle
                0x00010ebc                xTaskGetSchedulerState
                0x00010f08                vTaskPriorityInherit
                0x00011004                vTaskPriorityDisinherit
                0x000110d0                vTaskEnterCritical
                0x00011110                vTaskExitCritical
 .text          0x00011168      0x8dc ../FreeLwIP_bsp/\libfreertos_bsp.a(timers.o)
                0x00011168                xTimerCreateTimerTask
                0x000111d4                xTimerCreate
                0x00011280                xTimerGenericCommand
                0x000119b4                xTimerIsTimerActive
                0x00011a14                pvTimerGetTimerID
 .text          0x00011a44       0x2c ../FreeLwIP_bsp/\libfreertos_bsp.a(alt_dev.o)
 .text          0x00011a70       0x5c ../FreeLwIP_bsp/\libfreertos_bsp.a(alt_do_ctors.o)
                0x00011a70                _do_ctors
 .text          0x00011acc       0x5c ../FreeLwIP_bsp/\libfreertos_bsp.a(alt_do_dtors.o)
                0x00011acc                _do_dtors
 .text          0x00011b28       0xfc ../FreeLwIP_bsp/\libfreertos_bsp.a(alt_fstat.o)
                0x00011b78                fstat
 .text          0x00011c24      0x138 ../FreeLwIP_bsp/\libfreertos_bsp.a(alt_io_redirect.o)
                0x00011ce4                alt_io_redirect
 .text          0x00011d5c       0xf0 ../FreeLwIP_bsp/\libfreertos_bsp.a(alt_isatty.o)
                0x00011dac                isatty
 .text          0x00011e4c       0xec ../FreeLwIP_bsp/\libfreertos_bsp.a(alt_load.o)
                0x00011eb8                alt_load
 .text          0x00011f38      0x120 ../FreeLwIP_bsp/\libfreertos_bsp.a(alt_lseek.o)
                0x00011f88                lseek
 .text          0x00012058      0x270 ../FreeLwIP_bsp/\libfreertos_bsp.a(alt_open.o)
                0x00012174                open
 .text          0x000122c8       0x60 ../FreeLwIP_bsp/\libfreertos_bsp.a(alt_release_fd.o)
                0x000122c8                alt_release_fd
 .text          0x00012328      0x108 ../FreeLwIP_bsp/\libfreertos_bsp.a(alt_sbrk.o)
                0x00012328                sbrk
 .text          0x00012430      0x108 ../FreeLwIP_bsp/\libfreertos_bsp.a(alt_usleep.o)
                0x00012430                usleep
 .text          0x00012538     0x10fc ../FreeLwIP_bsp/\libfreertos_bsp.a(api_lib.o)
                0x00012538                netconn_new_with_proto_and_callback
                0x000125f4                netconn_delete
                0x00012654                netconn_getaddr
                0x00012790                netconn_bind
                0x00012868                netconn_connect
                0x00012940                netconn_disconnect
                0x000129fc                netconn_listen_with_backlog
                0x00012ac8                netconn_accept
                0x00012f44                netconn_recv_tcp_pbuf
                0x00012fb8                netconn_recv
                0x00013160                netconn_recved
                0x000131dc                netconn_sendto
                0x0001325c                netconn_send
                0x00013324                netconn_write_partly
                0x00013594                netconn_close
                0x000135c8                netconn_shutdown
 .text          0x00013634     0x2470 ../FreeLwIP_bsp/\libfreertos_bsp.a(api_msg.o)
                0x0001414c                do_newconn
                0x000141a8                netconn_alloc
                0x000142d4                netconn_free
                0x00014720                do_delconn
                0x000148f8                do_bind
                0x00014ba8                do_connect
                0x00014de0                do_disconnect
                0x00014e60                do_listen
                0x00015058                do_send
                0x00015284                do_recv
                0x00015684                do_write
                0x00015798                do_getaddr
                0x00015974                do_close
 .text          0x00015aa4      0x5d4 ../FreeLwIP_bsp/\libfreertos_bsp.a(netbuf.o)
                0x00015aa4                netbuf_new
                0x00015b18                netbuf_delete
                0x00015b88                netbuf_alloc
                0x00015c4c                netbuf_free
                0x00015cd4                netbuf_ref
                0x00015dc8                netbuf_chain
                0x00015e84                netbuf_data
                0x00015f78                netbuf_next
                0x00016014                netbuf_first
 .text          0x00016078     0x3264 ../FreeLwIP_bsp/\libfreertos_bsp.a(sockets.o)
                0x00016078                lwip_socket_init
                0x000163c0                lwip_accept
                0x000166c0                lwip_bind
                0x00016810                lwip_close
                0x0001689c                lwip_connect
                0x00016a14                lwip_listen
                0x00016b24                lwip_recvfrom
                0x00016ff8                lwip_read
                0x00017044                lwip_recv
                0x00017094                lwip_send
                0x000171d4                lwip_sendto
                0x000173c8                lwip_socket
                0x00017510                lwip_write
                0x000178e0                lwip_select
                0x00018164                lwip_shutdown
                0x000183dc                lwip_getpeername
                0x00018420                lwip_getsockname
                0x00018464                lwip_getsockopt
                0x00018b20                lwip_setsockopt
                0x000190ec                lwip_ioctl
                0x000191d0                lwip_fcntl
 .text          0x000192dc      0x6e0 ../FreeLwIP_bsp/\libfreertos_bsp.a(tcpip.o)
                0x0001949c                tcpip_input
                0x0001954c                tcpip_callback_with_block
                0x0001961c                tcpip_timeout
                0x000196b8                tcpip_untimeout
                0x00019744                tcpip_apimsg
                0x000197b4                tcpip_callbackmsg_new
                0x00019824                tcpip_callbackmsg_delete
                0x00019858                tcpip_trycallback
                0x0001989c                tcpip_init
                0x00019944                pbuf_free_callback
                0x00019980                mem_free_callback
 .text          0x000199bc       0x48 ../FreeLwIP_bsp/\libfreertos_bsp.a(alt_lwip_close.o)
                0x000199bc                close
 .text          0x00019a04       0x6c ../FreeLwIP_bsp/\libfreertos_bsp.a(alt_lwip_read.o)
                0x00019a04                read
 .text          0x00019a70       0x64 ../FreeLwIP_bsp/\libfreertos_bsp.a(alt_lwip_write.o)
                0x00019a70                write
 .text          0x00019ad4      0x9b0 ../FreeLwIP_bsp/\libfreertos_bsp.a(lwip_main.o)
                0x00019ad4                lwip_initialize
                0x00019be4                lwip_wait_for_an
                0x00019ec4                get_mac_count
                0x00019ee4                get_mac_base
                0x00019f2c                get_netif
                0x00019f70                lwip_set_status_callback
                0x00019fa4                lwip_set_link_callback
                0x00019fd8                lwip_is_interface_up
                0x0001a19c                print_ipad
                0x0001a290                lwip_initialize_phys
 .text          0x0001a484      0xcd0 ../FreeLwIP_bsp/\libfreertos_bsp.a(lwip_tse_mac.o)
                0x0001a484                tse_mac_init
                0x0001acd4                tse_sgdma_read_init
                0x0001ad7c                tse_sgdma_rx_isr
                0x0001ae10                tse_mac_raw_send
                0x0001af7c                tse_mac_rcv
 .text          0x0001b154      0x850 ../FreeLwIP_bsp/\libfreertos_bsp.a(sys_arch.o)
                0x0001b154                sys_init
                0x0001b174                sys_now
                0x0001b1bc                sys_sem_new
                0x0001b29c                sys_sem_free
                0x0001b2f0                sys_sem_signal
                0x0001b334                sys_arch_sem_wait
                0x0001b420                sys_mutex_new
                0x0001b4dc                sys_mutex_lock
                0x0001b52c                sys_mutex_unlock
                0x0001b570                sys_mutex_free
                0x0001b5c4                sys_mbox_new
                0x0001b690                sys_mbox_free
                0x0001b6fc                sys_mbox_post
                0x0001b748                sys_mbox_trypost
                0x0001b7a8                sys_arch_mbox_fetch
                0x0001b8b0                sys_arch_mbox_tryfetch
                0x0001b91c                sys_thread_new
 .text          0x0001b9a4     0x32c8 ../FreeLwIP_bsp/\libfreertos_bsp.a(dhcp.o)
                0x0001be34                dhcp_coarse_tmr
                0x0001bee8                dhcp_fine_tmr
                0x0001c43c                dhcp_set_struct
                0x0001c484                dhcp_cleanup
                0x0001c4d0                dhcp_start
                0x0001c6c0                dhcp_inform
                0x0001c86c                dhcp_network_changed
                0x0001c914                dhcp_arp_reply
                0x0001cf34                dhcp_renew
                0x0001d390                dhcp_release
                0x0001d538                dhcp_stop
 .text          0x0001ec6c       0x48 ../FreeLwIP_bsp/\libfreertos_bsp.a(init.o)
                0x0001ec6c                lwip_init
 .text          0x0001ecb4      0xd8c ../FreeLwIP_bsp/\libfreertos_bsp.a(ip.o)
                0x0001ecb4                ip_route
                0x0001edc4                ip_input
                0x0001f308                ip_output_if
                0x0001f8bc                ip_output
                0x0001f970                ip_output_hinted
 .text          0x0001fa40      0x7c0 ../FreeLwIP_bsp/\libfreertos_bsp.a(ip_addr.o)
                0x0001fa40                ip4_addr_isbroadcast
                0x0001fb0c                ip4_addr_netmask_valid
                0x0001fbd0                ipaddr_addr
                0x0001fc14                ipaddr_aton
                0x00020014                ipaddr_ntoa
                0x00020050                ipaddr_ntoa_r
 .text          0x00020200     0x167c ../FreeLwIP_bsp/\libfreertos_bsp.a(ip_frag.o)
                0x00020200                ip_reass_tmr
                0x00020d7c                ip_reass
                0x00021420                ip_frag
 .text          0x0002187c      0x994 ../FreeLwIP_bsp/\libfreertos_bsp.a(mem.o)
                0x000219a0                mem_init
                0x00021a54                mem_free
                0x00021b60                mem_trim
                0x00021e68                mem_malloc
                0x00022198                mem_calloc
 .text          0x00022210      0x460 ../FreeLwIP_bsp/\libfreertos_bsp.a(memp.o)
                0x00022210                memp_init
                0x000223cc                memp_malloc
                0x00022590                memp_free
 .text          0x00022670      0x7e0 ../FreeLwIP_bsp/\libfreertos_bsp.a(netif.o)
                0x00022670                netif_init
                0x0002268c                netif_add
                0x0002277c                netif_set_addr
                0x000227d4                netif_remove
                0x000228ac                netif_find
                0x0002298c                netif_set_ipaddr
                0x00022ac0                netif_set_gw
                0x00022b04                netif_set_netmask
                0x00022b48                netif_set_default
                0x00022b70                netif_set_up
                0x00022c1c                netif_set_down
                0x00022cac                netif_set_status_callback
                0x00022ce4                netif_set_link_up
                0x00022da4                netif_set_link_down
                0x00022e18                netif_set_link_callback
 .text          0x00022e50     0x16cc ../FreeLwIP_bsp/\libfreertos_bsp.a(pbuf.o)
                0x00022fa0                pbuf_alloc
                0x00023310                pbuf_alloced_custom
                0x00023450                pbuf_realloc
                0x000235b0                pbuf_header
                0x00023760                pbuf_free
                0x000238a4                pbuf_clen
                0x000238f0                pbuf_ref
                0x00023950                pbuf_cat
                0x00023a20                pbuf_chain
                0x00023a60                pbuf_dechain
                0x00023afc                pbuf_copy
                0x00023d58                pbuf_copy_partial
                0x00023ef4                pbuf_take
                0x00024048                pbuf_coalesce
                0x000240d4                pbuf_fill_chksum
                0x000241e0                pbuf_get_at
                0x00024290                pbuf_memcmp
                0x000243b0                pbuf_memfind
                0x00024478                pbuf_strstr
 .text          0x0002451c      0x4f0 ../FreeLwIP_bsp/\libfreertos_bsp.a(raw.o)
                0x0002451c                raw_input
                0x00024654                raw_bind
                0x0002469c                raw_connect
                0x000246e4                raw_recv
                0x00024724                raw_sendto
                0x000248ac                raw_send
                0x000248f0                raw_remove
                0x0002498c                raw_new
 .text          0x00024a0c       0x1c ../FreeLwIP_bsp/\libfreertos_bsp.a(stats.o)
                0x00024a0c                stats_init
 .text          0x00024a28     0x2470 ../FreeLwIP_bsp/\libfreertos_bsp.a(tcp.o)
                0x00024a28                tcp_init
                0x00024a44                tcp_tmr
                0x00024de4                tcp_close
                0x00024e40                tcp_shutdown
                0x00024f30                tcp_abandon
                0x0002508c                tcp_abort
                0x000250c0                tcp_bind
                0x000252c0                tcp_listen_with_backlog
                0x00025528                tcp_update_rcv_ann_wnd
                0x00025618                tcp_recved
                0x000257a4                tcp_connect
                0x00025b34                tcp_slowtmr
                0x00026260                tcp_fasttmr
                0x00026358                tcp_process_refused_data
                0x000264a8                tcp_segs_free
                0x000264f8                tcp_seg_free
                0x00026550                tcp_setprio
                0x00026584                tcp_seg_copy
                0x000265ec                tcp_recv_null
                0x000267cc                tcp_alloc
                0x000269cc                tcp_new
                0x000269f8                tcp_arg
                0x00026a28                tcp_recv
                0x00026a58                tcp_sent
                0x00026a88                tcp_err
                0x00026ab8                tcp_accept
                0x00026ae8                tcp_poll
                0x00026b2c                tcp_pcb_purge
                0x00026c98                tcp_pcb_remove
                0x00026da0                tcp_next_iss
                0x00026dd0                tcp_eff_send_mss
                0x00026e5c                tcp_debug_state_str
 .text          0x00026e98     0x4320 ../FreeLwIP_bsp/\libfreertos_bsp.a(tcp_in.o)
                0x00026e98                tcp_input
 .text          0x0002b1b8     0x349c ../FreeLwIP_bsp/\libfreertos_bsp.a(tcp_out.o)
                0x0002b520                tcp_send_fin
                0x0002bc94                tcp_write
                0x0002c55c                tcp_enqueue_flags
                0x0002c848                tcp_send_empty_ack
                0x0002c9d0                tcp_output
                0x0002da30                tcp_rst
                0x0002dd8c                tcp_rexmit_rto
                0x0002de40                tcp_rexmit
                0x0002e0e8                tcp_rexmit_fast
                0x0002e20c                tcp_keepalive
                0x0002e38c                tcp_zero_window_probe
 .text          0x0002e654      0x5c8 ../FreeLwIP_bsp/\libfreertos_bsp.a(timers.o)
                0x0002e6bc                tcp_timer_needed
                0x0002e824                sys_timeouts_init
                0x0002e898                sys_timeout
                0x0002ea14                sys_untimeout
                0x0002eb04                sys_timeouts_mbox_fetch
 .text          0x0002ec1c     0x10b4 ../FreeLwIP_bsp/\libfreertos_bsp.a(udp.o)
                0x0002ec1c                udp_init
                0x0002ece4                udp_input
                0x0002f2a0                udp_send
                0x0002f2f4                udp_send_chksum
                0x0002f368                udp_sendto
                0x0002f3c0                udp_sendto_chksum
                0x0002f478                udp_sendto_if
                0x0002f4d8                udp_sendto_if_chksum
                0x0002f8ec                udp_bind
                0x0002fa48                udp_connect
                0x0002fb50                udp_disconnect
                0x0002fb9c                udp_recv
                0x0002fbdc                udp_remove
                0x0002fc78                udp_new
 .text          0x0002fcd0     0x1a88 ../FreeLwIP_bsp/\libfreertos_bsp.a(etharp.o)
                0x0002fdcc                etharp_tmr
                0x000304e8                etharp_cleanup_netif
                0x00030588                etharp_find_addr
                0x00030bc0                etharp_output
                0x00030eac                etharp_query
                0x0003149c                etharp_request
                0x00031510                ethernet_input
 .text          0x00031758      0x188 ../FreeLwIP_bsp/\libfreertos_bsp.a(alt_sys_init.o)
                0x00031790                alt_irq_init
                0x000317d0                alt_sys_init
 .text          0x000318e0      0x894 ../FreeLwIP_bsp/\libfreertos_bsp.a(altera_avalon_cfi_flash.o)
                0x00031918                alt_flash_cfi_init
                0x000319a8                alt_flash_cfi_write
                0x00031c54                alt_flash_cfi_get_info
                0x00031ce0                alt_flash_cfi_read
                0x00031d44                alt_write_value_to_flash
                0x00031e9c                alt_flash_program_block
 .text          0x00032174     0x1430 ../FreeLwIP_bsp/\libfreertos_bsp.a(altera_avalon_cfi_flash_table.o)
                0x00032174                alt_read_query_entry_8bit
                0x000321b0                alt_read_query_entry_16bit
                0x000321f0                alt_read_query_entry_32bit
                0x00032230                alt_write_flash_command_8bit_device_8bit_mode
                0x00032274                alt_write_flash_command_16bit_device_8bit_mode
                0x000322e8                alt_write_flash_command_32bit_device_8bit_mode
                0x00032334                alt_write_flash_command_16bit_device_16bit_mode
                0x0003237c                alt_write_flash_command_32bit_device_16bit_mode
                0x000323c8                alt_write_flash_command_32bit_device_32bit_mode
                0x00032414                alt_write_native_8bit
                0x0003244c                alt_write_native_16bit
                0x00032484                alt_write_native_32bit
                0x000324b8                alt_set_flash_width_func
                0x0003267c                alt_set_flash_algorithm_func
                0x00032798                alt_read_cfi_table
                0x00032d60                alt_read_cfi_width
                0x000334d0                alt_check_primary_table
 .text          0x000335a4      0x164 ../FreeLwIP_bsp/\libfreertos_bsp.a(altera_avalon_jtag_uart_fd.o)
                0x000335a4                altera_avalon_jtag_uart_read_fd
                0x00033604                altera_avalon_jtag_uart_write_fd
                0x00033664                altera_avalon_jtag_uart_close_fd
                0x000336b4                altera_avalon_jtag_uart_ioctl_fd
 .text          0x00033708      0x450 ../FreeLwIP_bsp/\libfreertos_bsp.a(altera_avalon_jtag_uart_init.o)
                0x00033708                altera_avalon_jtag_uart_init
                0x00033af0                altera_avalon_jtag_uart_close
 .text          0x00033b58       0xf4 ../FreeLwIP_bsp/\libfreertos_bsp.a(altera_avalon_jtag_uart_ioctl.o)
                0x00033b58                altera_avalon_jtag_uart_ioctl
 .text          0x00033c4c      0x28c ../FreeLwIP_bsp/\libfreertos_bsp.a(altera_avalon_jtag_uart_read.o)
                0x00033c4c                altera_avalon_jtag_uart_read
 .text          0x00033ed8      0x298 ../FreeLwIP_bsp/\libfreertos_bsp.a(altera_avalon_jtag_uart_write.o)
                0x00033ed8                altera_avalon_jtag_uart_write
 .text          0x00034170      0xf14 ../FreeLwIP_bsp/\libfreertos_bsp.a(altera_avalon_lcd_16207.o)
                0x00034934                altera_avalon_lcd_16207_write
                0x00034f0c                altera_avalon_lcd_16207_init
 .text          0x00035084       0x60 ../FreeLwIP_bsp/\libfreertos_bsp.a(altera_avalon_lcd_16207_fd.o)
                0x00035084                altera_avalon_lcd_16207_write_fd
 .text          0x000350e4      0xd2c ../FreeLwIP_bsp/\libfreertos_bsp.a(altera_avalon_sgdma.o)
                0x00035134                alt_avalon_sgdma_do_async_transfer
                0x00035258                alt_avalon_sgdma_do_sync_transfer
                0x00035368                alt_avalon_sgdma_construct_mem_to_mem_desc
                0x000353d8                alt_avalon_sgdma_construct_mem_to_mem_desc_burst
                0x00035458                alt_avalon_sgdma_construct_stream_to_mem_desc
                0x000354b4                alt_avalon_sgdma_construct_stream_to_mem_desc_burst
                0x00035528                alt_avalon_sgdma_construct_mem_to_stream_desc
                0x000355a4                alt_avalon_sgdma_construct_mem_to_stream_desc_burst
                0x0003562c                alt_avalon_sgdma_register_callback
                0x0003567c                alt_avalon_sgdma_start
                0x000356d0                alt_avalon_sgdma_stop
                0x00035728                alt_avalon_sgdma_check_descriptor_status
                0x0003578c                alt_avalon_sgdma_open
                0x000357dc                alt_avalon_sgdma_construct_descriptor
                0x00035864                alt_avalon_sgdma_enable_desc_poll
                0x000358e4                alt_avalon_sgdma_disable_desc_poll
                0x00035944                alt_avalon_sgdma_construct_descriptor_burst
                0x00035d6c                alt_avalon_sgdma_init
 .text          0x00035e10      0x128 ../FreeLwIP_bsp/\libfreertos_bsp.a(altera_avalon_timer_sc.o)
                0x00035eb0                alt_avalon_timer_sc_init
 .text          0x00035f38     0x4f90 ../FreeLwIP_bsp/\libfreertos_bsp.a(altera_avalon_tse.o)
                0x00035f38                no_printf
                0x00035f64                tse_mac_initTransInfo2
                0x00035fc4                tse_mac_sTxWrite
                0x000360a4                tse_mac_aRxRead
                0x00036148                tse_mac_SwReset
                0x000361d0                tse_mac_setMIImode
                0x00036224                tse_mac_setGMIImode
                0x00036274                alt_tse_phy_add_profile
                0x00036458                alt_tse_system_add_sys
                0x00036e54                alt_tse_sys_enable_mdio_sharing
                0x00036fb8                alt_tse_mac_get_common_speed
                0x00036ff8                alt_tse_mac_set_common_speed
                0x00037040                alt_tse_get_system_index
                0x000370ac                alt_tse_get_mac_group_index
                0x00037120                alt_tse_get_mac_info_index
                0x000371a0                alt_tse_get_mac_info
                0x00037278                alt_tse_mac_set_speed
                0x00037358                alt_tse_mac_set_duplex
                0x000373e4                getPHYSpeed
                0x00037e4c                alt_tse_phy_rd_mdio_addr
                0x00037e94                alt_tse_phy_wr_mdio_addr
                0x00037eec                alt_tse_phy_wr_mdio_reg
                0x00038018                alt_tse_phy_rd_mdio_reg
                0x000380e4                alt_tse_phy_add_profile_default
                0x0003837c                alt_tse_phy_print_profile
                0x0003858c                alt_tse_mac_group_init
                0x00038c28                alt_tse_mac_get_phy
                0x00039040                alt_tse_mac_associate_phy
                0x00039280                alt_tse_phy_cfg_pcs
                0x000393a8                alt_tse_phy_init
                0x000394c0                alt_tse_phy_restart_an
                0x00039684                alt_tse_phy_check_link
                0x000397e4                alt_tse_phy_get_cap
                0x00039d78                alt_tse_phy_set_adv_1000
                0x00039f34                alt_tse_phy_set_adv_100
                0x0003a17c                alt_tse_phy_set_adv_10
                0x0003a324                alt_tse_phy_get_common_speed
                0x0003a64c                alt_tse_phy_set_common_speed
                0x0003ab00                marvell_phy_cfg
                0x0003ab98                marvell_cfg_gmii
                0x0003ac7c                marvell_cfg_sgmii
                0x0003ad60                marvell_cfg_rgmii
                0x0003ae50                DP83848C_link_status_read
 .text          0x0003aec8        0x0 ../FreeLwIP_bsp/\libfreertos_bsp.a(altera_avalon_tse_system_info.o)
 .text          0x0003aec8      0x110 ../FreeLwIP_bsp/\libfreertos_bsp.a(altera_avalon_uart_fd.o)
                0x0003aec8                altera_avalon_uart_read_fd
                0x0003af28                altera_avalon_uart_write_fd
                0x0003af88                altera_avalon_uart_close_fd
 .text          0x0003afd8      0x450 ../FreeLwIP_bsp/\libfreertos_bsp.a(altera_avalon_uart_init.o)
                0x0003afd8                altera_avalon_uart_init
                0x0003b3d4                altera_avalon_uart_close
 .text          0x0003b428      0x2f4 ../FreeLwIP_bsp/\libfreertos_bsp.a(altera_avalon_uart_read.o)
                0x0003b478                altera_avalon_uart_read
 .text          0x0003b71c      0x298 ../FreeLwIP_bsp/\libfreertos_bsp.a(altera_avalon_uart_write.o)
                0x0003b76c                altera_avalon_uart_write
 .text          0x0003b9b4      0x200 ../FreeLwIP_bsp/\libfreertos_bsp.a(altera_vic_0_vector_tbl.o)
                0x0003b9b4                VIC_0_VECTOR_TABLE
 .text          0x0003bbb4       0x18 ../FreeLwIP_bsp/\libfreertos_bsp.a(altera_vic_funnel_non_preemptive.o)
                0x0003bbb4                alt_shadow_non_preemptive_interrupt
 .text          0x0003bbcc      0x13c ../FreeLwIP_bsp/\libfreertos_bsp.a(altera_vic_irq_init.o)
                0x0003bbcc                alt_vic_irq_init
 .text          0x0003bd08      0x158 ../FreeLwIP_bsp/\libfreertos_bsp.a(altera_vic_isr_register.o)
                0x0003bd08                alt_ic_isr_register
 .text          0x0003be60       0xa4 ../FreeLwIP_bsp/\libfreertos_bsp.a(alt_env_lock.o)
                0x0003be60                __env_lock
                0x0003bec0                __env_unlock
 .text          0x0003bf04      0x288 ../FreeLwIP_bsp/\libfreertos_bsp.a(list.o)
                0x0003bf04                vListInitialise
                0x0003bf68                vListInitialiseItem
                0x0003bf90                vListInsertEnd
                0x0003c028                vListInsert
                0x0003c0fc                vListRemove
 .text          0x0003c18c      0x244 ../FreeLwIP_bsp/\libfreertos_bsp.a(port.o)
                0x0003c1b4                enh_alt_irq_disable_all
                0x0003c200                enh_alt_irq_enable_all
                0x0003c264                pxPortInitialiseStack
                0x0003c354                xPortStartScheduler
                0x0003c380                vPortEndScheduler
                0x0003c39c                vPortSysTickHandler
 .text          0x0003c3d0        0x0 ../FreeLwIP_bsp/\libfreertos_bsp.a(port_asm.o)
 .text          0x0003c3d0      0x16c ../FreeLwIP_bsp/\libfreertos_bsp.a(alt_alarm_start.o)
                0x0003c3d0                alt_alarm_start
 .text          0x0003c53c      0x128 ../FreeLwIP_bsp/\libfreertos_bsp.a(alt_busy_sleep.o)
                0x0003c53c                alt_busy_sleep
 .text          0x0003c664      0x118 ../FreeLwIP_bsp/\libfreertos_bsp.a(alt_close.o)
                0x0003c6b4                alt_close
 .text          0x0003c77c       0x24 ../FreeLwIP_bsp/\libfreertos_bsp.a(alt_dcache_flush.o)
                0x0003c77c                alt_dcache_flush
 .text          0x0003c7a0       0x1c ../FreeLwIP_bsp/\libfreertos_bsp.a(alt_dcache_flush_all.o)
                0x0003c7a0                alt_dcache_flush_all
 .text          0x0003c7bc       0xf0 ../FreeLwIP_bsp/\libfreertos_bsp.a(alt_dev_llist_insert.o)
                0x0003c80c                alt_dev_llist_insert
 .text          0x0003c8ac        0x0 ../FreeLwIP_bsp/\libfreertos_bsp.a(alt_errno.o)
 .text          0x0003c8ac       0x90 ../FreeLwIP_bsp/\libfreertos_bsp.a(alt_find_dev.o)
                0x0003c8ac                alt_find_dev
 .text          0x0003c93c      0x114 ../FreeLwIP_bsp/\libfreertos_bsp.a(alt_find_file.o)
                0x0003c93c                alt_find_file
 .text          0x0003ca50       0xb8 ../FreeLwIP_bsp/\libfreertos_bsp.a(alt_flash_dev.o)
                0x0003ca50                alt_flash_open_dev
                0x0003cab8                alt_flash_close_dev
 .text          0x0003cb08      0x10c ../FreeLwIP_bsp/\libfreertos_bsp.a(alt_get_fd.o)
                0x0003cb08                alt_get_fd
 .text          0x0003cc14      0x1fc ../FreeLwIP_bsp/\libfreertos_bsp.a(alt_gettod.o)
                0x0003cc14                gettimeofday
 .text          0x0003ce10       0x30 ../FreeLwIP_bsp/\libfreertos_bsp.a(alt_icache_flush_all.o)
                0x0003ce10                alt_icache_flush_all
 .text          0x0003ce40       0xa0 ../FreeLwIP_bsp/\libfreertos_bsp.a(alt_instruction_exception_entry.o)
                0x0003ce40                alt_exception_cause_generated_bad_addr
 .text          0x0003cee0      0x140 ../FreeLwIP_bsp/\libfreertos_bsp.a(alt_read.o)
                0x0003cf30                alt_read
 .text          0x0003d020       0x40 ../FreeLwIP_bsp/\libfreertos_bsp.a(alt_remap_uncached.o)
                0x0003d020                alt_remap_uncached
 .text          0x0003d060      0x1c8 ../FreeLwIP_bsp/\libfreertos_bsp.a(alt_tick.o)
                0x0003d060                alt_alarm_stop
                0x0003d124                alt_tick
 .text          0x0003d228       0x58 ../FreeLwIP_bsp/\libfreertos_bsp.a(alt_uncached_malloc.o)
                0x0003d228                alt_uncached_malloc
 .text          0x0003d280      0x13c ../FreeLwIP_bsp/\libfreertos_bsp.a(alt_write.o)
                0x0003d2d0                alt_write
 .text          0x0003d3bc      0x4a8 ../FreeLwIP_bsp/\libfreertos_bsp.a(altera_tse_ethernetif.o)
                0x0003d59c                ethernetif_input
                0x0003d698                ethernetif_init
 .text          0x0003d864      0x800 ../FreeLwIP_bsp/\libfreertos_bsp.a(icmp.o)
                0x0003d864                icmp_input
                0x0003de14                icmp_dest_unreach
                0x0003de58                icmp_time_exceeded
 .text          0x0003e064      0x818 ../FreeLwIP_bsp/\libfreertos_bsp.a(inet_chksum.o)
                0x0003e2ac                inet_chksum_pseudo
                0x0003e4a4                inet_chksum_pseudo_partial
                0x0003e6d4                inet_chksum
                0x0003e718                inet_chksum_pbuf
                0x0003e824                lwip_chksum_copy
 .text          0x0003e87c      0x460 ../FreeLwIP_bsp/\libfreertos_bsp.a(altera_avalon_cfi_flash_amd.o)
                0x0003e87c                alt_program_amd
                0x0003e8e4                alt_erase_block_amd
 .text          0x0003ecdc      0x438 ../FreeLwIP_bsp/\libfreertos_bsp.a(altera_avalon_cfi_flash_intel.o)
                0x0003ecdc                alt_program_intel
                0x0003ed5c                alt_erase_block_intel
 .text          0x0003f114       0x8c ../FreeLwIP_bsp/\libfreertos_bsp.a(alt_icache_flush.o)
                0x0003f114                alt_icache_flush
 .text          0x0003f1a0       0x14 c:/altera/13.1/nios2eds/bin/gnu/h-i686-mingw32/bin/../lib/gcc/nios2-elf/4.7.3/../../../../../H-i686-mingw32/nios2-elf/lib\libc.a(lib_a-atexit.o)
                0x0003f1a0                atexit
 .text          0x0003f1b4        0x0 c:/altera/13.1/nios2eds/bin/gnu/h-i686-mingw32/bin/../lib/gcc/nios2-elf/4.7.3/../../../../../H-i686-mingw32/nios2-elf/lib\libc.a(lib_a-ctype_.o)
 .text          0x0003f1b4       0x10 c:/altera/13.1/nios2eds/bin/gnu/h-i686-mingw32/bin/../lib/gcc/nios2-elf/4.7.3/../../../../../H-i686-mingw32/nios2-elf/lib\libc.a(lib_a-errno.o)
                0x0003f1b4                __errno
 .text          0x0003f1c4       0x38 c:/altera/13.1/nios2eds/bin/gnu/h-i686-mingw32/bin/../lib/gcc/nios2-elf/4.7.3/../../../../../H-i686-mingw32/nios2-elf/lib\libc.a(lib_a-exit.o)
                0x0003f1c4                exit
 .text          0x0003f1fc       0x28 c:/altera/13.1/nios2eds/bin/gnu/h-i686-mingw32/bin/../lib/gcc/nios2-elf/4.7.3/../../../../../H-i686-mingw32/nios2-elf/lib\libc.a(lib_a-malloc.o)
                0x0003f1fc                malloc
                0x0003f210                free
 .text          0x0003f224       0x7c c:/altera/13.1/nios2eds/bin/gnu/h-i686-mingw32/bin/../lib/gcc/nios2-elf/4.7.3/../../../../../H-i686-mingw32/nios2-elf/lib\libc.a(lib_a-memcmp.o)
                0x0003f224                memcmp
 .text          0x0003f2a0      0x150 c:/altera/13.1/nios2eds/bin/gnu/h-i686-mingw32/bin/../lib/gcc/nios2-elf/4.7.3/../../../../../H-i686-mingw32/nios2-elf/lib\libc.a(lib_a-snprintf.o)
                0x0003f2a0                _snprintf_r
                0x0003f344                snprintf
 .text          0x0003f3f0       0xb8 c:/altera/13.1/nios2eds/bin/gnu/h-i686-mingw32/bin/../lib/gcc/nios2-elf/4.7.3/../../../../../H-i686-mingw32/nios2-elf/lib\libc.a(lib_a-strncpy.o)
                0x0003f3f0                strncpy
 .text          0x0003f4a8      0x130 c:/altera/13.1/nios2eds/bin/gnu/h-i686-mingw32/bin/../lib/gcc/nios2-elf/4.7.3/../../../../../H-i686-mingw32/nios2-elf/lib\libc.a(lib_a-__atexit.o)
                0x0003f4a8                __register_exitproc
 .text          0x0003f5d8      0x1a0 c:/altera/13.1/nios2eds/bin/gnu/h-i686-mingw32/bin/../lib/gcc/nios2-elf/4.7.3/../../../../../H-i686-mingw32/nios2-elf/lib\libc.a(lib_a-__call_atexit.o)
                0x0003f5d8                __call_exitprocs
 .text          0x0003f778       0x38 ../FreeLwIP_bsp/\libfreertos_bsp.a(alt_exit.o)
                0x0003f778                _exit
 *(.gnu.warning.*)
 *(.fini)
                0x0003f7b0                PROVIDE (__etext, ABSOLUTE (.))
                0x0003f7b0                PROVIDE (_etext, ABSOLUTE (.))
                0x0003f7b0                PROVIDE (etext, ABSOLUTE (.))
 *(.eh_frame_hdr)
                0x0003f7b0                . = ALIGN (0x4)
                0x0003f7b0                PROVIDE (__preinit_array_start, ABSOLUTE (.))
 *(.preinit_array)
                0x0003f7b0                PROVIDE (__preinit_array_end, ABSOLUTE (.))
                0x0003f7b0                PROVIDE (__init_array_start, ABSOLUTE (.))
 *(.init_array)
                0x0003f7b0                PROVIDE (__init_array_end, ABSOLUTE (.))
                0x0003f7b0                PROVIDE (__fini_array_start, ABSOLUTE (.))
 *(.fini_array)
                0x0003f7b0                PROVIDE (__fini_array_end, ABSOLUTE (.))
 *(.eh_frame)
 *(.gcc_except_table .gcc_except_table.*)
 *(.dynamic)
                0x0003f7b0                PROVIDE (__CTOR_LIST__, ABSOLUTE (.))
 *(.ctors)
 *(SORT(.ctors.*))
                0x0003f7b0                PROVIDE (__CTOR_END__, ABSOLUTE (.))
                0x0003f7b0                PROVIDE (__DTOR_LIST__, ABSOLUTE (.))
 *(.dtors)
 *(SORT(.dtors.*))
                0x0003f7b0                PROVIDE (__DTOR_END__, ABSOLUTE (.))
 *(.jcr)
                0x0003f7b0                . = ALIGN (0x4)

.rodata         0x0003f7b0     0x3d80
                0x0003f7b0                PROVIDE (__ram_rodata_start, ABSOLUTE (.))
                0x0003f7b0                . = ALIGN (0x4)
 *(.rodata .rodata.* .gnu.linkonce.r.*)
 .rodata        0x0003f7b0      0x154 obj/default/BasicWEB.o
 .rodata        0x0003f904       0x30 obj/default/BlockQ.o
 .rodata        0x0003f934       0x20 obj/default/GenQTest.o
 .rodata        0x0003f954       0x10 obj/default/PollQ.o
 .rodata        0x0003f964       0x20 obj/default/QPeek.o
 .rodata        0x0003f984       0x10 obj/default/blocktim.o
 .rodata        0x0003f994       0x10 obj/default/countsem.o
 .rodata        0x0003f9a4       0x18 obj/default/death.o
 .rodata        0x0003f9bc       0x28 obj/default/dynamic.o
 .rodata        0x0003f9e4       0xc8 obj/default/echo_server.o
 .rodata        0x0003faac      0x280 obj/default/ethernet.o
 .rodata        0x0003fd2c        0x8 obj/default/integer.o
 .rodata        0x0003fd34      0x188 obj/default/main.o
 .rodata        0x0003febc       0x18 obj/default/recmutex.o
 .rodata        0x0003fed4       0x20 obj/default/semtest.o
 .rodata.str1.4
                0x0003fef4        0x3 c:/altera/13.1/nios2eds/bin/gnu/h-i686-mingw32/bin/../lib/gcc/nios2-elf/4.7.3/../../../../../H-i686-mingw32/nios2-elf/lib\libc.a(lib_a-perror.o)
                                  0x4 (size before relaxing)
 *fill*         0x0003fef7        0x1 
 .rodata.str1.4
                0x0003fef8        0x2 c:/altera/13.1/nios2eds/bin/gnu/h-i686-mingw32/bin/../lib/gcc/nios2-elf/4.7.3/../../../../../H-i686-mingw32/nios2-elf/lib\libc.a(lib_a-puts.o)
                                  0x4 (size before relaxing)
 *fill*         0x0003fefa        0x2 
 .rodata.str1.4
                0x0003fefc      0x7a1 c:/altera/13.1/nios2eds/bin/gnu/h-i686-mingw32/bin/../lib/gcc/nios2-elf/4.7.3/../../../../../H-i686-mingw32/nios2-elf/lib\libc.a(lib_a-strerror.o)
                                0x7a8 (size before relaxing)
 *fill*         0x0004069d        0x3 
 .rodata.str1.4
                0x000406a0       0x42 c:/altera/13.1/nios2eds/bin/gnu/h-i686-mingw32/bin/../lib/gcc/nios2-elf/4.7.3/../../../../../H-i686-mingw32/nios2-elf/lib\libc.a(lib_a-vfprintf.o)
                                 0x44 (size before relaxing)
 .rodata        0x000406e2       0x20 c:/altera/13.1/nios2eds/bin/gnu/h-i686-mingw32/bin/../lib/gcc/nios2-elf/4.7.3/../../../../../H-i686-mingw32/nios2-elf/lib\libc.a(lib_a-vfprintf.o)
 *fill*         0x00040702        0x2 
 .rodata.str1.4
                0x00040704       0x10 c:/altera/13.1/nios2eds/bin/gnu/h-i686-mingw32/bin/../lib/gcc/nios2-elf/4.7.3/../../../../../H-i686-mingw32/nios2-elf/lib\libc.a(lib_a-dtoa.o)
                                 0x14 (size before relaxing)
 .rodata.str1.4
                0x00040714        0x2 c:/altera/13.1/nios2eds/bin/gnu/h-i686-mingw32/bin/../lib/gcc/nios2-elf/4.7.3/../../../../../H-i686-mingw32/nios2-elf/lib\libc.a(lib_a-impure.o)
                                  0x4 (size before relaxing)
 *fill*         0x00040716        0x2 
 .rodata.str1.4
                0x00040718       0x10 c:/altera/13.1/nios2eds/bin/gnu/h-i686-mingw32/bin/../lib/gcc/nios2-elf/4.7.3/../../../../../H-i686-mingw32/nios2-elf/lib\libc.a(lib_a-locale.o)
                                 0x18 (size before relaxing)
 .rodata        0x00040728       0x30 c:/altera/13.1/nios2eds/bin/gnu/h-i686-mingw32/bin/../lib/gcc/nios2-elf/4.7.3/../../../../../H-i686-mingw32/nios2-elf/lib\libc.a(lib_a-locale.o)
 .rodata        0x00040758      0x124 c:/altera/13.1/nios2eds/bin/gnu/h-i686-mingw32/bin/../lib/gcc/nios2-elf/4.7.3/../../../../../H-i686-mingw32/nios2-elf/lib\libc.a(lib_a-mprec.o)
                0x00040758                __mprec_tinytens
                0x00040780                __mprec_bigtens
                0x000407a8                __mprec_tens
 .rodata        0x0004087c       0x14 c:/altera/13.1/nios2eds/bin/gnu/h-i686-mingw32/bin/../lib/gcc/nios2-elf/4.7.3\libgcc.a(_thenan_df.o)
                0x0004087c                __thenan_df
 .rodata        0x00040890      0x100 c:/altera/13.1/nios2eds/bin/gnu/h-i686-mingw32/bin/../lib/gcc/nios2-elf/4.7.3\libgcc.a(_clz.o)
                0x00040890                __clz_tab
 .rodata        0x00040990       0x10 ../FreeLwIP_bsp/\libfreertos_bsp.a(alt_main.o)
 .rodata        0x000409a0       0x30 ../FreeLwIP_bsp/\libfreertos_bsp.a(tasks.o)
 .rodata        0x000409d0        0x8 ../FreeLwIP_bsp/\libfreertos_bsp.a(timers.o)
 .rodata        0x000409d8        0xc ../FreeLwIP_bsp/\libfreertos_bsp.a(alt_dev.o)
 .rodata        0x000409e4      0x264 ../FreeLwIP_bsp/\libfreertos_bsp.a(api_lib.o)
 .rodata        0x00040c48       0x60 ../FreeLwIP_bsp/\libfreertos_bsp.a(api_msg.o)
 .rodata        0x00040ca8      0x128 ../FreeLwIP_bsp/\libfreertos_bsp.a(netbuf.o)
 .rodata        0x00040dd0       0xe4 ../FreeLwIP_bsp/\libfreertos_bsp.a(sockets.o)
 .rodata        0x00040eb4       0x10 ../FreeLwIP_bsp/\libfreertos_bsp.a(tcpip.o)
 .rodata        0x00040ec4      0x13c ../FreeLwIP_bsp/\libfreertos_bsp.a(lwip_main.o)
 .rodata        0x00041000      0x190 ../FreeLwIP_bsp/\libfreertos_bsp.a(dhcp.o)
 .rodata        0x00041190       0xa4 ../FreeLwIP_bsp/\libfreertos_bsp.a(memp.o)
 .rodata        0x00041234      0x184 ../FreeLwIP_bsp/\libfreertos_bsp.a(pbuf.o)
 .rodata        0x000413b8      0x184 ../FreeLwIP_bsp/\libfreertos_bsp.a(tcp.o)
                0x00041430                tcp_state_str
                0x0004145c                tcp_backoff
                0x0004146c                tcp_pcb_lists
 .rodata        0x0004153c       0x7c ../FreeLwIP_bsp/\libfreertos_bsp.a(tcp_out.o)
 .rodata        0x000415b8       0x58 ../FreeLwIP_bsp/\libfreertos_bsp.a(etharp.o)
 .rodata        0x00041610       0x70 ../FreeLwIP_bsp/\libfreertos_bsp.a(alt_sys_init.o)
 .rodata        0x00041680     0x1be4 ../FreeLwIP_bsp/\libfreertos_bsp.a(altera_avalon_tse.o)
 .rodata        0x00043264       0x20 ../FreeLwIP_bsp/\libfreertos_bsp.a(altera_avalon_tse_system_info.o)
 .rodata        0x00043284       0x20 ../FreeLwIP_bsp/\libfreertos_bsp.a(altera_vic_irq_init.o)
 .rodata        0x000432a4        0x8 ../FreeLwIP_bsp/\libfreertos_bsp.a(altera_tse_ethernetif.o)
 .rodata        0x000432ac      0x281 c:/altera/13.1/nios2eds/bin/gnu/h-i686-mingw32/bin/../lib/gcc/nios2-elf/4.7.3/../../../../../H-i686-mingw32/nios2-elf/lib\libc.a(lib_a-ctype_.o)
                0x000432ac                _ctype_
 *(.rodata1)
                0x00043530                . = ALIGN (0x4)
 *fill*         0x0004352d        0x3 
                0x00043530                PROVIDE (__ram_rodata_end, ABSOLUTE (.))
                0x0003f7b0                PROVIDE (__flash_rodata_start, LOADADDR (.rodata))

.rwdata         0x00043530     0x224c load address 0x0004577c
                0x00043530                PROVIDE (__ram_rwdata_start, ABSOLUTE (.))
                0x00043530                . = ALIGN (0x4)
 *(.got.plt)
 *(.got)
 *(.data1)
 *(.data .data.* .gnu.linkonce.d.*)
 .data          0x00043530        0x0 ../FreeLwIP_bsp//obj/HAL/src/crt0.o
 .data          0x00043530        0x0 obj/default/BasicWEB.o
 .data          0x00043530        0x0 obj/default/BlockQ.o
 .data          0x00043530        0x0 obj/default/GenQTest.o
 .data          0x00043530        0x0 obj/default/PollQ.o
 .data          0x00043530        0x0 obj/default/QPeek.o
 .data          0x00043530        0x0 obj/default/blocktim.o
 .data          0x00043530        0x0 obj/default/countsem.o
 .data          0x00043530        0x0 obj/default/death.o
 .data          0x00043530        0x0 obj/default/dynamic.o
 .data          0x00043530        0x0 obj/default/echo_server.o
 .data          0x00043530        0x0 obj/default/ethernet.o
 .data          0x00043530        0x0 obj/default/integer.o
 .data          0x00043530        0x0 obj/default/main.o
 .data          0x00043530        0x0 obj/default/recmutex.o
 .data          0x00043530        0x0 obj/default/semtest.o
 .data          0x00043530        0x0 c:/altera/13.1/nios2eds/bin/gnu/h-i686-mingw32/bin/../lib/gcc/nios2-elf/4.7.3/../../../../../H-i686-mingw32/nios2-elf/lib\libc.a(lib_a-memcpy.o)
 .data          0x00043530        0x0 c:/altera/13.1/nios2eds/bin/gnu/h-i686-mingw32/bin/../lib/gcc/nios2-elf/4.7.3/../../../../../H-i686-mingw32/nios2-elf/lib\libc.a(lib_a-memset.o)
 .data          0x00043530        0x0 c:/altera/13.1/nios2eds/bin/gnu/h-i686-mingw32/bin/../lib/gcc/nios2-elf/4.7.3/../../../../../H-i686-mingw32/nios2-elf/lib\libc.a(lib_a-perror.o)
 .data          0x00043530        0x0 c:/altera/13.1/nios2eds/bin/gnu/h-i686-mingw32/bin/../lib/gcc/nios2-elf/4.7.3/../../../../../H-i686-mingw32/nios2-elf/lib\libc.a(lib_a-printf.o)
 .data          0x00043530        0x0 c:/altera/13.1/nios2eds/bin/gnu/h-i686-mingw32/bin/../lib/gcc/nios2-elf/4.7.3/../../../../../H-i686-mingw32/nios2-elf/lib\libc.a(lib_a-puts.o)
 .data          0x00043530        0x0 c:/altera/13.1/nios2eds/bin/gnu/h-i686-mingw32/bin/../lib/gcc/nios2-elf/4.7.3/../../../../../H-i686-mingw32/nios2-elf/lib\libc.a(lib_a-sprintf.o)
 .data          0x00043530        0x0 c:/altera/13.1/nios2eds/bin/gnu/h-i686-mingw32/bin/../lib/gcc/nios2-elf/4.7.3/../../../../../H-i686-mingw32/nios2-elf/lib\libc.a(lib_a-strcat.o)
 .data          0x00043530        0x0 c:/altera/13.1/nios2eds/bin/gnu/h-i686-mingw32/bin/../lib/gcc/nios2-elf/4.7.3/../../../../../H-i686-mingw32/nios2-elf/lib\libc.a(lib_a-strcpy.o)
 .data          0x00043530        0x0 c:/altera/13.1/nios2eds/bin/gnu/h-i686-mingw32/bin/../lib/gcc/nios2-elf/4.7.3/../../../../../H-i686-mingw32/nios2-elf/lib\libc.a(lib_a-strerror.o)
 .data          0x00043530        0x0 c:/altera/13.1/nios2eds/bin/gnu/h-i686-mingw32/bin/../lib/gcc/nios2-elf/4.7.3/../../../../../H-i686-mingw32/nios2-elf/lib\libc.a(lib_a-strlen.o)
 .data          0x00043530        0x0 c:/altera/13.1/nios2eds/bin/gnu/h-i686-mingw32/bin/../lib/gcc/nios2-elf/4.7.3/../../../../../H-i686-mingw32/nios2-elf/lib\libc.a(lib_a-strncmp.o)
 .data          0x00043530        0x0 c:/altera/13.1/nios2eds/bin/gnu/h-i686-mingw32/bin/../lib/gcc/nios2-elf/4.7.3/../../../../../H-i686-mingw32/nios2-elf/lib\libc.a(lib_a-u_strerr.o)
 .data          0x00043530        0x0 c:/altera/13.1/nios2eds/bin/gnu/h-i686-mingw32/bin/../lib/gcc/nios2-elf/4.7.3/../../../../../H-i686-mingw32/nios2-elf/lib\libc.a(lib_a-vfprintf.o)
 .data          0x00043530        0x0 c:/altera/13.1/nios2eds/bin/gnu/h-i686-mingw32/bin/../lib/gcc/nios2-elf/4.7.3/../../../../../H-i686-mingw32/nios2-elf/lib\libc.a(lib_a-wsetup.o)
 .data          0x00043530        0x0 c:/altera/13.1/nios2eds/bin/gnu/h-i686-mingw32/bin/../lib/gcc/nios2-elf/4.7.3/../../../../../H-i686-mingw32/nios2-elf/lib\libc.a(lib_a-dtoa.o)
 .data          0x00043530        0x0 c:/altera/13.1/nios2eds/bin/gnu/h-i686-mingw32/bin/../lib/gcc/nios2-elf/4.7.3/../../../../../H-i686-mingw32/nios2-elf/lib\libc.a(lib_a-fflush.o)
 .data          0x00043530        0x0 c:/altera/13.1/nios2eds/bin/gnu/h-i686-mingw32/bin/../lib/gcc/nios2-elf/4.7.3/../../../../../H-i686-mingw32/nios2-elf/lib\libc.a(lib_a-findfp.o)
 .data          0x00043530        0x0 c:/altera/13.1/nios2eds/bin/gnu/h-i686-mingw32/bin/../lib/gcc/nios2-elf/4.7.3/../../../../../H-i686-mingw32/nios2-elf/lib\libc.a(lib_a-fputc.o)
 .data          0x00043530        0x0 c:/altera/13.1/nios2eds/bin/gnu/h-i686-mingw32/bin/../lib/gcc/nios2-elf/4.7.3/../../../../../H-i686-mingw32/nios2-elf/lib\libc.a(lib_a-fputs.o)
 .data          0x00043530        0x0 c:/altera/13.1/nios2eds/bin/gnu/h-i686-mingw32/bin/../lib/gcc/nios2-elf/4.7.3/../../../../../H-i686-mingw32/nios2-elf/lib\libc.a(lib_a-freer.o)
 .data          0x00043530        0x0 c:/altera/13.1/nios2eds/bin/gnu/h-i686-mingw32/bin/../lib/gcc/nios2-elf/4.7.3/../../../../../H-i686-mingw32/nios2-elf/lib\libc.a(lib_a-fvwrite.o)
 .data          0x00043530        0x0 c:/altera/13.1/nios2eds/bin/gnu/h-i686-mingw32/bin/../lib/gcc/nios2-elf/4.7.3/../../../../../H-i686-mingw32/nios2-elf/lib\libc.a(lib_a-fwalk.o)
 .data          0x00043530      0x400 c:/altera/13.1/nios2eds/bin/gnu/h-i686-mingw32/bin/../lib/gcc/nios2-elf/4.7.3/../../../../../H-i686-mingw32/nios2-elf/lib\libc.a(lib_a-impure.o)
 .data          0x00043930        0xc c:/altera/13.1/nios2eds/bin/gnu/h-i686-mingw32/bin/../lib/gcc/nios2-elf/4.7.3/../../../../../H-i686-mingw32/nios2-elf/lib\libc.a(lib_a-locale.o)
                0x00043930                __lc_ctype
 .data          0x0004393c        0x0 c:/altera/13.1/nios2eds/bin/gnu/h-i686-mingw32/bin/../lib/gcc/nios2-elf/4.7.3/../../../../../H-i686-mingw32/nios2-elf/lib\libc.a(lib_a-makebuf.o)
 .data          0x0004393c      0x408 c:/altera/13.1/nios2eds/bin/gnu/h-i686-mingw32/bin/../lib/gcc/nios2-elf/4.7.3/../../../../../H-i686-mingw32/nios2-elf/lib\libc.a(lib_a-mallocr.o)
                0x0004393c                __malloc_av_
 .data          0x00043d44        0x0 c:/altera/13.1/nios2eds/bin/gnu/h-i686-mingw32/bin/../lib/gcc/nios2-elf/4.7.3/../../../../../H-i686-mingw32/nios2-elf/lib\libc.a(lib_a-memchr.o)
 .data          0x00043d44        0x0 c:/altera/13.1/nios2eds/bin/gnu/h-i686-mingw32/bin/../lib/gcc/nios2-elf/4.7.3/../../../../../H-i686-mingw32/nios2-elf/lib\libc.a(lib_a-memmove.o)
 .data          0x00043d44        0x0 c:/altera/13.1/nios2eds/bin/gnu/h-i686-mingw32/bin/../lib/gcc/nios2-elf/4.7.3/../../../../../H-i686-mingw32/nios2-elf/lib\libc.a(lib_a-mprec.o)
 .data          0x00043d44        0x0 c:/altera/13.1/nios2eds/bin/gnu/h-i686-mingw32/bin/../lib/gcc/nios2-elf/4.7.3/../../../../../H-i686-mingw32/nios2-elf/lib\libc.a(lib_a-putc.o)
 .data          0x00043d44        0x0 c:/altera/13.1/nios2eds/bin/gnu/h-i686-mingw32/bin/../lib/gcc/nios2-elf/4.7.3/../../../../../H-i686-mingw32/nios2-elf/lib\libc.a(lib_a-reallocr.o)
 .data          0x00043d44        0x0 c:/altera/13.1/nios2eds/bin/gnu/h-i686-mingw32/bin/../lib/gcc/nios2-elf/4.7.3/../../../../../H-i686-mingw32/nios2-elf/lib\libc.a(lib_a-s_isinfd.o)
 .data          0x00043d44        0x0 c:/altera/13.1/nios2eds/bin/gnu/h-i686-mingw32/bin/../lib/gcc/nios2-elf/4.7.3/../../../../../H-i686-mingw32/nios2-elf/lib\libc.a(lib_a-s_isnand.o)
 .data          0x00043d44        0x0 c:/altera/13.1/nios2eds/bin/gnu/h-i686-mingw32/bin/../lib/gcc/nios2-elf/4.7.3/../../../../../H-i686-mingw32/nios2-elf/lib\libc.a(lib_a-sbrkr.o)
 .data          0x00043d44        0x0 c:/altera/13.1/nios2eds/bin/gnu/h-i686-mingw32/bin/../lib/gcc/nios2-elf/4.7.3/../../../../../H-i686-mingw32/nios2-elf/lib\libc.a(lib_a-stdio.o)
 .data          0x00043d44        0x0 c:/altera/13.1/nios2eds/bin/gnu/h-i686-mingw32/bin/../lib/gcc/nios2-elf/4.7.3/../../../../../H-i686-mingw32/nios2-elf/lib\libc.a(lib_a-strcmp.o)
 .data          0x00043d44        0x0 c:/altera/13.1/nios2eds/bin/gnu/h-i686-mingw32/bin/../lib/gcc/nios2-elf/4.7.3/../../../../../H-i686-mingw32/nios2-elf/lib\libc.a(lib_a-wbuf.o)
 .data          0x00043d44        0x0 c:/altera/13.1/nios2eds/bin/gnu/h-i686-mingw32/bin/../lib/gcc/nios2-elf/4.7.3/../../../../../H-i686-mingw32/nios2-elf/lib\libc.a(lib_a-writer.o)
 .data          0x00043d44        0x0 c:/altera/13.1/nios2eds/bin/gnu/h-i686-mingw32/bin/../lib/gcc/nios2-elf/4.7.3/../../../../../H-i686-mingw32/nios2-elf/lib\libc.a(lib_a-callocr.o)
 .data          0x00043d44        0x0 c:/altera/13.1/nios2eds/bin/gnu/h-i686-mingw32/bin/../lib/gcc/nios2-elf/4.7.3/../../../../../H-i686-mingw32/nios2-elf/lib\libc.a(lib_a-closer.o)
 .data          0x00043d44        0x0 c:/altera/13.1/nios2eds/bin/gnu/h-i686-mingw32/bin/../lib/gcc/nios2-elf/4.7.3/../../../../../H-i686-mingw32/nios2-elf/lib\libc.a(lib_a-fclose.o)
 .data          0x00043d44        0x0 c:/altera/13.1/nios2eds/bin/gnu/h-i686-mingw32/bin/../lib/gcc/nios2-elf/4.7.3/../../../../../H-i686-mingw32/nios2-elf/lib\libc.a(lib_a-fstatr.o)
 .data          0x00043d44        0x0 c:/altera/13.1/nios2eds/bin/gnu/h-i686-mingw32/bin/../lib/gcc/nios2-elf/4.7.3/../../../../../H-i686-mingw32/nios2-elf/lib\libc.a(lib_a-int_errno.o)
 .data          0x00043d44        0x0 c:/altera/13.1/nios2eds/bin/gnu/h-i686-mingw32/bin/../lib/gcc/nios2-elf/4.7.3/../../../../../H-i686-mingw32/nios2-elf/lib\libc.a(lib_a-isattyr.o)
 .data          0x00043d44        0x0 c:/altera/13.1/nios2eds/bin/gnu/h-i686-mingw32/bin/../lib/gcc/nios2-elf/4.7.3/../../../../../H-i686-mingw32/nios2-elf/lib\libc.a(lib_a-lseekr.o)
 .data          0x00043d44        0x0 c:/altera/13.1/nios2eds/bin/gnu/h-i686-mingw32/bin/../lib/gcc/nios2-elf/4.7.3/../../../../../H-i686-mingw32/nios2-elf/lib\libc.a(lib_a-readr.o)
 .data          0x00043d44        0x0 c:/altera/13.1/nios2eds/bin/gnu/h-i686-mingw32/bin/../lib/gcc/nios2-elf/4.7.3\libgcc.a(_udivdi3.o)
 .data          0x00043d44        0x0 c:/altera/13.1/nios2eds/bin/gnu/h-i686-mingw32/bin/../lib/gcc/nios2-elf/4.7.3\libgcc.a(_umoddi3.o)
 .data          0x00043d44        0x0 c:/altera/13.1/nios2eds/bin/gnu/h-i686-mingw32/bin/../lib/gcc/nios2-elf/4.7.3\libgcc.a(_addsub_df.o)
 .data          0x00043d44        0x0 c:/altera/13.1/nios2eds/bin/gnu/h-i686-mingw32/bin/../lib/gcc/nios2-elf/4.7.3\libgcc.a(_mul_df.o)
 .data          0x00043d44        0x0 c:/altera/13.1/nios2eds/bin/gnu/h-i686-mingw32/bin/../lib/gcc/nios2-elf/4.7.3\libgcc.a(_div_df.o)
 .data          0x00043d44        0x0 c:/altera/13.1/nios2eds/bin/gnu/h-i686-mingw32/bin/../lib/gcc/nios2-elf/4.7.3\libgcc.a(_eq_df.o)
 .data          0x00043d44        0x0 c:/altera/13.1/nios2eds/bin/gnu/h-i686-mingw32/bin/../lib/gcc/nios2-elf/4.7.3\libgcc.a(_ne_df.o)
 .data          0x00043d44        0x0 c:/altera/13.1/nios2eds/bin/gnu/h-i686-mingw32/bin/../lib/gcc/nios2-elf/4.7.3\libgcc.a(_gt_df.o)
 .data          0x00043d44        0x0 c:/altera/13.1/nios2eds/bin/gnu/h-i686-mingw32/bin/../lib/gcc/nios2-elf/4.7.3\libgcc.a(_ge_df.o)
 .data          0x00043d44        0x0 c:/altera/13.1/nios2eds/bin/gnu/h-i686-mingw32/bin/../lib/gcc/nios2-elf/4.7.3\libgcc.a(_lt_df.o)
 .data          0x00043d44        0x0 c:/altera/13.1/nios2eds/bin/gnu/h-i686-mingw32/bin/../lib/gcc/nios2-elf/4.7.3\libgcc.a(_si_to_df.o)
 .data          0x00043d44        0x0 c:/altera/13.1/nios2eds/bin/gnu/h-i686-mingw32/bin/../lib/gcc/nios2-elf/4.7.3\libgcc.a(_df_to_si.o)
 .data          0x00043d44        0x0 c:/altera/13.1/nios2eds/bin/gnu/h-i686-mingw32/bin/../lib/gcc/nios2-elf/4.7.3\libgcc.a(_thenan_df.o)
 .data          0x00043d44        0x0 c:/altera/13.1/nios2eds/bin/gnu/h-i686-mingw32/bin/../lib/gcc/nios2-elf/4.7.3\libgcc.a(_usi_to_df.o)
 .data          0x00043d44        0x0 c:/altera/13.1/nios2eds/bin/gnu/h-i686-mingw32/bin/../lib/gcc/nios2-elf/4.7.3\libgcc.a(lib2-divmod.o)
 .data          0x00043d44        0x0 c:/altera/13.1/nios2eds/bin/gnu/h-i686-mingw32/bin/../lib/gcc/nios2-elf/4.7.3\libgcc.a(_muldi3.o)
 .data          0x00043d44        0x0 c:/altera/13.1/nios2eds/bin/gnu/h-i686-mingw32/bin/../lib/gcc/nios2-elf/4.7.3\libgcc.a(_clz.o)
 .data          0x00043d44        0x0 c:/altera/13.1/nios2eds/bin/gnu/h-i686-mingw32/bin/../lib/gcc/nios2-elf/4.7.3\libgcc.a(_clzsi2.o)
 .data          0x00043d44        0x0 c:/altera/13.1/nios2eds/bin/gnu/h-i686-mingw32/bin/../lib/gcc/nios2-elf/4.7.3\libgcc.a(_pack_df.o)
 .data          0x00043d44        0x0 c:/altera/13.1/nios2eds/bin/gnu/h-i686-mingw32/bin/../lib/gcc/nios2-elf/4.7.3\libgcc.a(_unpack_df.o)
 .data          0x00043d44        0x0 c:/altera/13.1/nios2eds/bin/gnu/h-i686-mingw32/bin/../lib/gcc/nios2-elf/4.7.3\libgcc.a(_fpcmp_parts_df.o)
 .data          0x00043d44        0x0 c:/altera/13.1/nios2eds/bin/gnu/h-i686-mingw32/bin/../lib/gcc/nios2-elf/4.7.3\libgcc.a(_lshrdi3.o)
 .data          0x00043d44        0x0 c:/altera/13.1/nios2eds/bin/gnu/h-i686-mingw32/bin/../lib/gcc/nios2-elf/4.7.3\libgcc.a(_ashldi3.o)
 .data          0x00043d44        0x0 ../FreeLwIP_bsp/\libfreertos_bsp.a(alt_main.o)
 .data          0x00043d44        0x0 ../FreeLwIP_bsp/\libfreertos_bsp.a(alt_malloc_lock.o)
 .data          0x00043d44        0x0 ../FreeLwIP_bsp/\libfreertos_bsp.a(heap_3.o)
 .data          0x00043d44        0x0 ../FreeLwIP_bsp/\libfreertos_bsp.a(queue.o)
 .data          0x00043d44        0x0 ../FreeLwIP_bsp/\libfreertos_bsp.a(tasks.o)
 .data          0x00043d44        0x0 ../FreeLwIP_bsp/\libfreertos_bsp.a(timers.o)
 .data          0x00043d44      0x1a8 ../FreeLwIP_bsp/\libfreertos_bsp.a(alt_dev.o)
                0x00043d44                alt_dev_null
                0x00043d6c                alt_fd_list
 .data          0x00043eec        0x0 ../FreeLwIP_bsp/\libfreertos_bsp.a(alt_do_ctors.o)
 .data          0x00043eec        0x0 ../FreeLwIP_bsp/\libfreertos_bsp.a(alt_do_dtors.o)
 .data          0x00043eec        0x0 ../FreeLwIP_bsp/\libfreertos_bsp.a(alt_fstat.o)
 .data          0x00043eec        0x0 ../FreeLwIP_bsp/\libfreertos_bsp.a(alt_io_redirect.o)
 .data          0x00043eec        0x0 ../FreeLwIP_bsp/\libfreertos_bsp.a(alt_isatty.o)
 .data          0x00043eec        0x0 ../FreeLwIP_bsp/\libfreertos_bsp.a(alt_load.o)
 .data          0x00043eec        0x0 ../FreeLwIP_bsp/\libfreertos_bsp.a(alt_lseek.o)
 .data          0x00043eec        0x0 ../FreeLwIP_bsp/\libfreertos_bsp.a(alt_open.o)
 .data          0x00043eec        0x0 ../FreeLwIP_bsp/\libfreertos_bsp.a(alt_release_fd.o)
 .data          0x00043eec        0x0 ../FreeLwIP_bsp/\libfreertos_bsp.a(alt_sbrk.o)
 .data          0x00043eec        0x0 ../FreeLwIP_bsp/\libfreertos_bsp.a(alt_usleep.o)
 .data          0x00043eec        0x0 ../FreeLwIP_bsp/\libfreertos_bsp.a(api_lib.o)
 .data          0x00043eec        0x0 ../FreeLwIP_bsp/\libfreertos_bsp.a(api_msg.o)
 .data          0x00043eec        0x0 ../FreeLwIP_bsp/\libfreertos_bsp.a(netbuf.o)
 .data          0x00043eec        0x0 ../FreeLwIP_bsp/\libfreertos_bsp.a(sockets.o)
 .data          0x00043eec        0x0 ../FreeLwIP_bsp/\libfreertos_bsp.a(tcpip.o)
 .data          0x00043eec        0x0 ../FreeLwIP_bsp/\libfreertos_bsp.a(alt_lwip_close.o)
 .data          0x00043eec        0x0 ../FreeLwIP_bsp/\libfreertos_bsp.a(alt_lwip_read.o)
 .data          0x00043eec        0x0 ../FreeLwIP_bsp/\libfreertos_bsp.a(alt_lwip_write.o)
 .data          0x00043eec        0x0 ../FreeLwIP_bsp/\libfreertos_bsp.a(lwip_main.o)
 .data          0x00043eec        0x0 ../FreeLwIP_bsp/\libfreertos_bsp.a(lwip_tse_mac.o)
 .data          0x00043eec        0x0 ../FreeLwIP_bsp/\libfreertos_bsp.a(sys_arch.o)
 .data          0x00043eec        0x0 ../FreeLwIP_bsp/\libfreertos_bsp.a(dhcp.o)
 .data          0x00043eec        0x0 ../FreeLwIP_bsp/\libfreertos_bsp.a(init.o)
 .data          0x00043eec        0x0 ../FreeLwIP_bsp/\libfreertos_bsp.a(ip.o)
 .data          0x00043eec        0x0 ../FreeLwIP_bsp/\libfreertos_bsp.a(ip_addr.o)
 .data          0x00043eec        0x0 ../FreeLwIP_bsp/\libfreertos_bsp.a(ip_frag.o)
 .data          0x00043eec        0x0 ../FreeLwIP_bsp/\libfreertos_bsp.a(mem.o)
 .data          0x00043eec        0x0 ../FreeLwIP_bsp/\libfreertos_bsp.a(memp.o)
 .data          0x00043eec        0x0 ../FreeLwIP_bsp/\libfreertos_bsp.a(netif.o)
 .data          0x00043eec        0x0 ../FreeLwIP_bsp/\libfreertos_bsp.a(pbuf.o)
 .data          0x00043eec        0x0 ../FreeLwIP_bsp/\libfreertos_bsp.a(raw.o)
 .data          0x00043eec        0x0 ../FreeLwIP_bsp/\libfreertos_bsp.a(stats.o)
 .data          0x00043eec        0x0 ../FreeLwIP_bsp/\libfreertos_bsp.a(tcp.o)
 .data          0x00043eec        0x0 ../FreeLwIP_bsp/\libfreertos_bsp.a(tcp_in.o)
 .data          0x00043eec        0x0 ../FreeLwIP_bsp/\libfreertos_bsp.a(tcp_out.o)
 .data          0x00043eec        0x0 ../FreeLwIP_bsp/\libfreertos_bsp.a(timers.o)
 .data          0x00043eec        0x0 ../FreeLwIP_bsp/\libfreertos_bsp.a(udp.o)
 .data          0x00043eec        0x0 ../FreeLwIP_bsp/\libfreertos_bsp.a(etharp.o)
 .data          0x00043eec     0x15c4 ../FreeLwIP_bsp/\libfreertos_bsp.a(alt_sys_init.o)
 .data          0x000454b0        0x0 ../FreeLwIP_bsp/\libfreertos_bsp.a(altera_avalon_cfi_flash.o)
 .data          0x000454b0        0x0 ../FreeLwIP_bsp/\libfreertos_bsp.a(altera_avalon_cfi_flash_table.o)
 .data          0x000454b0        0x0 ../FreeLwIP_bsp/\libfreertos_bsp.a(altera_avalon_jtag_uart_fd.o)
 .data          0x000454b0        0x0 ../FreeLwIP_bsp/\libfreertos_bsp.a(altera_avalon_jtag_uart_init.o)
 .data          0x000454b0        0x0 ../FreeLwIP_bsp/\libfreertos_bsp.a(altera_avalon_jtag_uart_ioctl.o)
 .data          0x000454b0        0x0 ../FreeLwIP_bsp/\libfreertos_bsp.a(altera_avalon_jtag_uart_read.o)
 .data          0x000454b0        0x0 ../FreeLwIP_bsp/\libfreertos_bsp.a(altera_avalon_jtag_uart_write.o)
 .data          0x000454b0        0x0 ../FreeLwIP_bsp/\libfreertos_bsp.a(altera_avalon_lcd_16207.o)
 .data          0x000454b0        0x0 ../FreeLwIP_bsp/\libfreertos_bsp.a(altera_avalon_lcd_16207_fd.o)
 .data          0x000454b0        0x0 ../FreeLwIP_bsp/\libfreertos_bsp.a(altera_avalon_sgdma.o)
 .data          0x000454b0        0x0 ../FreeLwIP_bsp/\libfreertos_bsp.a(altera_avalon_timer_sc.o)
 .data          0x000454b0        0x0 ../FreeLwIP_bsp/\libfreertos_bsp.a(altera_avalon_tse.o)
 .data          0x000454b0      0x240 ../FreeLwIP_bsp/\libfreertos_bsp.a(altera_avalon_tse_system_info.o)
                0x000454b0                tse_mac_device
 .data          0x000456f0        0x0 ../FreeLwIP_bsp/\libfreertos_bsp.a(altera_avalon_uart_fd.o)
 .data          0x000456f0        0x0 ../FreeLwIP_bsp/\libfreertos_bsp.a(altera_avalon_uart_init.o)
 .data          0x000456f0        0x0 ../FreeLwIP_bsp/\libfreertos_bsp.a(altera_avalon_uart_read.o)
 .data          0x000456f0        0x0 ../FreeLwIP_bsp/\libfreertos_bsp.a(altera_avalon_uart_write.o)
 .data          0x000456f0        0x0 ../FreeLwIP_bsp/\libfreertos_bsp.a(altera_vic_0_vector_tbl.o)
 .data          0x000456f0        0x0 ../FreeLwIP_bsp/\libfreertos_bsp.a(altera_vic_funnel_non_preemptive.o)
 .data          0x000456f0        0x0 ../FreeLwIP_bsp/\libfreertos_bsp.a(altera_vic_irq_init.o)
 .data          0x000456f0        0x0 ../FreeLwIP_bsp/\libfreertos_bsp.a(altera_vic_isr_register.o)
 .data          0x000456f0        0x0 ../FreeLwIP_bsp/\libfreertos_bsp.a(alt_env_lock.o)
 .data          0x000456f0        0x0 ../FreeLwIP_bsp/\libfreertos_bsp.a(list.o)
 .data          0x000456f0        0x0 ../FreeLwIP_bsp/\libfreertos_bsp.a(port.o)
 .data          0x000456f0        0x0 ../FreeLwIP_bsp/\libfreertos_bsp.a(port_asm.o)
 .data          0x000456f0        0x0 ../FreeLwIP_bsp/\libfreertos_bsp.a(alt_alarm_start.o)
 .data          0x000456f0        0x0 ../FreeLwIP_bsp/\libfreertos_bsp.a(alt_busy_sleep.o)
 .data          0x000456f0        0x0 ../FreeLwIP_bsp/\libfreertos_bsp.a(alt_close.o)
 .data          0x000456f0        0x0 ../FreeLwIP_bsp/\libfreertos_bsp.a(alt_dcache_flush.o)
 .data          0x000456f0        0x0 ../FreeLwIP_bsp/\libfreertos_bsp.a(alt_dcache_flush_all.o)
 .data          0x000456f0        0x0 ../FreeLwIP_bsp/\libfreertos_bsp.a(alt_dev_llist_insert.o)
 .data          0x000456f0        0x0 ../FreeLwIP_bsp/\libfreertos_bsp.a(alt_errno.o)
 .data          0x000456f0        0x0 ../FreeLwIP_bsp/\libfreertos_bsp.a(alt_find_dev.o)
 .data          0x000456f0        0x0 ../FreeLwIP_bsp/\libfreertos_bsp.a(alt_find_file.o)
 .data          0x000456f0        0x0 ../FreeLwIP_bsp/\libfreertos_bsp.a(alt_flash_dev.o)
 .data          0x000456f0        0x0 ../FreeLwIP_bsp/\libfreertos_bsp.a(alt_get_fd.o)
 .data          0x000456f0        0x0 ../FreeLwIP_bsp/\libfreertos_bsp.a(alt_gettod.o)
 .data          0x000456f0        0x0 ../FreeLwIP_bsp/\libfreertos_bsp.a(alt_icache_flush_all.o)
 .data          0x000456f0        0x0 ../FreeLwIP_bsp/\libfreertos_bsp.a(alt_instruction_exception_entry.o)
 .data          0x000456f0        0x0 ../FreeLwIP_bsp/\libfreertos_bsp.a(alt_read.o)
 .data          0x000456f0        0x0 ../FreeLwIP_bsp/\libfreertos_bsp.a(alt_remap_uncached.o)
 .data          0x000456f0        0x0 ../FreeLwIP_bsp/\libfreertos_bsp.a(alt_tick.o)
 .data          0x000456f0        0x0 ../FreeLwIP_bsp/\libfreertos_bsp.a(alt_uncached_malloc.o)
 .data          0x000456f0        0x0 ../FreeLwIP_bsp/\libfreertos_bsp.a(alt_write.o)
 .data          0x000456f0        0x0 ../FreeLwIP_bsp/\libfreertos_bsp.a(altera_tse_ethernetif.o)
 .data          0x000456f0        0x0 ../FreeLwIP_bsp/\libfreertos_bsp.a(icmp.o)
 .data          0x000456f0        0x0 ../FreeLwIP_bsp/\libfreertos_bsp.a(inet_chksum.o)
 .data          0x000456f0        0x0 ../FreeLwIP_bsp/\libfreertos_bsp.a(altera_avalon_cfi_flash_amd.o)
 .data          0x000456f0        0x0 ../FreeLwIP_bsp/\libfreertos_bsp.a(altera_avalon_cfi_flash_intel.o)
 .data          0x000456f0        0x0 ../FreeLwIP_bsp/\libfreertos_bsp.a(alt_icache_flush.o)
 .data          0x000456f0        0x0 c:/altera/13.1/nios2eds/bin/gnu/h-i686-mingw32/bin/../lib/gcc/nios2-elf/4.7.3/../../../../../H-i686-mingw32/nios2-elf/lib\libc.a(lib_a-atexit.o)
 .data          0x000456f0        0x0 c:/altera/13.1/nios2eds/bin/gnu/h-i686-mingw32/bin/../lib/gcc/nios2-elf/4.7.3/../../../../../H-i686-mingw32/nios2-elf/lib\libc.a(lib_a-ctype_.o)
 .data          0x000456f0        0x0 c:/altera/13.1/nios2eds/bin/gnu/h-i686-mingw32/bin/../lib/gcc/nios2-elf/4.7.3/../../../../../H-i686-mingw32/nios2-elf/lib\libc.a(lib_a-errno.o)
 .data          0x000456f0        0x0 c:/altera/13.1/nios2eds/bin/gnu/h-i686-mingw32/bin/../lib/gcc/nios2-elf/4.7.3/../../../../../H-i686-mingw32/nios2-elf/lib\libc.a(lib_a-exit.o)
 .data          0x000456f0        0x0 c:/altera/13.1/nios2eds/bin/gnu/h-i686-mingw32/bin/../lib/gcc/nios2-elf/4.7.3/../../../../../H-i686-mingw32/nios2-elf/lib\libc.a(lib_a-malloc.o)
 .data          0x000456f0        0x0 c:/altera/13.1/nios2eds/bin/gnu/h-i686-mingw32/bin/../lib/gcc/nios2-elf/4.7.3/../../../../../H-i686-mingw32/nios2-elf/lib\libc.a(lib_a-memcmp.o)
 .data          0x000456f0        0x0 c:/altera/13.1/nios2eds/bin/gnu/h-i686-mingw32/bin/../lib/gcc/nios2-elf/4.7.3/../../../../../H-i686-mingw32/nios2-elf/lib\libc.a(lib_a-snprintf.o)
 .data          0x000456f0        0x0 c:/altera/13.1/nios2eds/bin/gnu/h-i686-mingw32/bin/../lib/gcc/nios2-elf/4.7.3/../../../../../H-i686-mingw32/nios2-elf/lib\libc.a(lib_a-strncpy.o)
 .data          0x000456f0        0x0 c:/altera/13.1/nios2eds/bin/gnu/h-i686-mingw32/bin/../lib/gcc/nios2-elf/4.7.3/../../../../../H-i686-mingw32/nios2-elf/lib\libc.a(lib_a-__atexit.o)
 .data          0x000456f0        0x0 c:/altera/13.1/nios2eds/bin/gnu/h-i686-mingw32/bin/../lib/gcc/nios2-elf/4.7.3/../../../../../H-i686-mingw32/nios2-elf/lib\libc.a(lib_a-__call_atexit.o)
 .data          0x000456f0        0x0 ../FreeLwIP_bsp/\libfreertos_bsp.a(alt_exit.o)
                0x0004d6f0                _gp = ABSOLUTE ((. + 0x8000))
                0x0004d6f0                PROVIDE (gp, _gp)
 *(.rwdata .rwdata.*)
 *(.sdata .sdata.* .gnu.linkonce.s.*)
 .sdata         0x000456f0        0x8 obj/default/death.o
 .sdata         0x000456f8        0x8 c:/altera/13.1/nios2eds/bin/gnu/h-i686-mingw32/bin/../lib/gcc/nios2-elf/4.7.3/../../../../../H-i686-mingw32/nios2-elf/lib\libc.a(lib_a-impure.o)
                0x000456f8                _global_impure_ptr
                0x000456fc                _impure_ptr
 .sdata         0x00045700        0x4 c:/altera/13.1/nios2eds/bin/gnu/h-i686-mingw32/bin/../lib/gcc/nios2-elf/4.7.3/../../../../../H-i686-mingw32/nios2-elf/lib\libc.a(lib_a-locale.o)
                0x00045700                __mb_cur_max
 .sdata         0x00045704        0x8 c:/altera/13.1/nios2eds/bin/gnu/h-i686-mingw32/bin/../lib/gcc/nios2-elf/4.7.3/../../../../../H-i686-mingw32/nios2-elf/lib\libc.a(lib_a-mallocr.o)
                0x00045704                __malloc_sbrk_base
                0x00045708                __malloc_trim_threshold
 .sdata         0x0004570c        0x4 ../FreeLwIP_bsp/\libfreertos_bsp.a(tasks.o)
 .sdata         0x00045710       0x14 ../FreeLwIP_bsp/\libfreertos_bsp.a(alt_dev.o)
                0x00045710                alt_fs_list
                0x00045718                alt_dev_list
                0x00045720                alt_max_fd
 .sdata         0x00045724        0x4 ../FreeLwIP_bsp/\libfreertos_bsp.a(alt_sbrk.o)
 .sdata         0x00045728        0x4 ../FreeLwIP_bsp/\libfreertos_bsp.a(dhcp.o)
 .sdata         0x0004572c        0x8 ../FreeLwIP_bsp/\libfreertos_bsp.a(ip_addr.o)
                0x0004572c                ip_addr_any
                0x00045730                ip_addr_broadcast
 .sdata         0x00045734       0x10 ../FreeLwIP_bsp/\libfreertos_bsp.a(tcp.o)
                0x00045736                tcp_persist_backoff
 .sdata         0x00045744        0x2 ../FreeLwIP_bsp/\libfreertos_bsp.a(udp.o)
 .sdata         0x00045746        0xc ../FreeLwIP_bsp/\libfreertos_bsp.a(etharp.o)
                0x00045746                ethbroadcast
                0x0004574c                ethzero
 .sdata         0x00045752        0x4 ../FreeLwIP_bsp/\libfreertos_bsp.a(altera_avalon_lcd_16207.o)
 *fill*         0x00045756        0x2 
 .sdata         0x00045758        0x8 ../FreeLwIP_bsp/\libfreertos_bsp.a(altera_avalon_sgdma.o)
                0x00045758                alt_sgdma_list
 .sdata         0x00045760        0x1 ../FreeLwIP_bsp/\libfreertos_bsp.a(altera_avalon_tse.o)
                0x00045760                max_mac_system
 *fill*         0x00045761        0x3 
 .sdata         0x00045764        0x4 ../FreeLwIP_bsp/\libfreertos_bsp.a(alt_errno.o)
                0x00045764                alt_errno
 .sdata         0x00045768        0x8 ../FreeLwIP_bsp/\libfreertos_bsp.a(alt_flash_dev.o)
                0x00045768                alt_flash_dev_list
 .sdata         0x00045770        0x8 ../FreeLwIP_bsp/\libfreertos_bsp.a(alt_tick.o)
                0x00045770                alt_alarm_list
 .sdata         0x00045778        0x4 c:/altera/13.1/nios2eds/bin/gnu/h-i686-mingw32/bin/../lib/gcc/nios2-elf/4.7.3/../../../../../H-i686-mingw32/nios2-elf/lib\libc.a(lib_a-ctype_.o)
                0x00045778                __ctype_ptr
 *(.sdata2 .sdata2.* .gnu.linkonce.s2.*)
                0x0004577c                . = ALIGN (0x4)
                0x0004577c                _edata = ABSOLUTE (.)
                0x0004577c                PROVIDE (edata, ABSOLUTE (.))
                0x0004577c                PROVIDE (__ram_rwdata_end, ABSOLUTE (.))
                0x0004577c                PROVIDE (__flash_rwdata_start, LOADADDR (.rwdata))

.bss            0x000479c8    0x23c34
                0x000479c8                __bss_start = ABSOLUTE (.)
                0x000479c8                PROVIDE (__sbss_start, ABSOLUTE (.))
                0x000479c8                PROVIDE (___sbss_start, ABSOLUTE (.))
 *(.dynsbss)
 *(.sbss .sbss.* .gnu.linkonce.sb.*)
 .sbss          0x000479c8        0x4 obj/default/BasicWEB.o
 .sbss          0x000479cc       0x18 obj/default/BlockQ.o
 .sbss          0x000479e4       0x20 obj/default/GenQTest.o
 .sbss          0x00047a04        0xc obj/default/PollQ.o
 .sbss          0x00047a10        0xc obj/default/QPeek.o
 .sbss          0x00047a1c        0xc obj/default/QPeek.o
                0x00047a1c                xHighPriorityTask
                0x00047a20                xMediumPriorityTask
                0x00047a24                xHighestPriorityTask
 .sbss          0x00047a28       0x20 obj/default/blocktim.o
 .sbss          0x00047a48        0xc obj/default/countsem.o
 .sbss          0x00047a54       0x10 obj/default/death.o
                0x00047a60                xCreatedTask
 .sbss          0x00047a64       0x2c obj/default/dynamic.o
                0x00047a8c                xSuspendedTestQueue
 .sbss          0x00047a90        0x4 obj/default/integer.o
 .sbss          0x00047a94        0x8 obj/default/main.o
                0x00047a94                ulRegTest1Counter
                0x00047a98                ulRegTest2Counter
 .sbss          0x00047a9c       0x30 obj/default/recmutex.o
 .sbss          0x00047acc       0x12 obj/default/semtest.o
 *fill*         0x00047ade        0x2 
 .sbss          0x00047ae0        0xc c:/altera/13.1/nios2eds/bin/gnu/h-i686-mingw32/bin/../lib/gcc/nios2-elf/4.7.3/../../../../../H-i686-mingw32/nios2-elf/lib\libc.a(lib_a-locale.o)
                0x00047ae0                _PathLocale
                0x00047ae4                __mlocale_changed
                0x00047ae8                __nlocale_changed
 .sbss          0x00047aec        0xc c:/altera/13.1/nios2eds/bin/gnu/h-i686-mingw32/bin/../lib/gcc/nios2-elf/4.7.3/../../../../../H-i686-mingw32/nios2-elf/lib\libc.a(lib_a-mallocr.o)
                0x00047aec                __malloc_max_total_mem
                0x00047af0                __malloc_max_sbrked_mem
                0x00047af4                __malloc_top_pad
 .sbss          0x00047af8        0x4 c:/altera/13.1/nios2eds/bin/gnu/h-i686-mingw32/bin/../lib/gcc/nios2-elf/4.7.3/../../../../../H-i686-mingw32/nios2-elf/lib\libc.a(lib_a-int_errno.o)
                0x00047af8                errno
 .sbss          0x00047afc        0xc ../FreeLwIP_bsp/\libfreertos_bsp.a(alt_main.o)
                0x00047afc                alt_argc
                0x00047b00                alt_argv
                0x00047b04                alt_envp
 .sbss          0x00047b08        0x4 ../FreeLwIP_bsp/\libfreertos_bsp.a(alt_malloc_lock.o)
                0x00047b08                alt_heapsem
 .sbss          0x00047b0c       0x38 ../FreeLwIP_bsp/\libfreertos_bsp.a(tasks.o)
                0x00047b0c                pxCurrentTCB
 .sbss          0x00047b44       0x10 ../FreeLwIP_bsp/\libfreertos_bsp.a(timers.o)
 .sbss          0x00047b54        0x4 ../FreeLwIP_bsp/\libfreertos_bsp.a(alt_dev.o)
                0x00047b54                alt_fd_list_lock
 .sbss          0x00047b58        0x8 ../FreeLwIP_bsp/\libfreertos_bsp.a(sockets.o)
 .sbss          0x00047b60        0xc ../FreeLwIP_bsp/\libfreertos_bsp.a(tcpip.o)
 .sbss          0x00047b6c       0x18 ../FreeLwIP_bsp/\libfreertos_bsp.a(lwip_main.o)
                0x00047b74                tx_counter
                0x00047b78                rx_counter
                0x00047b7c                rx_missed_packets
                0x00047b80                rx_faulty_packets
                0x00047b84                eth_tse
 .sbss          0x00047b84        0x0 ../FreeLwIP_bsp/\libfreertos_bsp.a(lwip_tse_mac.o)
                0x00047b84                tse
 .sbss          0x00047b84       0x14 ../FreeLwIP_bsp/\libfreertos_bsp.a(ip.o)
                0x00047b88                current_iphdr_src
                0x00047b8c                current_netif
                0x00047b90                current_iphdr_dest
                0x00047b94                current_header
 .sbss          0x00047b98        0x8 ../FreeLwIP_bsp/\libfreertos_bsp.a(ip_frag.o)
 .sbss          0x00047ba0       0x10 ../FreeLwIP_bsp/\libfreertos_bsp.a(mem.o)
 .sbss          0x00047bb0        0xc ../FreeLwIP_bsp/\libfreertos_bsp.a(netif.o)
                0x00047bb4                netif_list
                0x00047bb8                netif_default
 .sbss          0x00047bbc        0x1 ../FreeLwIP_bsp/\libfreertos_bsp.a(pbuf.o)
                0x00047bbc                pbuf_free_ooseq_pending
 *fill*         0x00047bbd        0x3 
 .sbss          0x00047bc0        0x4 ../FreeLwIP_bsp/\libfreertos_bsp.a(raw.o)
 .sbss          0x00047bc4       0x1c ../FreeLwIP_bsp/\libfreertos_bsp.a(tcp.o)
                0x00047bc6                tcp_active_pcbs_changed
                0x00047bc8                tcp_active_pcbs
                0x00047bcc                tcp_ticks
                0x00047bd0                tcp_listen_pcbs
                0x00047bd4                tcp_tmp_pcb
                0x00047bd8                tcp_bound_pcbs
                0x00047bdc                tcp_tw_pcbs
 .sbss          0x00047be0       0x20 ../FreeLwIP_bsp/\libfreertos_bsp.a(tcp_in.o)
                0x00047bfc                tcp_input_pcb
 .sbss          0x00047c00        0x8 ../FreeLwIP_bsp/\libfreertos_bsp.a(timers.o)
 .sbss          0x00047c08        0x4 ../FreeLwIP_bsp/\libfreertos_bsp.a(udp.o)
                0x00047c08                udp_pcbs
 .sbss          0x00047c0c        0x4 ../FreeLwIP_bsp/\libfreertos_bsp.a(altera_avalon_tse.o)
                0x00047c0c                phy_profile_count
                0x00047c0d                mac_group_count
 .sbss          0x00047c10        0x4 ../FreeLwIP_bsp/\libfreertos_bsp.a(altera_vic_irq_init.o)
                0x00047c10                alt_vic_dev_list
 .sbss          0x00047c14        0x4 ../FreeLwIP_bsp/\libfreertos_bsp.a(alt_env_lock.o)
                0x00047c14                alt_envsem
 .sbss          0x00047c18        0x4 ../FreeLwIP_bsp/\libfreertos_bsp.a(port.o)
 .sbss          0x00047c1c       0x10 ../FreeLwIP_bsp/\libfreertos_bsp.a(alt_gettod.o)
                0x00047c1c                alt_timezone
                0x00047c24                alt_resettime
 .sbss          0x00047c2c        0x4 ../FreeLwIP_bsp/\libfreertos_bsp.a(alt_instruction_exception_entry.o)
                0x00047c2c                alt_instruction_exception_handler
 .sbss          0x00047c30        0x8 ../FreeLwIP_bsp/\libfreertos_bsp.a(alt_tick.o)
                0x00047c30                _alt_tick_rate
                0x00047c34                _alt_nticks
 *(.sbss2 .sbss2.* .gnu.linkonce.sb2.*)
 *(.scommon)
                0x00047c38                PROVIDE (__sbss_end, ABSOLUTE (.))
                0x00047c38                PROVIDE (___sbss_end, ABSOLUTE (.))
 *(.dynbss)
 *(.bss .bss.* .gnu.linkonce.b.*)
 .bss           0x00047c38        0x0 ../FreeLwIP_bsp//obj/HAL/src/crt0.o
 .bss           0x00047c38        0x0 obj/default/BasicWEB.o
 .bss           0x00047c38        0x0 obj/default/BlockQ.o
 .bss           0x00047c38        0x0 obj/default/GenQTest.o
 .bss           0x00047c38        0x0 obj/default/PollQ.o
 .bss           0x00047c38        0x0 obj/default/QPeek.o
 .bss           0x00047c38        0x0 obj/default/blocktim.o
 .bss           0x00047c38       0x18 obj/default/countsem.o
 .bss           0x00047c50        0x0 obj/default/death.o
 .bss           0x00047c50        0x0 obj/default/dynamic.o
 .bss           0x00047c50        0x0 obj/default/echo_server.o
 .bss           0x00047c50        0x0 obj/default/ethernet.o
 .bss           0x00047c50        0x0 obj/default/integer.o
 .bss           0x00047c50        0x0 obj/default/main.o
 .bss           0x00047c50        0x0 obj/default/recmutex.o
 .bss           0x00047c50        0x0 obj/default/semtest.o
 .bss           0x00047c50        0x0 c:/altera/13.1/nios2eds/bin/gnu/h-i686-mingw32/bin/../lib/gcc/nios2-elf/4.7.3/../../../../../H-i686-mingw32/nios2-elf/lib\libc.a(lib_a-memcpy.o)
 .bss           0x00047c50        0x0 c:/altera/13.1/nios2eds/bin/gnu/h-i686-mingw32/bin/../lib/gcc/nios2-elf/4.7.3/../../../../../H-i686-mingw32/nios2-elf/lib\libc.a(lib_a-memset.o)
 .bss           0x00047c50        0x0 c:/altera/13.1/nios2eds/bin/gnu/h-i686-mingw32/bin/../lib/gcc/nios2-elf/4.7.3/../../../../../H-i686-mingw32/nios2-elf/lib\libc.a(lib_a-perror.o)
 .bss           0x00047c50        0x0 c:/altera/13.1/nios2eds/bin/gnu/h-i686-mingw32/bin/../lib/gcc/nios2-elf/4.7.3/../../../../../H-i686-mingw32/nios2-elf/lib\libc.a(lib_a-printf.o)
 .bss           0x00047c50        0x0 c:/altera/13.1/nios2eds/bin/gnu/h-i686-mingw32/bin/../lib/gcc/nios2-elf/4.7.3/../../../../../H-i686-mingw32/nios2-elf/lib\libc.a(lib_a-puts.o)
 .bss           0x00047c50        0x0 c:/altera/13.1/nios2eds/bin/gnu/h-i686-mingw32/bin/../lib/gcc/nios2-elf/4.7.3/../../../../../H-i686-mingw32/nios2-elf/lib\libc.a(lib_a-sprintf.o)
 .bss           0x00047c50        0x0 c:/altera/13.1/nios2eds/bin/gnu/h-i686-mingw32/bin/../lib/gcc/nios2-elf/4.7.3/../../../../../H-i686-mingw32/nios2-elf/lib\libc.a(lib_a-strcat.o)
 .bss           0x00047c50        0x0 c:/altera/13.1/nios2eds/bin/gnu/h-i686-mingw32/bin/../lib/gcc/nios2-elf/4.7.3/../../../../../H-i686-mingw32/nios2-elf/lib\libc.a(lib_a-strcpy.o)
 .bss           0x00047c50        0x0 c:/altera/13.1/nios2eds/bin/gnu/h-i686-mingw32/bin/../lib/gcc/nios2-elf/4.7.3/../../../../../H-i686-mingw32/nios2-elf/lib\libc.a(lib_a-strerror.o)
 .bss           0x00047c50        0x0 c:/altera/13.1/nios2eds/bin/gnu/h-i686-mingw32/bin/../lib/gcc/nios2-elf/4.7.3/../../../../../H-i686-mingw32/nios2-elf/lib\libc.a(lib_a-strlen.o)
 .bss           0x00047c50        0x0 c:/altera/13.1/nios2eds/bin/gnu/h-i686-mingw32/bin/../lib/gcc/nios2-elf/4.7.3/../../../../../H-i686-mingw32/nios2-elf/lib\libc.a(lib_a-strncmp.o)
 .bss           0x00047c50        0x0 c:/altera/13.1/nios2eds/bin/gnu/h-i686-mingw32/bin/../lib/gcc/nios2-elf/4.7.3/../../../../../H-i686-mingw32/nios2-elf/lib\libc.a(lib_a-u_strerr.o)
 .bss           0x00047c50        0x0 c:/altera/13.1/nios2eds/bin/gnu/h-i686-mingw32/bin/../lib/gcc/nios2-elf/4.7.3/../../../../../H-i686-mingw32/nios2-elf/lib\libc.a(lib_a-vfprintf.o)
 .bss           0x00047c50        0x0 c:/altera/13.1/nios2eds/bin/gnu/h-i686-mingw32/bin/../lib/gcc/nios2-elf/4.7.3/../../../../../H-i686-mingw32/nios2-elf/lib\libc.a(lib_a-wsetup.o)
 .bss           0x00047c50        0x0 c:/altera/13.1/nios2eds/bin/gnu/h-i686-mingw32/bin/../lib/gcc/nios2-elf/4.7.3/../../../../../H-i686-mingw32/nios2-elf/lib\libc.a(lib_a-dtoa.o)
 .bss           0x00047c50        0x0 c:/altera/13.1/nios2eds/bin/gnu/h-i686-mingw32/bin/../lib/gcc/nios2-elf/4.7.3/../../../../../H-i686-mingw32/nios2-elf/lib\libc.a(lib_a-fflush.o)
 .bss           0x00047c50        0x0 c:/altera/13.1/nios2eds/bin/gnu/h-i686-mingw32/bin/../lib/gcc/nios2-elf/4.7.3/../../../../../H-i686-mingw32/nios2-elf/lib\libc.a(lib_a-findfp.o)
 .bss           0x00047c50        0x0 c:/altera/13.1/nios2eds/bin/gnu/h-i686-mingw32/bin/../lib/gcc/nios2-elf/4.7.3/../../../../../H-i686-mingw32/nios2-elf/lib\libc.a(lib_a-fputc.o)
 .bss           0x00047c50        0x0 c:/altera/13.1/nios2eds/bin/gnu/h-i686-mingw32/bin/../lib/gcc/nios2-elf/4.7.3/../../../../../H-i686-mingw32/nios2-elf/lib\libc.a(lib_a-fputs.o)
 .bss           0x00047c50        0x0 c:/altera/13.1/nios2eds/bin/gnu/h-i686-mingw32/bin/../lib/gcc/nios2-elf/4.7.3/../../../../../H-i686-mingw32/nios2-elf/lib\libc.a(lib_a-freer.o)
 .bss           0x00047c50        0x0 c:/altera/13.1/nios2eds/bin/gnu/h-i686-mingw32/bin/../lib/gcc/nios2-elf/4.7.3/../../../../../H-i686-mingw32/nios2-elf/lib\libc.a(lib_a-fvwrite.o)
 .bss           0x00047c50        0x0 c:/altera/13.1/nios2eds/bin/gnu/h-i686-mingw32/bin/../lib/gcc/nios2-elf/4.7.3/../../../../../H-i686-mingw32/nios2-elf/lib\libc.a(lib_a-fwalk.o)
 .bss           0x00047c50        0x0 c:/altera/13.1/nios2eds/bin/gnu/h-i686-mingw32/bin/../lib/gcc/nios2-elf/4.7.3/../../../../../H-i686-mingw32/nios2-elf/lib\libc.a(lib_a-impure.o)
 .bss           0x00047c50        0x0 c:/altera/13.1/nios2eds/bin/gnu/h-i686-mingw32/bin/../lib/gcc/nios2-elf/4.7.3/../../../../../H-i686-mingw32/nios2-elf/lib\libc.a(lib_a-locale.o)
 .bss           0x00047c50        0x0 c:/altera/13.1/nios2eds/bin/gnu/h-i686-mingw32/bin/../lib/gcc/nios2-elf/4.7.3/../../../../../H-i686-mingw32/nios2-elf/lib\libc.a(lib_a-makebuf.o)
 .bss           0x00047c50       0x28 c:/altera/13.1/nios2eds/bin/gnu/h-i686-mingw32/bin/../lib/gcc/nios2-elf/4.7.3/../../../../../H-i686-mingw32/nios2-elf/lib\libc.a(lib_a-mallocr.o)
                0x00047c50                __malloc_current_mallinfo
 .bss           0x00047c78        0x0 c:/altera/13.1/nios2eds/bin/gnu/h-i686-mingw32/bin/../lib/gcc/nios2-elf/4.7.3/../../../../../H-i686-mingw32/nios2-elf/lib\libc.a(lib_a-memchr.o)
 .bss           0x00047c78        0x0 c:/altera/13.1/nios2eds/bin/gnu/h-i686-mingw32/bin/../lib/gcc/nios2-elf/4.7.3/../../../../../H-i686-mingw32/nios2-elf/lib\libc.a(lib_a-memmove.o)
 .bss           0x00047c78        0x0 c:/altera/13.1/nios2eds/bin/gnu/h-i686-mingw32/bin/../lib/gcc/nios2-elf/4.7.3/../../../../../H-i686-mingw32/nios2-elf/lib\libc.a(lib_a-mprec.o)
 .bss           0x00047c78        0x0 c:/altera/13.1/nios2eds/bin/gnu/h-i686-mingw32/bin/../lib/gcc/nios2-elf/4.7.3/../../../../../H-i686-mingw32/nios2-elf/lib\libc.a(lib_a-putc.o)
 .bss           0x00047c78        0x0 c:/altera/13.1/nios2eds/bin/gnu/h-i686-mingw32/bin/../lib/gcc/nios2-elf/4.7.3/../../../../../H-i686-mingw32/nios2-elf/lib\libc.a(lib_a-reallocr.o)
 .bss           0x00047c78        0x0 c:/altera/13.1/nios2eds/bin/gnu/h-i686-mingw32/bin/../lib/gcc/nios2-elf/4.7.3/../../../../../H-i686-mingw32/nios2-elf/lib\libc.a(lib_a-s_isinfd.o)
 .bss           0x00047c78        0x0 c:/altera/13.1/nios2eds/bin/gnu/h-i686-mingw32/bin/../lib/gcc/nios2-elf/4.7.3/../../../../../H-i686-mingw32/nios2-elf/lib\libc.a(lib_a-s_isnand.o)
 .bss           0x00047c78        0x0 c:/altera/13.1/nios2eds/bin/gnu/h-i686-mingw32/bin/../lib/gcc/nios2-elf/4.7.3/../../../../../H-i686-mingw32/nios2-elf/lib\libc.a(lib_a-sbrkr.o)
 .bss           0x00047c78        0x0 c:/altera/13.1/nios2eds/bin/gnu/h-i686-mingw32/bin/../lib/gcc/nios2-elf/4.7.3/../../../../../H-i686-mingw32/nios2-elf/lib\libc.a(lib_a-stdio.o)
 .bss           0x00047c78        0x0 c:/altera/13.1/nios2eds/bin/gnu/h-i686-mingw32/bin/../lib/gcc/nios2-elf/4.7.3/../../../../../H-i686-mingw32/nios2-elf/lib\libc.a(lib_a-strcmp.o)
 .bss           0x00047c78        0x0 c:/altera/13.1/nios2eds/bin/gnu/h-i686-mingw32/bin/../lib/gcc/nios2-elf/4.7.3/../../../../../H-i686-mingw32/nios2-elf/lib\libc.a(lib_a-wbuf.o)
 .bss           0x00047c78        0x0 c:/altera/13.1/nios2eds/bin/gnu/h-i686-mingw32/bin/../lib/gcc/nios2-elf/4.7.3/../../../../../H-i686-mingw32/nios2-elf/lib\libc.a(lib_a-writer.o)
 .bss           0x00047c78        0x0 c:/altera/13.1/nios2eds/bin/gnu/h-i686-mingw32/bin/../lib/gcc/nios2-elf/4.7.3/../../../../../H-i686-mingw32/nios2-elf/lib\libc.a(lib_a-callocr.o)
 .bss           0x00047c78        0x0 c:/altera/13.1/nios2eds/bin/gnu/h-i686-mingw32/bin/../lib/gcc/nios2-elf/4.7.3/../../../../../H-i686-mingw32/nios2-elf/lib\libc.a(lib_a-closer.o)
 .bss           0x00047c78        0x0 c:/altera/13.1/nios2eds/bin/gnu/h-i686-mingw32/bin/../lib/gcc/nios2-elf/4.7.3/../../../../../H-i686-mingw32/nios2-elf/lib\libc.a(lib_a-fclose.o)
 .bss           0x00047c78        0x0 c:/altera/13.1/nios2eds/bin/gnu/h-i686-mingw32/bin/../lib/gcc/nios2-elf/4.7.3/../../../../../H-i686-mingw32/nios2-elf/lib\libc.a(lib_a-fstatr.o)
 .bss           0x00047c78        0x0 c:/altera/13.1/nios2eds/bin/gnu/h-i686-mingw32/bin/../lib/gcc/nios2-elf/4.7.3/../../../../../H-i686-mingw32/nios2-elf/lib\libc.a(lib_a-int_errno.o)
 .bss           0x00047c78        0x0 c:/altera/13.1/nios2eds/bin/gnu/h-i686-mingw32/bin/../lib/gcc/nios2-elf/4.7.3/../../../../../H-i686-mingw32/nios2-elf/lib\libc.a(lib_a-isattyr.o)
 .bss           0x00047c78        0x0 c:/altera/13.1/nios2eds/bin/gnu/h-i686-mingw32/bin/../lib/gcc/nios2-elf/4.7.3/../../../../../H-i686-mingw32/nios2-elf/lib\libc.a(lib_a-lseekr.o)
 .bss           0x00047c78        0x0 c:/altera/13.1/nios2eds/bin/gnu/h-i686-mingw32/bin/../lib/gcc/nios2-elf/4.7.3/../../../../../H-i686-mingw32/nios2-elf/lib\libc.a(lib_a-readr.o)
 .bss           0x00047c78        0x0 c:/altera/13.1/nios2eds/bin/gnu/h-i686-mingw32/bin/../lib/gcc/nios2-elf/4.7.3\libgcc.a(_udivdi3.o)
 .bss           0x00047c78        0x0 c:/altera/13.1/nios2eds/bin/gnu/h-i686-mingw32/bin/../lib/gcc/nios2-elf/4.7.3\libgcc.a(_umoddi3.o)
 .bss           0x00047c78        0x0 c:/altera/13.1/nios2eds/bin/gnu/h-i686-mingw32/bin/../lib/gcc/nios2-elf/4.7.3\libgcc.a(_addsub_df.o)
 .bss           0x00047c78        0x0 c:/altera/13.1/nios2eds/bin/gnu/h-i686-mingw32/bin/../lib/gcc/nios2-elf/4.7.3\libgcc.a(_mul_df.o)
 .bss           0x00047c78        0x0 c:/altera/13.1/nios2eds/bin/gnu/h-i686-mingw32/bin/../lib/gcc/nios2-elf/4.7.3\libgcc.a(_div_df.o)
 .bss           0x00047c78        0x0 c:/altera/13.1/nios2eds/bin/gnu/h-i686-mingw32/bin/../lib/gcc/nios2-elf/4.7.3\libgcc.a(_eq_df.o)
 .bss           0x00047c78        0x0 c:/altera/13.1/nios2eds/bin/gnu/h-i686-mingw32/bin/../lib/gcc/nios2-elf/4.7.3\libgcc.a(_ne_df.o)
 .bss           0x00047c78        0x0 c:/altera/13.1/nios2eds/bin/gnu/h-i686-mingw32/bin/../lib/gcc/nios2-elf/4.7.3\libgcc.a(_gt_df.o)
 .bss           0x00047c78        0x0 c:/altera/13.1/nios2eds/bin/gnu/h-i686-mingw32/bin/../lib/gcc/nios2-elf/4.7.3\libgcc.a(_ge_df.o)
 .bss           0x00047c78        0x0 c:/altera/13.1/nios2eds/bin/gnu/h-i686-mingw32/bin/../lib/gcc/nios2-elf/4.7.3\libgcc.a(_lt_df.o)
 .bss           0x00047c78        0x0 c:/altera/13.1/nios2eds/bin/gnu/h-i686-mingw32/bin/../lib/gcc/nios2-elf/4.7.3\libgcc.a(_si_to_df.o)
 .bss           0x00047c78        0x0 c:/altera/13.1/nios2eds/bin/gnu/h-i686-mingw32/bin/../lib/gcc/nios2-elf/4.7.3\libgcc.a(_df_to_si.o)
 .bss           0x00047c78        0x0 c:/altera/13.1/nios2eds/bin/gnu/h-i686-mingw32/bin/../lib/gcc/nios2-elf/4.7.3\libgcc.a(_thenan_df.o)
 .bss           0x00047c78        0x0 c:/altera/13.1/nios2eds/bin/gnu/h-i686-mingw32/bin/../lib/gcc/nios2-elf/4.7.3\libgcc.a(_usi_to_df.o)
 .bss           0x00047c78        0x0 c:/altera/13.1/nios2eds/bin/gnu/h-i686-mingw32/bin/../lib/gcc/nios2-elf/4.7.3\libgcc.a(lib2-divmod.o)
 .bss           0x00047c78        0x0 c:/altera/13.1/nios2eds/bin/gnu/h-i686-mingw32/bin/../lib/gcc/nios2-elf/4.7.3\libgcc.a(_muldi3.o)
 .bss           0x00047c78        0x0 c:/altera/13.1/nios2eds/bin/gnu/h-i686-mingw32/bin/../lib/gcc/nios2-elf/4.7.3\libgcc.a(_clz.o)
 .bss           0x00047c78        0x0 c:/altera/13.1/nios2eds/bin/gnu/h-i686-mingw32/bin/../lib/gcc/nios2-elf/4.7.3\libgcc.a(_clzsi2.o)
 .bss           0x00047c78        0x0 c:/altera/13.1/nios2eds/bin/gnu/h-i686-mingw32/bin/../lib/gcc/nios2-elf/4.7.3\libgcc.a(_pack_df.o)
 .bss           0x00047c78        0x0 c:/altera/13.1/nios2eds/bin/gnu/h-i686-mingw32/bin/../lib/gcc/nios2-elf/4.7.3\libgcc.a(_unpack_df.o)
 .bss           0x00047c78        0x0 c:/altera/13.1/nios2eds/bin/gnu/h-i686-mingw32/bin/../lib/gcc/nios2-elf/4.7.3\libgcc.a(_fpcmp_parts_df.o)
 .bss           0x00047c78        0x0 c:/altera/13.1/nios2eds/bin/gnu/h-i686-mingw32/bin/../lib/gcc/nios2-elf/4.7.3\libgcc.a(_lshrdi3.o)
 .bss           0x00047c78        0x0 c:/altera/13.1/nios2eds/bin/gnu/h-i686-mingw32/bin/../lib/gcc/nios2-elf/4.7.3\libgcc.a(_ashldi3.o)
 .bss           0x00047c78        0x0 ../FreeLwIP_bsp/\libfreertos_bsp.a(alt_main.o)
 .bss           0x00047c78        0x0 ../FreeLwIP_bsp/\libfreertos_bsp.a(alt_malloc_lock.o)
 .bss           0x00047c78        0x0 ../FreeLwIP_bsp/\libfreertos_bsp.a(heap_3.o)
 .bss           0x00047c78        0x0 ../FreeLwIP_bsp/\libfreertos_bsp.a(queue.o)
 .bss           0x00047c78      0x110 ../FreeLwIP_bsp/\libfreertos_bsp.a(tasks.o)
 .bss           0x00047d88       0x28 ../FreeLwIP_bsp/\libfreertos_bsp.a(timers.o)
 .bss           0x00047db0        0x0 ../FreeLwIP_bsp/\libfreertos_bsp.a(alt_dev.o)
 .bss           0x00047db0        0x0 ../FreeLwIP_bsp/\libfreertos_bsp.a(alt_do_ctors.o)
 .bss           0x00047db0        0x0 ../FreeLwIP_bsp/\libfreertos_bsp.a(alt_do_dtors.o)
 .bss           0x00047db0        0x0 ../FreeLwIP_bsp/\libfreertos_bsp.a(alt_fstat.o)
 .bss           0x00047db0        0x0 ../FreeLwIP_bsp/\libfreertos_bsp.a(alt_io_redirect.o)
 .bss           0x00047db0        0x0 ../FreeLwIP_bsp/\libfreertos_bsp.a(alt_isatty.o)
 .bss           0x00047db0        0x0 ../FreeLwIP_bsp/\libfreertos_bsp.a(alt_load.o)
 .bss           0x00047db0        0x0 ../FreeLwIP_bsp/\libfreertos_bsp.a(alt_lseek.o)
 .bss           0x00047db0        0x0 ../FreeLwIP_bsp/\libfreertos_bsp.a(alt_open.o)
 .bss           0x00047db0        0x0 ../FreeLwIP_bsp/\libfreertos_bsp.a(alt_release_fd.o)
 .bss           0x00047db0        0x0 ../FreeLwIP_bsp/\libfreertos_bsp.a(alt_sbrk.o)
 .bss           0x00047db0        0x0 ../FreeLwIP_bsp/\libfreertos_bsp.a(alt_usleep.o)
 .bss           0x00047db0        0x0 ../FreeLwIP_bsp/\libfreertos_bsp.a(api_lib.o)
 .bss           0x00047db0        0x0 ../FreeLwIP_bsp/\libfreertos_bsp.a(api_msg.o)
 .bss           0x00047db0        0x0 ../FreeLwIP_bsp/\libfreertos_bsp.a(netbuf.o)
 .bss           0x00047db0      0x3f0 ../FreeLwIP_bsp/\libfreertos_bsp.a(sockets.o)
 .bss           0x000481a0        0x0 ../FreeLwIP_bsp/\libfreertos_bsp.a(tcpip.o)
 .bss           0x000481a0        0x0 ../FreeLwIP_bsp/\libfreertos_bsp.a(alt_lwip_close.o)
 .bss           0x000481a0        0x0 ../FreeLwIP_bsp/\libfreertos_bsp.a(alt_lwip_read.o)
 .bss           0x000481a0        0x0 ../FreeLwIP_bsp/\libfreertos_bsp.a(alt_lwip_write.o)
 .bss           0x000481a0        0x0 ../FreeLwIP_bsp/\libfreertos_bsp.a(lwip_main.o)
 .bss           0x000481a0        0x0 ../FreeLwIP_bsp/\libfreertos_bsp.a(lwip_tse_mac.o)
 .bss           0x000481a0        0x0 ../FreeLwIP_bsp/\libfreertos_bsp.a(sys_arch.o)
 .bss           0x000481a0        0x0 ../FreeLwIP_bsp/\libfreertos_bsp.a(dhcp.o)
 .bss           0x000481a0        0x0 ../FreeLwIP_bsp/\libfreertos_bsp.a(init.o)
 .bss           0x000481a0        0x0 ../FreeLwIP_bsp/\libfreertos_bsp.a(ip.o)
 .bss           0x000481a0       0x10 ../FreeLwIP_bsp/\libfreertos_bsp.a(ip_addr.o)
 .bss           0x000481b0        0x0 ../FreeLwIP_bsp/\libfreertos_bsp.a(ip_frag.o)
 .bss           0x000481b0        0x0 ../FreeLwIP_bsp/\libfreertos_bsp.a(mem.o)
 .bss           0x000481b0    0x1a1ac ../FreeLwIP_bsp/\libfreertos_bsp.a(memp.o)
 .bss           0x0006235c        0x0 ../FreeLwIP_bsp/\libfreertos_bsp.a(netif.o)
 .bss           0x0006235c        0x0 ../FreeLwIP_bsp/\libfreertos_bsp.a(pbuf.o)
 .bss           0x0006235c        0x0 ../FreeLwIP_bsp/\libfreertos_bsp.a(raw.o)
 .bss           0x0006235c        0x0 ../FreeLwIP_bsp/\libfreertos_bsp.a(stats.o)
 .bss           0x0006235c        0x0 ../FreeLwIP_bsp/\libfreertos_bsp.a(tcp.o)
 .bss           0x0006235c       0x14 ../FreeLwIP_bsp/\libfreertos_bsp.a(tcp_in.o)
 .bss           0x00062370        0x0 ../FreeLwIP_bsp/\libfreertos_bsp.a(tcp_out.o)
 .bss           0x00062370        0x0 ../FreeLwIP_bsp/\libfreertos_bsp.a(timers.o)
 .bss           0x00062370        0x0 ../FreeLwIP_bsp/\libfreertos_bsp.a(udp.o)
 .bss           0x00062370      0x1f4 ../FreeLwIP_bsp/\libfreertos_bsp.a(etharp.o)
 .bss           0x00062564        0x0 ../FreeLwIP_bsp/\libfreertos_bsp.a(alt_sys_init.o)
 .bss           0x00062564        0x0 ../FreeLwIP_bsp/\libfreertos_bsp.a(altera_avalon_cfi_flash.o)
 .bss           0x00062564        0x0 ../FreeLwIP_bsp/\libfreertos_bsp.a(altera_avalon_cfi_flash_table.o)
 .bss           0x00062564        0x0 ../FreeLwIP_bsp/\libfreertos_bsp.a(altera_avalon_jtag_uart_fd.o)
 .bss           0x00062564        0x0 ../FreeLwIP_bsp/\libfreertos_bsp.a(altera_avalon_jtag_uart_init.o)
 .bss           0x00062564        0x0 ../FreeLwIP_bsp/\libfreertos_bsp.a(altera_avalon_jtag_uart_ioctl.o)
 .bss           0x00062564        0x0 ../FreeLwIP_bsp/\libfreertos_bsp.a(altera_avalon_jtag_uart_read.o)
 .bss           0x00062564        0x0 ../FreeLwIP_bsp/\libfreertos_bsp.a(altera_avalon_jtag_uart_write.o)
 .bss           0x00062564        0x0 ../FreeLwIP_bsp/\libfreertos_bsp.a(altera_avalon_lcd_16207.o)
 .bss           0x00062564        0x0 ../FreeLwIP_bsp/\libfreertos_bsp.a(altera_avalon_lcd_16207_fd.o)
 .bss           0x00062564        0x0 ../FreeLwIP_bsp/\libfreertos_bsp.a(altera_avalon_sgdma.o)
 .bss           0x00062564        0x0 ../FreeLwIP_bsp/\libfreertos_bsp.a(altera_avalon_timer_sc.o)
 .bss           0x00062564        0x0 ../FreeLwIP_bsp/\libfreertos_bsp.a(altera_avalon_tse.o)
 .bss           0x00062564        0x0 ../FreeLwIP_bsp/\libfreertos_bsp.a(altera_avalon_tse_system_info.o)
 .bss           0x00062564        0x0 ../FreeLwIP_bsp/\libfreertos_bsp.a(altera_avalon_uart_fd.o)
 .bss           0x00062564        0x0 ../FreeLwIP_bsp/\libfreertos_bsp.a(altera_avalon_uart_init.o)
 .bss           0x00062564        0x0 ../FreeLwIP_bsp/\libfreertos_bsp.a(altera_avalon_uart_read.o)
 .bss           0x00062564        0x0 ../FreeLwIP_bsp/\libfreertos_bsp.a(altera_avalon_uart_write.o)
 .bss           0x00062564        0x0 ../FreeLwIP_bsp/\libfreertos_bsp.a(altera_vic_0_vector_tbl.o)
 .bss           0x00062564        0x0 ../FreeLwIP_bsp/\libfreertos_bsp.a(altera_vic_funnel_non_preemptive.o)
 .bss           0x00062564        0x0 ../FreeLwIP_bsp/\libfreertos_bsp.a(altera_vic_irq_init.o)
 .bss           0x00062564        0x0 ../FreeLwIP_bsp/\libfreertos_bsp.a(altera_vic_isr_register.o)
 .bss           0x00062564        0x0 ../FreeLwIP_bsp/\libfreertos_bsp.a(alt_env_lock.o)
 .bss           0x00062564        0x0 ../FreeLwIP_bsp/\libfreertos_bsp.a(list.o)
 .bss           0x00062564        0x0 ../FreeLwIP_bsp/\libfreertos_bsp.a(port.o)
 .bss           0x00062564        0x0 ../FreeLwIP_bsp/\libfreertos_bsp.a(port_asm.o)
 .bss           0x00062564        0x0 ../FreeLwIP_bsp/\libfreertos_bsp.a(alt_alarm_start.o)
 .bss           0x00062564        0x0 ../FreeLwIP_bsp/\libfreertos_bsp.a(alt_busy_sleep.o)
 .bss           0x00062564        0x0 ../FreeLwIP_bsp/\libfreertos_bsp.a(alt_close.o)
 .bss           0x00062564        0x0 ../FreeLwIP_bsp/\libfreertos_bsp.a(alt_dcache_flush.o)
 .bss           0x00062564        0x0 ../FreeLwIP_bsp/\libfreertos_bsp.a(alt_dcache_flush_all.o)
 .bss           0x00062564        0x0 ../FreeLwIP_bsp/\libfreertos_bsp.a(alt_dev_llist_insert.o)
 .bss           0x00062564        0x0 ../FreeLwIP_bsp/\libfreertos_bsp.a(alt_errno.o)
 .bss           0x00062564        0x0 ../FreeLwIP_bsp/\libfreertos_bsp.a(alt_find_dev.o)
 .bss           0x00062564        0x0 ../FreeLwIP_bsp/\libfreertos_bsp.a(alt_find_file.o)
 .bss           0x00062564        0x0 ../FreeLwIP_bsp/\libfreertos_bsp.a(alt_flash_dev.o)
 .bss           0x00062564        0x0 ../FreeLwIP_bsp/\libfreertos_bsp.a(alt_get_fd.o)
 .bss           0x00062564        0x0 ../FreeLwIP_bsp/\libfreertos_bsp.a(alt_gettod.o)
 .bss           0x00062564        0x0 ../FreeLwIP_bsp/\libfreertos_bsp.a(alt_icache_flush_all.o)
 .bss           0x00062564        0x0 ../FreeLwIP_bsp/\libfreertos_bsp.a(alt_instruction_exception_entry.o)
 .bss           0x00062564        0x0 ../FreeLwIP_bsp/\libfreertos_bsp.a(alt_read.o)
 .bss           0x00062564        0x0 ../FreeLwIP_bsp/\libfreertos_bsp.a(alt_remap_uncached.o)
 .bss           0x00062564        0x0 ../FreeLwIP_bsp/\libfreertos_bsp.a(alt_tick.o)
 .bss           0x00062564        0x0 ../FreeLwIP_bsp/\libfreertos_bsp.a(alt_uncached_malloc.o)
 .bss           0x00062564        0x0 ../FreeLwIP_bsp/\libfreertos_bsp.a(alt_write.o)
 .bss           0x00062564        0x0 ../FreeLwIP_bsp/\libfreertos_bsp.a(altera_tse_ethernetif.o)
 .bss           0x00062564        0x0 ../FreeLwIP_bsp/\libfreertos_bsp.a(icmp.o)
 .bss           0x00062564        0x0 ../FreeLwIP_bsp/\libfreertos_bsp.a(inet_chksum.o)
 .bss           0x00062564        0x0 ../FreeLwIP_bsp/\libfreertos_bsp.a(altera_avalon_cfi_flash_amd.o)
 .bss           0x00062564        0x0 ../FreeLwIP_bsp/\libfreertos_bsp.a(altera_avalon_cfi_flash_intel.o)
 .bss           0x00062564        0x0 ../FreeLwIP_bsp/\libfreertos_bsp.a(alt_icache_flush.o)
 .bss           0x00062564        0x0 c:/altera/13.1/nios2eds/bin/gnu/h-i686-mingw32/bin/../lib/gcc/nios2-elf/4.7.3/../../../../../H-i686-mingw32/nios2-elf/lib\libc.a(lib_a-atexit.o)
 .bss           0x00062564        0x0 c:/altera/13.1/nios2eds/bin/gnu/h-i686-mingw32/bin/../lib/gcc/nios2-elf/4.7.3/../../../../../H-i686-mingw32/nios2-elf/lib\libc.a(lib_a-ctype_.o)
 .bss           0x00062564        0x0 c:/altera/13.1/nios2eds/bin/gnu/h-i686-mingw32/bin/../lib/gcc/nios2-elf/4.7.3/../../../../../H-i686-mingw32/nios2-elf/lib\libc.a(lib_a-errno.o)
 .bss           0x00062564        0x0 c:/altera/13.1/nios2eds/bin/gnu/h-i686-mingw32/bin/../lib/gcc/nios2-elf/4.7.3/../../../../../H-i686-mingw32/nios2-elf/lib\libc.a(lib_a-exit.o)
 .bss           0x00062564        0x0 c:/altera/13.1/nios2eds/bin/gnu/h-i686-mingw32/bin/../lib/gcc/nios2-elf/4.7.3/../../../../../H-i686-mingw32/nios2-elf/lib\libc.a(lib_a-malloc.o)
 .bss           0x00062564        0x0 c:/altera/13.1/nios2eds/bin/gnu/h-i686-mingw32/bin/../lib/gcc/nios2-elf/4.7.3/../../../../../H-i686-mingw32/nios2-elf/lib\libc.a(lib_a-memcmp.o)
 .bss           0x00062564        0x0 c:/altera/13.1/nios2eds/bin/gnu/h-i686-mingw32/bin/../lib/gcc/nios2-elf/4.7.3/../../../../../H-i686-mingw32/nios2-elf/lib\libc.a(lib_a-snprintf.o)
 .bss           0x00062564        0x0 c:/altera/13.1/nios2eds/bin/gnu/h-i686-mingw32/bin/../lib/gcc/nios2-elf/4.7.3/../../../../../H-i686-mingw32/nios2-elf/lib\libc.a(lib_a-strncpy.o)
 .bss           0x00062564        0x0 c:/altera/13.1/nios2eds/bin/gnu/h-i686-mingw32/bin/../lib/gcc/nios2-elf/4.7.3/../../../../../H-i686-mingw32/nios2-elf/lib\libc.a(lib_a-__atexit.o)
 .bss           0x00062564        0x0 c:/altera/13.1/nios2eds/bin/gnu/h-i686-mingw32/bin/../lib/gcc/nios2-elf/4.7.3/../../../../../H-i686-mingw32/nios2-elf/lib\libc.a(lib_a-__call_atexit.o)
 .bss           0x00062564        0x0 ../FreeLwIP_bsp/\libfreertos_bsp.a(alt_exit.o)
 *(COMMON)
 COMMON         0x00062564      0xc0b obj/default/BasicWEB.o
                0x00062564                cDynamicPage
                0x00063164                cPageHits
 *fill*         0x0006316f        0x1 
 COMMON         0x00063170       0x34 ../FreeLwIP_bsp/\libfreertos_bsp.a(dhcp.o)
                0x00063170                dhcp_rx_options_given
                0x0006317c                dhcp_rx_options_val
 COMMON         0x000631a4     0x8014 ../FreeLwIP_bsp/\libfreertos_bsp.a(mem.o)
                0x000631a4                ram_heap
 COMMON         0x0006b1b8      0x274 ../FreeLwIP_bsp/\libfreertos_bsp.a(stats.o)
                0x0006b1b8                lwip_stats
 COMMON         0x0006b42c       0x40 ../FreeLwIP_bsp/\libfreertos_bsp.a(altera_avalon_tse.o)
                0x0006b42c                pmac_groups
                0x0006b44c                pphy_profiles
 COMMON         0x0006b46c      0x190 c:/altera/13.1/nios2eds/bin/gnu/h-i686-mingw32/bin/../lib/gcc/nios2-elf/4.7.3/../../../../../H-i686-mingw32/nios2-elf/lib\libc.a(lib_a-atexit.o)
                0x0006b46c                _atexit0
                0x0006b5fc                . = ALIGN (0x4)
                0x0006b5fc                __bss_end = ABSOLUTE (.)

.sdram          0x0006b5fc        0x0
                0x0006b5fc                PROVIDE (_alt_partition_sdram_start, ABSOLUTE (.))
 *(.sdram .sdram. sdram.*)
                0x0006b5fc                . = ALIGN (0x4)
                0x0006b5fc                PROVIDE (_alt_partition_sdram_end, ABSOLUTE (.))
                0x0006b5fc                _end = ABSOLUTE (.)
                0x0006b5fc                end = ABSOLUTE (.)
                0x0006b5fc                __alt_stack_base = ABSOLUTE (.)
                0x0006b5fc                PROVIDE (_alt_partition_sdram_load_addr, LOADADDR (.sdram))

.descriptor_memory
                0x02001000        0x0 load address 0x0006b5fc
                0x02001000                PROVIDE (_alt_partition_descriptor_memory_start, ABSOLUTE (.))
 *(.descriptor_memory .descriptor_memory. descriptor_memory.*)
                0x02001000                . = ALIGN (0x4)
                0x02001000                PROVIDE (_alt_partition_descriptor_memory_end, ABSOLUTE (.))
                0x0006b5fc                PROVIDE (_alt_partition_descriptor_memory_load_addr, LOADADDR (.descriptor_memory))

.cfi_flash      0x04000000        0x0 load address 0x0006b5fc
                0x04000000                PROVIDE (_alt_partition_cfi_flash_start, ABSOLUTE (.))
 *(.cfi_flash .cfi_flash. cfi_flash.*)
                0x04000000                . = ALIGN (0x4)
                0x04000000                PROVIDE (_alt_partition_cfi_flash_end, ABSOLUTE (.))
                0x0006b5fc                PROVIDE (_alt_partition_cfi_flash_load_addr, LOADADDR (.cfi_flash))

.sram           0x05000020        0x0 load address 0x0006b5fc
                0x05000020                PROVIDE (_alt_partition_sram_start, ABSOLUTE (.))
 *(.sram .sram. sram.*)
                0x05000020                . = ALIGN (0x4)
                0x05000020                PROVIDE (_alt_partition_sram_end, ABSOLUTE (.))
                0x0006b5fc                PROVIDE (_alt_partition_sram_load_addr, LOADADDR (.sram))

.onchip_memory2
                0x0a000000        0x0 load address 0x0006b5fc
                0x0a000000                PROVIDE (_alt_partition_onchip_memory2_start, ABSOLUTE (.))
 *(.onchip_memory2 .onchip_memory2. onchip_memory2.*)
                0x0a000000                . = ALIGN (0x4)
                0x0a000000                PROVIDE (_alt_partition_onchip_memory2_end, ABSOLUTE (.))
                0x0006b5fc                PROVIDE (_alt_partition_onchip_memory2_load_addr, LOADADDR (.onchip_memory2))

.stab
 *(.stab)

.stabstr
 *(.stabstr)

.stab.excl
 *(.stab.excl)

.stab.exclstr
 *(.stab.exclstr)

.stab.index
 *(.stab.index)

.stab.indexstr
 *(.stab.indexstr)

.comment        0x00000000       0x23
 *(.comment)
 .comment       0x00000000       0x23 obj/default/BasicWEB.o
                                 0x24 (size before relaxing)
 .comment       0x00000000       0x24 obj/default/BlockQ.o
 .comment       0x00000000       0x24 obj/default/GenQTest.o
 .comment       0x00000000       0x24 obj/default/PollQ.o
 .comment       0x00000000       0x24 obj/default/QPeek.o
 .comment       0x00000000       0x24 obj/default/blocktim.o
 .comment       0x00000000       0x24 obj/default/countsem.o
 .comment       0x00000000       0x24 obj/default/death.o
 .comment       0x00000000       0x24 obj/default/dynamic.o
 .comment       0x00000000       0x24 obj/default/echo_server.o
 .comment       0x00000000       0x24 obj/default/ethernet.o
 .comment       0x00000000       0x24 obj/default/integer.o
 .comment       0x00000000       0x24 obj/default/main.o
 .comment       0x00000000       0x24 obj/default/recmutex.o
 .comment       0x00000000       0x24 obj/default/semtest.o
 .comment       0x00000000       0x24 c:/altera/13.1/nios2eds/bin/gnu/h-i686-mingw32/bin/../lib/gcc/nios2-elf/4.7.3/../../../../../H-i686-mingw32/nios2-elf/lib\libc.a(lib_a-memcpy.o)
 .comment       0x00000000       0x24 c:/altera/13.1/nios2eds/bin/gnu/h-i686-mingw32/bin/../lib/gcc/nios2-elf/4.7.3/../../../../../H-i686-mingw32/nios2-elf/lib\libc.a(lib_a-memset.o)
 .comment       0x00000000       0x24 c:/altera/13.1/nios2eds/bin/gnu/h-i686-mingw32/bin/../lib/gcc/nios2-elf/4.7.3/../../../../../H-i686-mingw32/nios2-elf/lib\libc.a(lib_a-perror.o)
 .comment       0x00000000       0x24 c:/altera/13.1/nios2eds/bin/gnu/h-i686-mingw32/bin/../lib/gcc/nios2-elf/4.7.3/../../../../../H-i686-mingw32/nios2-elf/lib\libc.a(lib_a-printf.o)
 .comment       0x00000000       0x24 c:/altera/13.1/nios2eds/bin/gnu/h-i686-mingw32/bin/../lib/gcc/nios2-elf/4.7.3/../../../../../H-i686-mingw32/nios2-elf/lib\libc.a(lib_a-puts.o)
 .comment       0x00000000       0x24 c:/altera/13.1/nios2eds/bin/gnu/h-i686-mingw32/bin/../lib/gcc/nios2-elf/4.7.3/../../../../../H-i686-mingw32/nios2-elf/lib\libc.a(lib_a-sprintf.o)
 .comment       0x00000000       0x24 c:/altera/13.1/nios2eds/bin/gnu/h-i686-mingw32/bin/../lib/gcc/nios2-elf/4.7.3/../../../../../H-i686-mingw32/nios2-elf/lib\libc.a(lib_a-strcat.o)
 .comment       0x00000000       0x24 c:/altera/13.1/nios2eds/bin/gnu/h-i686-mingw32/bin/../lib/gcc/nios2-elf/4.7.3/../../../../../H-i686-mingw32/nios2-elf/lib\libc.a(lib_a-strcpy.o)
 .comment       0x00000000       0x24 c:/altera/13.1/nios2eds/bin/gnu/h-i686-mingw32/bin/../lib/gcc/nios2-elf/4.7.3/../../../../../H-i686-mingw32/nios2-elf/lib\libc.a(lib_a-strerror.o)
 .comment       0x00000000       0x24 c:/altera/13.1/nios2eds/bin/gnu/h-i686-mingw32/bin/../lib/gcc/nios2-elf/4.7.3/../../../../../H-i686-mingw32/nios2-elf/lib\libc.a(lib_a-strlen.o)
 .comment       0x00000000       0x24 c:/altera/13.1/nios2eds/bin/gnu/h-i686-mingw32/bin/../lib/gcc/nios2-elf/4.7.3/../../../../../H-i686-mingw32/nios2-elf/lib\libc.a(lib_a-strncmp.o)
 .comment       0x00000000       0x24 c:/altera/13.1/nios2eds/bin/gnu/h-i686-mingw32/bin/../lib/gcc/nios2-elf/4.7.3/../../../../../H-i686-mingw32/nios2-elf/lib\libc.a(lib_a-u_strerr.o)
 .comment       0x00000000       0x24 c:/altera/13.1/nios2eds/bin/gnu/h-i686-mingw32/bin/../lib/gcc/nios2-elf/4.7.3/../../../../../H-i686-mingw32/nios2-elf/lib\libc.a(lib_a-vfprintf.o)
 .comment       0x00000000       0x24 c:/altera/13.1/nios2eds/bin/gnu/h-i686-mingw32/bin/../lib/gcc/nios2-elf/4.7.3/../../../../../H-i686-mingw32/nios2-elf/lib\libc.a(lib_a-wsetup.o)
 .comment       0x00000000       0x24 c:/altera/13.1/nios2eds/bin/gnu/h-i686-mingw32/bin/../lib/gcc/nios2-elf/4.7.3/../../../../../H-i686-mingw32/nios2-elf/lib\libc.a(lib_a-dtoa.o)
 .comment       0x00000000       0x24 c:/altera/13.1/nios2eds/bin/gnu/h-i686-mingw32/bin/../lib/gcc/nios2-elf/4.7.3/../../../../../H-i686-mingw32/nios2-elf/lib\libc.a(lib_a-fflush.o)
 .comment       0x00000000       0x24 c:/altera/13.1/nios2eds/bin/gnu/h-i686-mingw32/bin/../lib/gcc/nios2-elf/4.7.3/../../../../../H-i686-mingw32/nios2-elf/lib\libc.a(lib_a-findfp.o)
 .comment       0x00000000       0x24 c:/altera/13.1/nios2eds/bin/gnu/h-i686-mingw32/bin/../lib/gcc/nios2-elf/4.7.3/../../../../../H-i686-mingw32/nios2-elf/lib\libc.a(lib_a-fputc.o)
 .comment       0x00000000       0x24 c:/altera/13.1/nios2eds/bin/gnu/h-i686-mingw32/bin/../lib/gcc/nios2-elf/4.7.3/../../../../../H-i686-mingw32/nios2-elf/lib\libc.a(lib_a-fputs.o)
 .comment       0x00000000       0x24 c:/altera/13.1/nios2eds/bin/gnu/h-i686-mingw32/bin/../lib/gcc/nios2-elf/4.7.3/../../../../../H-i686-mingw32/nios2-elf/lib\libc.a(lib_a-freer.o)
 .comment       0x00000000       0x24 c:/altera/13.1/nios2eds/bin/gnu/h-i686-mingw32/bin/../lib/gcc/nios2-elf/4.7.3/../../../../../H-i686-mingw32/nios2-elf/lib\libc.a(lib_a-fvwrite.o)
 .comment       0x00000000       0x24 c:/altera/13.1/nios2eds/bin/gnu/h-i686-mingw32/bin/../lib/gcc/nios2-elf/4.7.3/../../../../../H-i686-mingw32/nios2-elf/lib\libc.a(lib_a-fwalk.o)
 .comment       0x00000000       0x24 c:/altera/13.1/nios2eds/bin/gnu/h-i686-mingw32/bin/../lib/gcc/nios2-elf/4.7.3/../../../../../H-i686-mingw32/nios2-elf/lib\libc.a(lib_a-impure.o)
 .comment       0x00000000       0x24 c:/altera/13.1/nios2eds/bin/gnu/h-i686-mingw32/bin/../lib/gcc/nios2-elf/4.7.3/../../../../../H-i686-mingw32/nios2-elf/lib\libc.a(lib_a-locale.o)
 .comment       0x00000000       0x24 c:/altera/13.1/nios2eds/bin/gnu/h-i686-mingw32/bin/../lib/gcc/nios2-elf/4.7.3/../../../../../H-i686-mingw32/nios2-elf/lib\libc.a(lib_a-makebuf.o)
 .comment       0x00000000       0x24 c:/altera/13.1/nios2eds/bin/gnu/h-i686-mingw32/bin/../lib/gcc/nios2-elf/4.7.3/../../../../../H-i686-mingw32/nios2-elf/lib\libc.a(lib_a-mallocr.o)
 .comment       0x00000000       0x24 c:/altera/13.1/nios2eds/bin/gnu/h-i686-mingw32/bin/../lib/gcc/nios2-elf/4.7.3/../../../../../H-i686-mingw32/nios2-elf/lib\libc.a(lib_a-memchr.o)
 .comment       0x00000000       0x24 c:/altera/13.1/nios2eds/bin/gnu/h-i686-mingw32/bin/../lib/gcc/nios2-elf/4.7.3/../../../../../H-i686-mingw32/nios2-elf/lib\libc.a(lib_a-memmove.o)
 .comment       0x00000000       0x24 c:/altera/13.1/nios2eds/bin/gnu/h-i686-mingw32/bin/../lib/gcc/nios2-elf/4.7.3/../../../../../H-i686-mingw32/nios2-elf/lib\libc.a(lib_a-mprec.o)
 .comment       0x00000000       0x24 c:/altera/13.1/nios2eds/bin/gnu/h-i686-mingw32/bin/../lib/gcc/nios2-elf/4.7.3/../../../../../H-i686-mingw32/nios2-elf/lib\libc.a(lib_a-putc.o)
 .comment       0x00000000       0x24 c:/altera/13.1/nios2eds/bin/gnu/h-i686-mingw32/bin/../lib/gcc/nios2-elf/4.7.3/../../../../../H-i686-mingw32/nios2-elf/lib\libc.a(lib_a-reallocr.o)
 .comment       0x00000000       0x24 c:/altera/13.1/nios2eds/bin/gnu/h-i686-mingw32/bin/../lib/gcc/nios2-elf/4.7.3/../../../../../H-i686-mingw32/nios2-elf/lib\libc.a(lib_a-s_isinfd.o)
 .comment       0x00000000       0x24 c:/altera/13.1/nios2eds/bin/gnu/h-i686-mingw32/bin/../lib/gcc/nios2-elf/4.7.3/../../../../../H-i686-mingw32/nios2-elf/lib\libc.a(lib_a-s_isnand.o)
 .comment       0x00000000       0x24 c:/altera/13.1/nios2eds/bin/gnu/h-i686-mingw32/bin/../lib/gcc/nios2-elf/4.7.3/../../../../../H-i686-mingw32/nios2-elf/lib\libc.a(lib_a-sbrkr.o)
 .comment       0x00000000       0x24 c:/altera/13.1/nios2eds/bin/gnu/h-i686-mingw32/bin/../lib/gcc/nios2-elf/4.7.3/../../../../../H-i686-mingw32/nios2-elf/lib\libc.a(lib_a-stdio.o)
 .comment       0x00000000       0x24 c:/altera/13.1/nios2eds/bin/gnu/h-i686-mingw32/bin/../lib/gcc/nios2-elf/4.7.3/../../../../../H-i686-mingw32/nios2-elf/lib\libc.a(lib_a-strcmp.o)
 .comment       0x00000000       0x24 c:/altera/13.1/nios2eds/bin/gnu/h-i686-mingw32/bin/../lib/gcc/nios2-elf/4.7.3/../../../../../H-i686-mingw32/nios2-elf/lib\libc.a(lib_a-wbuf.o)
 .comment       0x00000000       0x24 c:/altera/13.1/nios2eds/bin/gnu/h-i686-mingw32/bin/../lib/gcc/nios2-elf/4.7.3/../../../../../H-i686-mingw32/nios2-elf/lib\libc.a(lib_a-writer.o)
 .comment       0x00000000       0x24 c:/altera/13.1/nios2eds/bin/gnu/h-i686-mingw32/bin/../lib/gcc/nios2-elf/4.7.3/../../../../../H-i686-mingw32/nios2-elf/lib\libc.a(lib_a-callocr.o)
 .comment       0x00000000       0x24 c:/altera/13.1/nios2eds/bin/gnu/h-i686-mingw32/bin/../lib/gcc/nios2-elf/4.7.3/../../../../../H-i686-mingw32/nios2-elf/lib\libc.a(lib_a-closer.o)
 .comment       0x00000000       0x24 c:/altera/13.1/nios2eds/bin/gnu/h-i686-mingw32/bin/../lib/gcc/nios2-elf/4.7.3/../../../../../H-i686-mingw32/nios2-elf/lib\libc.a(lib_a-fclose.o)
 .comment       0x00000000       0x24 c:/altera/13.1/nios2eds/bin/gnu/h-i686-mingw32/bin/../lib/gcc/nios2-elf/4.7.3/../../../../../H-i686-mingw32/nios2-elf/lib\libc.a(lib_a-fstatr.o)
 .comment       0x00000000       0x24 c:/altera/13.1/nios2eds/bin/gnu/h-i686-mingw32/bin/../lib/gcc/nios2-elf/4.7.3/../../../../../H-i686-mingw32/nios2-elf/lib\libc.a(lib_a-int_errno.o)
 .comment       0x00000000       0x24 c:/altera/13.1/nios2eds/bin/gnu/h-i686-mingw32/bin/../lib/gcc/nios2-elf/4.7.3/../../../../../H-i686-mingw32/nios2-elf/lib\libc.a(lib_a-isattyr.o)
 .comment       0x00000000       0x24 c:/altera/13.1/nios2eds/bin/gnu/h-i686-mingw32/bin/../lib/gcc/nios2-elf/4.7.3/../../../../../H-i686-mingw32/nios2-elf/lib\libc.a(lib_a-lseekr.o)
 .comment       0x00000000       0x24 c:/altera/13.1/nios2eds/bin/gnu/h-i686-mingw32/bin/../lib/gcc/nios2-elf/4.7.3/../../../../../H-i686-mingw32/nios2-elf/lib\libc.a(lib_a-readr.o)
 .comment       0x00000000       0x24 c:/altera/13.1/nios2eds/bin/gnu/h-i686-mingw32/bin/../lib/gcc/nios2-elf/4.7.3\libgcc.a(_udivdi3.o)
 .comment       0x00000000       0x24 c:/altera/13.1/nios2eds/bin/gnu/h-i686-mingw32/bin/../lib/gcc/nios2-elf/4.7.3\libgcc.a(_umoddi3.o)
 .comment       0x00000000       0x24 c:/altera/13.1/nios2eds/bin/gnu/h-i686-mingw32/bin/../lib/gcc/nios2-elf/4.7.3\libgcc.a(_addsub_df.o)
 .comment       0x00000000       0x24 c:/altera/13.1/nios2eds/bin/gnu/h-i686-mingw32/bin/../lib/gcc/nios2-elf/4.7.3\libgcc.a(_mul_df.o)
 .comment       0x00000000       0x24 c:/altera/13.1/nios2eds/bin/gnu/h-i686-mingw32/bin/../lib/gcc/nios2-elf/4.7.3\libgcc.a(_div_df.o)
 .comment       0x00000000       0x24 c:/altera/13.1/nios2eds/bin/gnu/h-i686-mingw32/bin/../lib/gcc/nios2-elf/4.7.3\libgcc.a(_eq_df.o)
 .comment       0x00000000       0x24 c:/altera/13.1/nios2eds/bin/gnu/h-i686-mingw32/bin/../lib/gcc/nios2-elf/4.7.3\libgcc.a(_ne_df.o)
 .comment       0x00000000       0x24 c:/altera/13.1/nios2eds/bin/gnu/h-i686-mingw32/bin/../lib/gcc/nios2-elf/4.7.3\libgcc.a(_gt_df.o)
 .comment       0x00000000       0x24 c:/altera/13.1/nios2eds/bin/gnu/h-i686-mingw32/bin/../lib/gcc/nios2-elf/4.7.3\libgcc.a(_ge_df.o)
 .comment       0x00000000       0x24 c:/altera/13.1/nios2eds/bin/gnu/h-i686-mingw32/bin/../lib/gcc/nios2-elf/4.7.3\libgcc.a(_lt_df.o)
 .comment       0x00000000       0x24 c:/altera/13.1/nios2eds/bin/gnu/h-i686-mingw32/bin/../lib/gcc/nios2-elf/4.7.3\libgcc.a(_si_to_df.o)
 .comment       0x00000000       0x24 c:/altera/13.1/nios2eds/bin/gnu/h-i686-mingw32/bin/../lib/gcc/nios2-elf/4.7.3\libgcc.a(_df_to_si.o)
 .comment       0x00000000       0x24 c:/altera/13.1/nios2eds/bin/gnu/h-i686-mingw32/bin/../lib/gcc/nios2-elf/4.7.3\libgcc.a(_thenan_df.o)
 .comment       0x00000000       0x24 c:/altera/13.1/nios2eds/bin/gnu/h-i686-mingw32/bin/../lib/gcc/nios2-elf/4.7.3\libgcc.a(_usi_to_df.o)
 .comment       0x00000000       0x24 c:/altera/13.1/nios2eds/bin/gnu/h-i686-mingw32/bin/../lib/gcc/nios2-elf/4.7.3\libgcc.a(lib2-divmod.o)
 .comment       0x00000000       0x24 c:/altera/13.1/nios2eds/bin/gnu/h-i686-mingw32/bin/../lib/gcc/nios2-elf/4.7.3\libgcc.a(_muldi3.o)
 .comment       0x00000000       0x24 c:/altera/13.1/nios2eds/bin/gnu/h-i686-mingw32/bin/../lib/gcc/nios2-elf/4.7.3\libgcc.a(_clz.o)
 .comment       0x00000000       0x24 c:/altera/13.1/nios2eds/bin/gnu/h-i686-mingw32/bin/../lib/gcc/nios2-elf/4.7.3\libgcc.a(_clzsi2.o)
 .comment       0x00000000       0x24 c:/altera/13.1/nios2eds/bin/gnu/h-i686-mingw32/bin/../lib/gcc/nios2-elf/4.7.3\libgcc.a(_pack_df.o)
 .comment       0x00000000       0x24 c:/altera/13.1/nios2eds/bin/gnu/h-i686-mingw32/bin/../lib/gcc/nios2-elf/4.7.3\libgcc.a(_unpack_df.o)
 .comment       0x00000000       0x24 c:/altera/13.1/nios2eds/bin/gnu/h-i686-mingw32/bin/../lib/gcc/nios2-elf/4.7.3\libgcc.a(_fpcmp_parts_df.o)
 .comment       0x00000000       0x24 c:/altera/13.1/nios2eds/bin/gnu/h-i686-mingw32/bin/../lib/gcc/nios2-elf/4.7.3\libgcc.a(_lshrdi3.o)
 .comment       0x00000000       0x24 c:/altera/13.1/nios2eds/bin/gnu/h-i686-mingw32/bin/../lib/gcc/nios2-elf/4.7.3\libgcc.a(_ashldi3.o)
 .comment       0x00000000       0x24 ../FreeLwIP_bsp/\libfreertos_bsp.a(alt_main.o)
 .comment       0x00000000       0x24 ../FreeLwIP_bsp/\libfreertos_bsp.a(alt_malloc_lock.o)
 .comment       0x00000000       0x24 ../FreeLwIP_bsp/\libfreertos_bsp.a(heap_3.o)
 .comment       0x00000000       0x24 ../FreeLwIP_bsp/\libfreertos_bsp.a(queue.o)
 .comment       0x00000000       0x24 ../FreeLwIP_bsp/\libfreertos_bsp.a(tasks.o)
 .comment       0x00000000       0x24 ../FreeLwIP_bsp/\libfreertos_bsp.a(timers.o)
 .comment       0x00000000       0x24 ../FreeLwIP_bsp/\libfreertos_bsp.a(alt_dev.o)
 .comment       0x00000000       0x24 ../FreeLwIP_bsp/\libfreertos_bsp.a(alt_do_ctors.o)
 .comment       0x00000000       0x24 ../FreeLwIP_bsp/\libfreertos_bsp.a(alt_do_dtors.o)
 .comment       0x00000000       0x24 ../FreeLwIP_bsp/\libfreertos_bsp.a(alt_fstat.o)
 .comment       0x00000000       0x24 ../FreeLwIP_bsp/\libfreertos_bsp.a(alt_io_redirect.o)
 .comment       0x00000000       0x24 ../FreeLwIP_bsp/\libfreertos_bsp.a(alt_isatty.o)
 .comment       0x00000000       0x24 ../FreeLwIP_bsp/\libfreertos_bsp.a(alt_load.o)
 .comment       0x00000000       0x24 ../FreeLwIP_bsp/\libfreertos_bsp.a(alt_lseek.o)
 .comment       0x00000000       0x24 ../FreeLwIP_bsp/\libfreertos_bsp.a(alt_open.o)
 .comment       0x00000000       0x24 ../FreeLwIP_bsp/\libfreertos_bsp.a(alt_release_fd.o)
 .comment       0x00000000       0x24 ../FreeLwIP_bsp/\libfreertos_bsp.a(alt_sbrk.o)
 .comment       0x00000000       0x24 ../FreeLwIP_bsp/\libfreertos_bsp.a(alt_usleep.o)
 .comment       0x00000000       0x24 ../FreeLwIP_bsp/\libfreertos_bsp.a(api_lib.o)
 .comment       0x00000000       0x24 ../FreeLwIP_bsp/\libfreertos_bsp.a(api_msg.o)
 .comment       0x00000000       0x24 ../FreeLwIP_bsp/\libfreertos_bsp.a(netbuf.o)
 .comment       0x00000000       0x24 ../FreeLwIP_bsp/\libfreertos_bsp.a(sockets.o)
 .comment       0x00000000       0x24 ../FreeLwIP_bsp/\libfreertos_bsp.a(tcpip.o)
 .comment       0x00000000       0x24 ../FreeLwIP_bsp/\libfreertos_bsp.a(alt_lwip_close.o)
 .comment       0x00000000       0x24 ../FreeLwIP_bsp/\libfreertos_bsp.a(alt_lwip_read.o)
 .comment       0x00000000       0x24 ../FreeLwIP_bsp/\libfreertos_bsp.a(alt_lwip_write.o)
 .comment       0x00000000       0x24 ../FreeLwIP_bsp/\libfreertos_bsp.a(lwip_main.o)
 .comment       0x00000000       0x24 ../FreeLwIP_bsp/\libfreertos_bsp.a(lwip_tse_mac.o)
 .comment       0x00000000       0x24 ../FreeLwIP_bsp/\libfreertos_bsp.a(sys_arch.o)
 .comment       0x00000000       0x24 ../FreeLwIP_bsp/\libfreertos_bsp.a(dhcp.o)
 .comment       0x00000000       0x24 ../FreeLwIP_bsp/\libfreertos_bsp.a(init.o)
 .comment       0x00000000       0x24 ../FreeLwIP_bsp/\libfreertos_bsp.a(ip.o)
 .comment       0x00000000       0x24 ../FreeLwIP_bsp/\libfreertos_bsp.a(ip_addr.o)
 .comment       0x00000000       0x24 ../FreeLwIP_bsp/\libfreertos_bsp.a(ip_frag.o)
 .comment       0x00000000       0x24 ../FreeLwIP_bsp/\libfreertos_bsp.a(mem.o)
 .comment       0x00000000       0x24 ../FreeLwIP_bsp/\libfreertos_bsp.a(memp.o)
 .comment       0x00000000       0x24 ../FreeLwIP_bsp/\libfreertos_bsp.a(netif.o)
 .comment       0x00000000       0x24 ../FreeLwIP_bsp/\libfreertos_bsp.a(pbuf.o)
 .comment       0x00000000       0x24 ../FreeLwIP_bsp/\libfreertos_bsp.a(raw.o)
 .comment       0x00000000       0x24 ../FreeLwIP_bsp/\libfreertos_bsp.a(stats.o)
 .comment       0x00000000       0x24 ../FreeLwIP_bsp/\libfreertos_bsp.a(tcp.o)
 .comment       0x00000000       0x24 ../FreeLwIP_bsp/\libfreertos_bsp.a(tcp_in.o)
 .comment       0x00000000       0x24 ../FreeLwIP_bsp/\libfreertos_bsp.a(tcp_out.o)
 .comment       0x00000000       0x24 ../FreeLwIP_bsp/\libfreertos_bsp.a(timers.o)
 .comment       0x00000000       0x24 ../FreeLwIP_bsp/\libfreertos_bsp.a(udp.o)
 .comment       0x00000000       0x24 ../FreeLwIP_bsp/\libfreertos_bsp.a(etharp.o)
 .comment       0x00000000       0x24 ../FreeLwIP_bsp/\libfreertos_bsp.a(alt_sys_init.o)
 .comment       0x00000000       0x24 ../FreeLwIP_bsp/\libfreertos_bsp.a(altera_avalon_cfi_flash.o)
 .comment       0x00000000       0x24 ../FreeLwIP_bsp/\libfreertos_bsp.a(altera_avalon_cfi_flash_table.o)
 .comment       0x00000000       0x24 ../FreeLwIP_bsp/\libfreertos_bsp.a(altera_avalon_jtag_uart_fd.o)
 .comment       0x00000000       0x24 ../FreeLwIP_bsp/\libfreertos_bsp.a(altera_avalon_jtag_uart_init.o)
 .comment       0x00000000       0x24 ../FreeLwIP_bsp/\libfreertos_bsp.a(altera_avalon_jtag_uart_ioctl.o)
 .comment       0x00000000       0x24 ../FreeLwIP_bsp/\libfreertos_bsp.a(altera_avalon_jtag_uart_read.o)
 .comment       0x00000000       0x24 ../FreeLwIP_bsp/\libfreertos_bsp.a(altera_avalon_jtag_uart_write.o)
 .comment       0x00000000       0x24 ../FreeLwIP_bsp/\libfreertos_bsp.a(altera_avalon_lcd_16207.o)
 .comment       0x00000000       0x24 ../FreeLwIP_bsp/\libfreertos_bsp.a(altera_avalon_lcd_16207_fd.o)
 .comment       0x00000000       0x24 ../FreeLwIP_bsp/\libfreertos_bsp.a(altera_avalon_sgdma.o)
 .comment       0x00000000       0x24 ../FreeLwIP_bsp/\libfreertos_bsp.a(altera_avalon_timer_sc.o)
 .comment       0x00000000       0x24 ../FreeLwIP_bsp/\libfreertos_bsp.a(altera_avalon_tse.o)
 .comment       0x00000000       0x24 ../FreeLwIP_bsp/\libfreertos_bsp.a(altera_avalon_tse_system_info.o)
 .comment       0x00000000       0x24 ../FreeLwIP_bsp/\libfreertos_bsp.a(altera_avalon_uart_fd.o)
 .comment       0x00000000       0x24 ../FreeLwIP_bsp/\libfreertos_bsp.a(altera_avalon_uart_init.o)
 .comment       0x00000000       0x24 ../FreeLwIP_bsp/\libfreertos_bsp.a(altera_avalon_uart_read.o)
 .comment       0x00000000       0x24 ../FreeLwIP_bsp/\libfreertos_bsp.a(altera_avalon_uart_write.o)
 .comment       0x00000000       0x24 ../FreeLwIP_bsp/\libfreertos_bsp.a(altera_vic_irq_init.o)
 .comment       0x00000000       0x24 ../FreeLwIP_bsp/\libfreertos_bsp.a(altera_vic_isr_register.o)
 .comment       0x00000000       0x24 ../FreeLwIP_bsp/\libfreertos_bsp.a(alt_env_lock.o)
 .comment       0x00000000       0x24 ../FreeLwIP_bsp/\libfreertos_bsp.a(list.o)
 .comment       0x00000000       0x24 ../FreeLwIP_bsp/\libfreertos_bsp.a(port.o)
 .comment       0x00000000       0x24 ../FreeLwIP_bsp/\libfreertos_bsp.a(alt_alarm_start.o)
 .comment       0x00000000       0x24 ../FreeLwIP_bsp/\libfreertos_bsp.a(alt_busy_sleep.o)
 .comment       0x00000000       0x24 ../FreeLwIP_bsp/\libfreertos_bsp.a(alt_close.o)
 .comment       0x00000000       0x24 ../FreeLwIP_bsp/\libfreertos_bsp.a(alt_dcache_flush.o)
 .comment       0x00000000       0x24 ../FreeLwIP_bsp/\libfreertos_bsp.a(alt_dcache_flush_all.o)
 .comment       0x00000000       0x24 ../FreeLwIP_bsp/\libfreertos_bsp.a(alt_dev_llist_insert.o)
 .comment       0x00000000       0x24 ../FreeLwIP_bsp/\libfreertos_bsp.a(alt_errno.o)
 .comment       0x00000000       0x24 ../FreeLwIP_bsp/\libfreertos_bsp.a(alt_find_dev.o)
 .comment       0x00000000       0x24 ../FreeLwIP_bsp/\libfreertos_bsp.a(alt_find_file.o)
 .comment       0x00000000       0x24 ../FreeLwIP_bsp/\libfreertos_bsp.a(alt_flash_dev.o)
 .comment       0x00000000       0x24 ../FreeLwIP_bsp/\libfreertos_bsp.a(alt_get_fd.o)
 .comment       0x00000000       0x24 ../FreeLwIP_bsp/\libfreertos_bsp.a(alt_gettod.o)
 .comment       0x00000000       0x24 ../FreeLwIP_bsp/\libfreertos_bsp.a(alt_icache_flush_all.o)
 .comment       0x00000000       0x24 ../FreeLwIP_bsp/\libfreertos_bsp.a(alt_instruction_exception_entry.o)
 .comment       0x00000000       0x24 ../FreeLwIP_bsp/\libfreertos_bsp.a(alt_read.o)
 .comment       0x00000000       0x24 ../FreeLwIP_bsp/\libfreertos_bsp.a(alt_remap_uncached.o)
 .comment       0x00000000       0x24 ../FreeLwIP_bsp/\libfreertos_bsp.a(alt_tick.o)
 .comment       0x00000000       0x24 ../FreeLwIP_bsp/\libfreertos_bsp.a(alt_uncached_malloc.o)
 .comment       0x00000000       0x24 ../FreeLwIP_bsp/\libfreertos_bsp.a(alt_write.o)
 .comment       0x00000000       0x24 ../FreeLwIP_bsp/\libfreertos_bsp.a(altera_tse_ethernetif.o)
 .comment       0x00000000       0x24 ../FreeLwIP_bsp/\libfreertos_bsp.a(icmp.o)
 .comment       0x00000000       0x24 ../FreeLwIP_bsp/\libfreertos_bsp.a(inet_chksum.o)
 .comment       0x00000000       0x24 ../FreeLwIP_bsp/\libfreertos_bsp.a(altera_avalon_cfi_flash_amd.o)
 .comment       0x00000000       0x24 ../FreeLwIP_bsp/\libfreertos_bsp.a(altera_avalon_cfi_flash_intel.o)
 .comment       0x00000000       0x24 ../FreeLwIP_bsp/\libfreertos_bsp.a(alt_icache_flush.o)
 .comment       0x00000000       0x24 c:/altera/13.1/nios2eds/bin/gnu/h-i686-mingw32/bin/../lib/gcc/nios2-elf/4.7.3/../../../../../H-i686-mingw32/nios2-elf/lib\libc.a(lib_a-atexit.o)
 .comment       0x00000000       0x24 c:/altera/13.1/nios2eds/bin/gnu/h-i686-mingw32/bin/../lib/gcc/nios2-elf/4.7.3/../../../../../H-i686-mingw32/nios2-elf/lib\libc.a(lib_a-ctype_.o)
 .comment       0x00000000       0x24 c:/altera/13.1/nios2eds/bin/gnu/h-i686-mingw32/bin/../lib/gcc/nios2-elf/4.7.3/../../../../../H-i686-mingw32/nios2-elf/lib\libc.a(lib_a-errno.o)
 .comment       0x00000000       0x24 c:/altera/13.1/nios2eds/bin/gnu/h-i686-mingw32/bin/../lib/gcc/nios2-elf/4.7.3/../../../../../H-i686-mingw32/nios2-elf/lib\libc.a(lib_a-exit.o)
 .comment       0x00000000       0x24 c:/altera/13.1/nios2eds/bin/gnu/h-i686-mingw32/bin/../lib/gcc/nios2-elf/4.7.3/../../../../../H-i686-mingw32/nios2-elf/lib\libc.a(lib_a-malloc.o)
 .comment       0x00000000       0x24 c:/altera/13.1/nios2eds/bin/gnu/h-i686-mingw32/bin/../lib/gcc/nios2-elf/4.7.3/../../../../../H-i686-mingw32/nios2-elf/lib\libc.a(lib_a-memcmp.o)
 .comment       0x00000000       0x24 c:/altera/13.1/nios2eds/bin/gnu/h-i686-mingw32/bin/../lib/gcc/nios2-elf/4.7.3/../../../../../H-i686-mingw32/nios2-elf/lib\libc.a(lib_a-snprintf.o)
 .comment       0x00000000       0x24 c:/altera/13.1/nios2eds/bin/gnu/h-i686-mingw32/bin/../lib/gcc/nios2-elf/4.7.3/../../../../../H-i686-mingw32/nios2-elf/lib\libc.a(lib_a-strncpy.o)
 .comment       0x00000000       0x24 c:/altera/13.1/nios2eds/bin/gnu/h-i686-mingw32/bin/../lib/gcc/nios2-elf/4.7.3/../../../../../H-i686-mingw32/nios2-elf/lib\libc.a(lib_a-__atexit.o)
 .comment       0x00000000       0x24 c:/altera/13.1/nios2eds/bin/gnu/h-i686-mingw32/bin/../lib/gcc/nios2-elf/4.7.3/../../../../../H-i686-mingw32/nios2-elf/lib\libc.a(lib_a-__call_atexit.o)
 .comment       0x00000000       0x24 ../FreeLwIP_bsp/\libfreertos_bsp.a(alt_exit.o)

.debug
 *(.debug)

.line
 *(.line)

.debug_srcinfo
 *(.debug_srcinfo)

.debug_sfnames
 *(.debug_sfnames)

.debug_aranges  0x00000000     0x1818
 *(.debug_aranges)
 .debug_aranges
                0x00000000       0x28 ../FreeLwIP_bsp//obj/HAL/src/crt0.o
 .debug_aranges
                0x00000028       0x20 obj/default/BasicWEB.o
 .debug_aranges
                0x00000048       0x20 obj/default/BlockQ.o
 .debug_aranges
                0x00000068       0x20 obj/default/GenQTest.o
 .debug_aranges
                0x00000088       0x20 obj/default/PollQ.o
 .debug_aranges
                0x000000a8       0x20 obj/default/QPeek.o
 .debug_aranges
                0x000000c8       0x20 obj/default/blocktim.o
 .debug_aranges
                0x000000e8       0x20 obj/default/countsem.o
 .debug_aranges
                0x00000108       0x20 obj/default/death.o
 .debug_aranges
                0x00000128       0x20 obj/default/dynamic.o
 .debug_aranges
                0x00000148       0x20 obj/default/echo_server.o
 .debug_aranges
                0x00000168       0x20 obj/default/ethernet.o
 .debug_aranges
                0x00000188       0x20 obj/default/integer.o
 .debug_aranges
                0x000001a8       0x20 obj/default/main.o
 .debug_aranges
                0x000001c8       0x20 obj/default/recmutex.o
 .debug_aranges
                0x000001e8       0x20 obj/default/semtest.o
 .debug_aranges
                0x00000208       0x20 c:/altera/13.1/nios2eds/bin/gnu/h-i686-mingw32/bin/../lib/gcc/nios2-elf/4.7.3/../../../../../H-i686-mingw32/nios2-elf/lib\libc.a(lib_a-memcpy.o)
 .debug_aranges
                0x00000228       0x20 c:/altera/13.1/nios2eds/bin/gnu/h-i686-mingw32/bin/../lib/gcc/nios2-elf/4.7.3/../../../../../H-i686-mingw32/nios2-elf/lib\libc.a(lib_a-memset.o)
 .debug_aranges
                0x00000248       0x20 c:/altera/13.1/nios2eds/bin/gnu/h-i686-mingw32/bin/../lib/gcc/nios2-elf/4.7.3/../../../../../H-i686-mingw32/nios2-elf/lib\libc.a(lib_a-perror.o)
 .debug_aranges
                0x00000268       0x20 c:/altera/13.1/nios2eds/bin/gnu/h-i686-mingw32/bin/../lib/gcc/nios2-elf/4.7.3/../../../../../H-i686-mingw32/nios2-elf/lib\libc.a(lib_a-printf.o)
 .debug_aranges
                0x00000288       0x20 c:/altera/13.1/nios2eds/bin/gnu/h-i686-mingw32/bin/../lib/gcc/nios2-elf/4.7.3/../../../../../H-i686-mingw32/nios2-elf/lib\libc.a(lib_a-puts.o)
 .debug_aranges
                0x000002a8       0x20 c:/altera/13.1/nios2eds/bin/gnu/h-i686-mingw32/bin/../lib/gcc/nios2-elf/4.7.3/../../../../../H-i686-mingw32/nios2-elf/lib\libc.a(lib_a-sprintf.o)
 .debug_aranges
                0x000002c8       0x20 c:/altera/13.1/nios2eds/bin/gnu/h-i686-mingw32/bin/../lib/gcc/nios2-elf/4.7.3/../../../../../H-i686-mingw32/nios2-elf/lib\libc.a(lib_a-strcat.o)
 .debug_aranges
                0x000002e8       0x20 c:/altera/13.1/nios2eds/bin/gnu/h-i686-mingw32/bin/../lib/gcc/nios2-elf/4.7.3/../../../../../H-i686-mingw32/nios2-elf/lib\libc.a(lib_a-strcpy.o)
 .debug_aranges
                0x00000308       0x20 c:/altera/13.1/nios2eds/bin/gnu/h-i686-mingw32/bin/../lib/gcc/nios2-elf/4.7.3/../../../../../H-i686-mingw32/nios2-elf/lib\libc.a(lib_a-strerror.o)
 .debug_aranges
                0x00000328       0x20 c:/altera/13.1/nios2eds/bin/gnu/h-i686-mingw32/bin/../lib/gcc/nios2-elf/4.7.3/../../../../../H-i686-mingw32/nios2-elf/lib\libc.a(lib_a-strlen.o)
 .debug_aranges
                0x00000348       0x20 c:/altera/13.1/nios2eds/bin/gnu/h-i686-mingw32/bin/../lib/gcc/nios2-elf/4.7.3/../../../../../H-i686-mingw32/nios2-elf/lib\libc.a(lib_a-strncmp.o)
 .debug_aranges
                0x00000368       0x20 c:/altera/13.1/nios2eds/bin/gnu/h-i686-mingw32/bin/../lib/gcc/nios2-elf/4.7.3/../../../../../H-i686-mingw32/nios2-elf/lib\libc.a(lib_a-u_strerr.o)
 .debug_aranges
                0x00000388       0x20 c:/altera/13.1/nios2eds/bin/gnu/h-i686-mingw32/bin/../lib/gcc/nios2-elf/4.7.3/../../../../../H-i686-mingw32/nios2-elf/lib\libc.a(lib_a-vfprintf.o)
 .debug_aranges
                0x000003a8       0x20 c:/altera/13.1/nios2eds/bin/gnu/h-i686-mingw32/bin/../lib/gcc/nios2-elf/4.7.3/../../../../../H-i686-mingw32/nios2-elf/lib\libc.a(lib_a-wsetup.o)
 .debug_aranges
                0x000003c8       0x20 c:/altera/13.1/nios2eds/bin/gnu/h-i686-mingw32/bin/../lib/gcc/nios2-elf/4.7.3/../../../../../H-i686-mingw32/nios2-elf/lib\libc.a(lib_a-dtoa.o)
 .debug_aranges
                0x000003e8       0x20 c:/altera/13.1/nios2eds/bin/gnu/h-i686-mingw32/bin/../lib/gcc/nios2-elf/4.7.3/../../../../../H-i686-mingw32/nios2-elf/lib\libc.a(lib_a-fflush.o)
 .debug_aranges
                0x00000408       0x20 c:/altera/13.1/nios2eds/bin/gnu/h-i686-mingw32/bin/../lib/gcc/nios2-elf/4.7.3/../../../../../H-i686-mingw32/nios2-elf/lib\libc.a(lib_a-findfp.o)
 .debug_aranges
                0x00000428       0x20 c:/altera/13.1/nios2eds/bin/gnu/h-i686-mingw32/bin/../lib/gcc/nios2-elf/4.7.3/../../../../../H-i686-mingw32/nios2-elf/lib\libc.a(lib_a-fputc.o)
 .debug_aranges
                0x00000448       0x20 c:/altera/13.1/nios2eds/bin/gnu/h-i686-mingw32/bin/../lib/gcc/nios2-elf/4.7.3/../../../../../H-i686-mingw32/nios2-elf/lib\libc.a(lib_a-fputs.o)
 .debug_aranges
                0x00000468       0x20 c:/altera/13.1/nios2eds/bin/gnu/h-i686-mingw32/bin/../lib/gcc/nios2-elf/4.7.3/../../../../../H-i686-mingw32/nios2-elf/lib\libc.a(lib_a-freer.o)
 .debug_aranges
                0x00000488       0x20 c:/altera/13.1/nios2eds/bin/gnu/h-i686-mingw32/bin/../lib/gcc/nios2-elf/4.7.3/../../../../../H-i686-mingw32/nios2-elf/lib\libc.a(lib_a-fvwrite.o)
 .debug_aranges
                0x000004a8       0x20 c:/altera/13.1/nios2eds/bin/gnu/h-i686-mingw32/bin/../lib/gcc/nios2-elf/4.7.3/../../../../../H-i686-mingw32/nios2-elf/lib\libc.a(lib_a-fwalk.o)
 .debug_aranges
                0x000004c8       0x18 c:/altera/13.1/nios2eds/bin/gnu/h-i686-mingw32/bin/../lib/gcc/nios2-elf/4.7.3/../../../../../H-i686-mingw32/nios2-elf/lib\libc.a(lib_a-impure.o)
 .debug_aranges
                0x000004e0       0x20 c:/altera/13.1/nios2eds/bin/gnu/h-i686-mingw32/bin/../lib/gcc/nios2-elf/4.7.3/../../../../../H-i686-mingw32/nios2-elf/lib\libc.a(lib_a-locale.o)
 .debug_aranges
                0x00000500       0x20 c:/altera/13.1/nios2eds/bin/gnu/h-i686-mingw32/bin/../lib/gcc/nios2-elf/4.7.3/../../../../../H-i686-mingw32/nios2-elf/lib\libc.a(lib_a-makebuf.o)
 .debug_aranges
                0x00000520       0x20 c:/altera/13.1/nios2eds/bin/gnu/h-i686-mingw32/bin/../lib/gcc/nios2-elf/4.7.3/../../../../../H-i686-mingw32/nios2-elf/lib\libc.a(lib_a-mallocr.o)
 .debug_aranges
                0x00000540       0x20 c:/altera/13.1/nios2eds/bin/gnu/h-i686-mingw32/bin/../lib/gcc/nios2-elf/4.7.3/../../../../../H-i686-mingw32/nios2-elf/lib\libc.a(lib_a-memchr.o)
 .debug_aranges
                0x00000560       0x20 c:/altera/13.1/nios2eds/bin/gnu/h-i686-mingw32/bin/../lib/gcc/nios2-elf/4.7.3/../../../../../H-i686-mingw32/nios2-elf/lib\libc.a(lib_a-memmove.o)
 .debug_aranges
                0x00000580       0x20 c:/altera/13.1/nios2eds/bin/gnu/h-i686-mingw32/bin/../lib/gcc/nios2-elf/4.7.3/../../../../../H-i686-mingw32/nios2-elf/lib\libc.a(lib_a-mprec.o)
 .debug_aranges
                0x000005a0       0x20 c:/altera/13.1/nios2eds/bin/gnu/h-i686-mingw32/bin/../lib/gcc/nios2-elf/4.7.3/../../../../../H-i686-mingw32/nios2-elf/lib\libc.a(lib_a-putc.o)
 .debug_aranges
                0x000005c0       0x20 c:/altera/13.1/nios2eds/bin/gnu/h-i686-mingw32/bin/../lib/gcc/nios2-elf/4.7.3/../../../../../H-i686-mingw32/nios2-elf/lib\libc.a(lib_a-reallocr.o)
 .debug_aranges
                0x000005e0       0x20 c:/altera/13.1/nios2eds/bin/gnu/h-i686-mingw32/bin/../lib/gcc/nios2-elf/4.7.3/../../../../../H-i686-mingw32/nios2-elf/lib\libc.a(lib_a-s_isinfd.o)
 .debug_aranges
                0x00000600       0x20 c:/altera/13.1/nios2eds/bin/gnu/h-i686-mingw32/bin/../lib/gcc/nios2-elf/4.7.3/../../../../../H-i686-mingw32/nios2-elf/lib\libc.a(lib_a-s_isnand.o)
 .debug_aranges
                0x00000620       0x20 c:/altera/13.1/nios2eds/bin/gnu/h-i686-mingw32/bin/../lib/gcc/nios2-elf/4.7.3/../../../../../H-i686-mingw32/nios2-elf/lib\libc.a(lib_a-sbrkr.o)
 .debug_aranges
                0x00000640       0x20 c:/altera/13.1/nios2eds/bin/gnu/h-i686-mingw32/bin/../lib/gcc/nios2-elf/4.7.3/../../../../../H-i686-mingw32/nios2-elf/lib\libc.a(lib_a-stdio.o)
 .debug_aranges
                0x00000660       0x20 c:/altera/13.1/nios2eds/bin/gnu/h-i686-mingw32/bin/../lib/gcc/nios2-elf/4.7.3/../../../../../H-i686-mingw32/nios2-elf/lib\libc.a(lib_a-strcmp.o)
 .debug_aranges
                0x00000680       0x20 c:/altera/13.1/nios2eds/bin/gnu/h-i686-mingw32/bin/../lib/gcc/nios2-elf/4.7.3/../../../../../H-i686-mingw32/nios2-elf/lib\libc.a(lib_a-wbuf.o)
 .debug_aranges
                0x000006a0       0x20 c:/altera/13.1/nios2eds/bin/gnu/h-i686-mingw32/bin/../lib/gcc/nios2-elf/4.7.3/../../../../../H-i686-mingw32/nios2-elf/lib\libc.a(lib_a-writer.o)
 .debug_aranges
                0x000006c0       0x20 c:/altera/13.1/nios2eds/bin/gnu/h-i686-mingw32/bin/../lib/gcc/nios2-elf/4.7.3/../../../../../H-i686-mingw32/nios2-elf/lib\libc.a(lib_a-callocr.o)
 .debug_aranges
                0x000006e0       0x20 c:/altera/13.1/nios2eds/bin/gnu/h-i686-mingw32/bin/../lib/gcc/nios2-elf/4.7.3/../../../../../H-i686-mingw32/nios2-elf/lib\libc.a(lib_a-closer.o)
 .debug_aranges
                0x00000700       0x20 c:/altera/13.1/nios2eds/bin/gnu/h-i686-mingw32/bin/../lib/gcc/nios2-elf/4.7.3/../../../../../H-i686-mingw32/nios2-elf/lib\libc.a(lib_a-fclose.o)
 .debug_aranges
                0x00000720       0x20 c:/altera/13.1/nios2eds/bin/gnu/h-i686-mingw32/bin/../lib/gcc/nios2-elf/4.7.3/../../../../../H-i686-mingw32/nios2-elf/lib\libc.a(lib_a-fstatr.o)
 .debug_aranges
                0x00000740       0x18 c:/altera/13.1/nios2eds/bin/gnu/h-i686-mingw32/bin/../lib/gcc/nios2-elf/4.7.3/../../../../../H-i686-mingw32/nios2-elf/lib\libc.a(lib_a-int_errno.o)
 .debug_aranges
                0x00000758       0x20 c:/altera/13.1/nios2eds/bin/gnu/h-i686-mingw32/bin/../lib/gcc/nios2-elf/4.7.3/../../../../../H-i686-mingw32/nios2-elf/lib\libc.a(lib_a-isattyr.o)
 .debug_aranges
                0x00000778       0x20 c:/altera/13.1/nios2eds/bin/gnu/h-i686-mingw32/bin/../lib/gcc/nios2-elf/4.7.3/../../../../../H-i686-mingw32/nios2-elf/lib\libc.a(lib_a-lseekr.o)
 .debug_aranges
                0x00000798       0x20 c:/altera/13.1/nios2eds/bin/gnu/h-i686-mingw32/bin/../lib/gcc/nios2-elf/4.7.3/../../../../../H-i686-mingw32/nios2-elf/lib\libc.a(lib_a-readr.o)
 .debug_aranges
                0x000007b8       0x20 c:/altera/13.1/nios2eds/bin/gnu/h-i686-mingw32/bin/../lib/gcc/nios2-elf/4.7.3\libgcc.a(_udivdi3.o)
 .debug_aranges
                0x000007d8       0x20 c:/altera/13.1/nios2eds/bin/gnu/h-i686-mingw32/bin/../lib/gcc/nios2-elf/4.7.3\libgcc.a(_umoddi3.o)
 .debug_aranges
                0x000007f8       0x20 c:/altera/13.1/nios2eds/bin/gnu/h-i686-mingw32/bin/../lib/gcc/nios2-elf/4.7.3\libgcc.a(_addsub_df.o)
 .debug_aranges
                0x00000818       0x20 c:/altera/13.1/nios2eds/bin/gnu/h-i686-mingw32/bin/../lib/gcc/nios2-elf/4.7.3\libgcc.a(_mul_df.o)
 .debug_aranges
                0x00000838       0x20 c:/altera/13.1/nios2eds/bin/gnu/h-i686-mingw32/bin/../lib/gcc/nios2-elf/4.7.3\libgcc.a(_div_df.o)
 .debug_aranges
                0x00000858       0x20 c:/altera/13.1/nios2eds/bin/gnu/h-i686-mingw32/bin/../lib/gcc/nios2-elf/4.7.3\libgcc.a(_eq_df.o)
 .debug_aranges
                0x00000878       0x20 c:/altera/13.1/nios2eds/bin/gnu/h-i686-mingw32/bin/../lib/gcc/nios2-elf/4.7.3\libgcc.a(_ne_df.o)
 .debug_aranges
                0x00000898       0x20 c:/altera/13.1/nios2eds/bin/gnu/h-i686-mingw32/bin/../lib/gcc/nios2-elf/4.7.3\libgcc.a(_gt_df.o)
 .debug_aranges
                0x000008b8       0x20 c:/altera/13.1/nios2eds/bin/gnu/h-i686-mingw32/bin/../lib/gcc/nios2-elf/4.7.3\libgcc.a(_ge_df.o)
 .debug_aranges
                0x000008d8       0x20 c:/altera/13.1/nios2eds/bin/gnu/h-i686-mingw32/bin/../lib/gcc/nios2-elf/4.7.3\libgcc.a(_lt_df.o)
 .debug_aranges
                0x000008f8       0x20 c:/altera/13.1/nios2eds/bin/gnu/h-i686-mingw32/bin/../lib/gcc/nios2-elf/4.7.3\libgcc.a(_si_to_df.o)
 .debug_aranges
                0x00000918       0x20 c:/altera/13.1/nios2eds/bin/gnu/h-i686-mingw32/bin/../lib/gcc/nios2-elf/4.7.3\libgcc.a(_df_to_si.o)
 .debug_aranges
                0x00000938       0x18 c:/altera/13.1/nios2eds/bin/gnu/h-i686-mingw32/bin/../lib/gcc/nios2-elf/4.7.3\libgcc.a(_thenan_df.o)
 .debug_aranges
                0x00000950       0x20 c:/altera/13.1/nios2eds/bin/gnu/h-i686-mingw32/bin/../lib/gcc/nios2-elf/4.7.3\libgcc.a(_usi_to_df.o)
 .debug_aranges
                0x00000970       0x20 c:/altera/13.1/nios2eds/bin/gnu/h-i686-mingw32/bin/../lib/gcc/nios2-elf/4.7.3\libgcc.a(lib2-divmod.o)
 .debug_aranges
                0x00000990       0x20 c:/altera/13.1/nios2eds/bin/gnu/h-i686-mingw32/bin/../lib/gcc/nios2-elf/4.7.3\libgcc.a(_muldi3.o)
 .debug_aranges
                0x000009b0       0x18 c:/altera/13.1/nios2eds/bin/gnu/h-i686-mingw32/bin/../lib/gcc/nios2-elf/4.7.3\libgcc.a(_clz.o)
 .debug_aranges
                0x000009c8       0x20 c:/altera/13.1/nios2eds/bin/gnu/h-i686-mingw32/bin/../lib/gcc/nios2-elf/4.7.3\libgcc.a(_clzsi2.o)
 .debug_aranges
                0x000009e8       0x20 c:/altera/13.1/nios2eds/bin/gnu/h-i686-mingw32/bin/../lib/gcc/nios2-elf/4.7.3\libgcc.a(_pack_df.o)
 .debug_aranges
                0x00000a08       0x20 c:/altera/13.1/nios2eds/bin/gnu/h-i686-mingw32/bin/../lib/gcc/nios2-elf/4.7.3\libgcc.a(_unpack_df.o)
 .debug_aranges
                0x00000a28       0x20 c:/altera/13.1/nios2eds/bin/gnu/h-i686-mingw32/bin/../lib/gcc/nios2-elf/4.7.3\libgcc.a(_fpcmp_parts_df.o)
 .debug_aranges
                0x00000a48       0x20 c:/altera/13.1/nios2eds/bin/gnu/h-i686-mingw32/bin/../lib/gcc/nios2-elf/4.7.3\libgcc.a(_lshrdi3.o)
 .debug_aranges
                0x00000a68       0x20 c:/altera/13.1/nios2eds/bin/gnu/h-i686-mingw32/bin/../lib/gcc/nios2-elf/4.7.3\libgcc.a(_ashldi3.o)
 .debug_aranges
                0x00000a88       0x20 ../FreeLwIP_bsp/\libfreertos_bsp.a(alt_main.o)
 .debug_aranges
                0x00000aa8       0x20 ../FreeLwIP_bsp/\libfreertos_bsp.a(alt_malloc_lock.o)
 .debug_aranges
                0x00000ac8       0x20 ../FreeLwIP_bsp/\libfreertos_bsp.a(heap_3.o)
 .debug_aranges
                0x00000ae8       0x20 ../FreeLwIP_bsp/\libfreertos_bsp.a(queue.o)
 .debug_aranges
                0x00000b08       0x20 ../FreeLwIP_bsp/\libfreertos_bsp.a(tasks.o)
 .debug_aranges
                0x00000b28       0x20 ../FreeLwIP_bsp/\libfreertos_bsp.a(timers.o)
 .debug_aranges
                0x00000b48       0x20 ../FreeLwIP_bsp/\libfreertos_bsp.a(alt_dev.o)
 .debug_aranges
                0x00000b68       0x20 ../FreeLwIP_bsp/\libfreertos_bsp.a(alt_do_ctors.o)
 .debug_aranges
                0x00000b88       0x20 ../FreeLwIP_bsp/\libfreertos_bsp.a(alt_do_dtors.o)
 .debug_aranges
                0x00000ba8       0x20 ../FreeLwIP_bsp/\libfreertos_bsp.a(alt_fstat.o)
 .debug_aranges
                0x00000bc8       0x20 ../FreeLwIP_bsp/\libfreertos_bsp.a(alt_io_redirect.o)
 .debug_aranges
                0x00000be8       0x20 ../FreeLwIP_bsp/\libfreertos_bsp.a(alt_isatty.o)
 .debug_aranges
                0x00000c08       0x20 ../FreeLwIP_bsp/\libfreertos_bsp.a(alt_load.o)
 .debug_aranges
                0x00000c28       0x20 ../FreeLwIP_bsp/\libfreertos_bsp.a(alt_lseek.o)
 .debug_aranges
                0x00000c48       0x20 ../FreeLwIP_bsp/\libfreertos_bsp.a(alt_open.o)
 .debug_aranges
                0x00000c68       0x20 ../FreeLwIP_bsp/\libfreertos_bsp.a(alt_release_fd.o)
 .debug_aranges
                0x00000c88       0x20 ../FreeLwIP_bsp/\libfreertos_bsp.a(alt_sbrk.o)
 .debug_aranges
                0x00000ca8       0x20 ../FreeLwIP_bsp/\libfreertos_bsp.a(alt_usleep.o)
 .debug_aranges
                0x00000cc8       0x20 ../FreeLwIP_bsp/\libfreertos_bsp.a(api_lib.o)
 .debug_aranges
                0x00000ce8       0x20 ../FreeLwIP_bsp/\libfreertos_bsp.a(api_msg.o)
 .debug_aranges
                0x00000d08       0x20 ../FreeLwIP_bsp/\libfreertos_bsp.a(netbuf.o)
 .debug_aranges
                0x00000d28       0x20 ../FreeLwIP_bsp/\libfreertos_bsp.a(sockets.o)
 .debug_aranges
                0x00000d48       0x20 ../FreeLwIP_bsp/\libfreertos_bsp.a(tcpip.o)
 .debug_aranges
                0x00000d68       0x20 ../FreeLwIP_bsp/\libfreertos_bsp.a(alt_lwip_close.o)
 .debug_aranges
                0x00000d88       0x20 ../FreeLwIP_bsp/\libfreertos_bsp.a(alt_lwip_read.o)
 .debug_aranges
                0x00000da8       0x20 ../FreeLwIP_bsp/\libfreertos_bsp.a(alt_lwip_write.o)
 .debug_aranges
                0x00000dc8       0x20 ../FreeLwIP_bsp/\libfreertos_bsp.a(lwip_main.o)
 .debug_aranges
                0x00000de8       0x20 ../FreeLwIP_bsp/\libfreertos_bsp.a(lwip_tse_mac.o)
 .debug_aranges
                0x00000e08       0x20 ../FreeLwIP_bsp/\libfreertos_bsp.a(sys_arch.o)
 .debug_aranges
                0x00000e28       0x20 ../FreeLwIP_bsp/\libfreertos_bsp.a(dhcp.o)
 .debug_aranges
                0x00000e48       0x20 ../FreeLwIP_bsp/\libfreertos_bsp.a(init.o)
 .debug_aranges
                0x00000e68       0x20 ../FreeLwIP_bsp/\libfreertos_bsp.a(ip.o)
 .debug_aranges
                0x00000e88       0x20 ../FreeLwIP_bsp/\libfreertos_bsp.a(ip_addr.o)
 .debug_aranges
                0x00000ea8       0x20 ../FreeLwIP_bsp/\libfreertos_bsp.a(ip_frag.o)
 .debug_aranges
                0x00000ec8       0x20 ../FreeLwIP_bsp/\libfreertos_bsp.a(mem.o)
 .debug_aranges
                0x00000ee8       0x20 ../FreeLwIP_bsp/\libfreertos_bsp.a(memp.o)
 .debug_aranges
                0x00000f08       0x20 ../FreeLwIP_bsp/\libfreertos_bsp.a(netif.o)
 .debug_aranges
                0x00000f28       0x20 ../FreeLwIP_bsp/\libfreertos_bsp.a(pbuf.o)
 .debug_aranges
                0x00000f48       0x20 ../FreeLwIP_bsp/\libfreertos_bsp.a(raw.o)
 .debug_aranges
                0x00000f68       0x20 ../FreeLwIP_bsp/\libfreertos_bsp.a(stats.o)
 .debug_aranges
                0x00000f88       0x20 ../FreeLwIP_bsp/\libfreertos_bsp.a(tcp.o)
 .debug_aranges
                0x00000fa8       0x20 ../FreeLwIP_bsp/\libfreertos_bsp.a(tcp_in.o)
 .debug_aranges
                0x00000fc8       0x20 ../FreeLwIP_bsp/\libfreertos_bsp.a(tcp_out.o)
 .debug_aranges
                0x00000fe8       0x20 ../FreeLwIP_bsp/\libfreertos_bsp.a(timers.o)
 .debug_aranges
                0x00001008       0x20 ../FreeLwIP_bsp/\libfreertos_bsp.a(udp.o)
 .debug_aranges
                0x00001028       0x20 ../FreeLwIP_bsp/\libfreertos_bsp.a(etharp.o)
 .debug_aranges
                0x00001048       0x20 ../FreeLwIP_bsp/\libfreertos_bsp.a(alt_sys_init.o)
 .debug_aranges
                0x00001068       0x20 ../FreeLwIP_bsp/\libfreertos_bsp.a(altera_avalon_cfi_flash.o)
 .debug_aranges
                0x00001088       0x20 ../FreeLwIP_bsp/\libfreertos_bsp.a(altera_avalon_cfi_flash_table.o)
 .debug_aranges
                0x000010a8       0x20 ../FreeLwIP_bsp/\libfreertos_bsp.a(altera_avalon_jtag_uart_fd.o)
 .debug_aranges
                0x000010c8       0x20 ../FreeLwIP_bsp/\libfreertos_bsp.a(altera_avalon_jtag_uart_init.o)
 .debug_aranges
                0x000010e8       0x20 ../FreeLwIP_bsp/\libfreertos_bsp.a(altera_avalon_jtag_uart_ioctl.o)
 .debug_aranges
                0x00001108       0x20 ../FreeLwIP_bsp/\libfreertos_bsp.a(altera_avalon_jtag_uart_read.o)
 .debug_aranges
                0x00001128       0x20 ../FreeLwIP_bsp/\libfreertos_bsp.a(altera_avalon_jtag_uart_write.o)
 .debug_aranges
                0x00001148       0x20 ../FreeLwIP_bsp/\libfreertos_bsp.a(altera_avalon_lcd_16207.o)
 .debug_aranges
                0x00001168       0x20 ../FreeLwIP_bsp/\libfreertos_bsp.a(altera_avalon_lcd_16207_fd.o)
 .debug_aranges
                0x00001188       0x20 ../FreeLwIP_bsp/\libfreertos_bsp.a(altera_avalon_sgdma.o)
 .debug_aranges
                0x000011a8       0x20 ../FreeLwIP_bsp/\libfreertos_bsp.a(altera_avalon_timer_sc.o)
 .debug_aranges
                0x000011c8       0x20 ../FreeLwIP_bsp/\libfreertos_bsp.a(altera_avalon_tse.o)
 .debug_aranges
                0x000011e8       0x18 ../FreeLwIP_bsp/\libfreertos_bsp.a(altera_avalon_tse_system_info.o)
 .debug_aranges
                0x00001200       0x20 ../FreeLwIP_bsp/\libfreertos_bsp.a(altera_avalon_uart_fd.o)
 .debug_aranges
                0x00001220       0x20 ../FreeLwIP_bsp/\libfreertos_bsp.a(altera_avalon_uart_init.o)
 .debug_aranges
                0x00001240       0x20 ../FreeLwIP_bsp/\libfreertos_bsp.a(altera_avalon_uart_read.o)
 .debug_aranges
                0x00001260       0x20 ../FreeLwIP_bsp/\libfreertos_bsp.a(altera_avalon_uart_write.o)
 .debug_aranges
                0x00001280       0x20 ../FreeLwIP_bsp/\libfreertos_bsp.a(altera_vic_0_vector_tbl.o)
 .debug_aranges
                0x000012a0       0x20 ../FreeLwIP_bsp/\libfreertos_bsp.a(altera_vic_funnel_non_preemptive.o)
 .debug_aranges
                0x000012c0       0x20 ../FreeLwIP_bsp/\libfreertos_bsp.a(altera_vic_irq_init.o)
 .debug_aranges
                0x000012e0       0x20 ../FreeLwIP_bsp/\libfreertos_bsp.a(altera_vic_isr_register.o)
 .debug_aranges
                0x00001300       0x20 ../FreeLwIP_bsp/\libfreertos_bsp.a(alt_env_lock.o)
 .debug_aranges
                0x00001320       0x20 ../FreeLwIP_bsp/\libfreertos_bsp.a(list.o)
 .debug_aranges
                0x00001340       0x20 ../FreeLwIP_bsp/\libfreertos_bsp.a(port.o)
 .debug_aranges
                0x00001360       0x40 ../FreeLwIP_bsp/\libfreertos_bsp.a(port_asm.o)
 .debug_aranges
                0x000013a0       0x20 ../FreeLwIP_bsp/\libfreertos_bsp.a(alt_alarm_start.o)
 .debug_aranges
                0x000013c0       0x20 ../FreeLwIP_bsp/\libfreertos_bsp.a(alt_busy_sleep.o)
 .debug_aranges
                0x000013e0       0x20 ../FreeLwIP_bsp/\libfreertos_bsp.a(alt_close.o)
 .debug_aranges
                0x00001400       0x20 ../FreeLwIP_bsp/\libfreertos_bsp.a(alt_dcache_flush.o)
 .debug_aranges
                0x00001420       0x20 ../FreeLwIP_bsp/\libfreertos_bsp.a(alt_dcache_flush_all.o)
 .debug_aranges
                0x00001440       0x20 ../FreeLwIP_bsp/\libfreertos_bsp.a(alt_dev_llist_insert.o)
 .debug_aranges
                0x00001460       0x18 ../FreeLwIP_bsp/\libfreertos_bsp.a(alt_errno.o)
 .debug_aranges
                0x00001478       0x20 ../FreeLwIP_bsp/\libfreertos_bsp.a(alt_find_dev.o)
 .debug_aranges
                0x00001498       0x20 ../FreeLwIP_bsp/\libfreertos_bsp.a(alt_find_file.o)
 .debug_aranges
                0x000014b8       0x20 ../FreeLwIP_bsp/\libfreertos_bsp.a(alt_flash_dev.o)
 .debug_aranges
                0x000014d8       0x20 ../FreeLwIP_bsp/\libfreertos_bsp.a(alt_get_fd.o)
 .debug_aranges
                0x000014f8       0x20 ../FreeLwIP_bsp/\libfreertos_bsp.a(alt_gettod.o)
 .debug_aranges
                0x00001518       0x20 ../FreeLwIP_bsp/\libfreertos_bsp.a(alt_icache_flush_all.o)
 .debug_aranges
                0x00001538       0x28 ../FreeLwIP_bsp/\libfreertos_bsp.a(alt_instruction_exception_entry.o)
 .debug_aranges
                0x00001560       0x20 ../FreeLwIP_bsp/\libfreertos_bsp.a(alt_read.o)
 .debug_aranges
                0x00001580       0x20 ../FreeLwIP_bsp/\libfreertos_bsp.a(alt_remap_uncached.o)
 .debug_aranges
                0x000015a0       0x20 ../FreeLwIP_bsp/\libfreertos_bsp.a(alt_tick.o)
 .debug_aranges
                0x000015c0       0x20 ../FreeLwIP_bsp/\libfreertos_bsp.a(alt_uncached_malloc.o)
 .debug_aranges
                0x000015e0       0x20 ../FreeLwIP_bsp/\libfreertos_bsp.a(alt_write.o)
 .debug_aranges
                0x00001600       0x20 ../FreeLwIP_bsp/\libfreertos_bsp.a(altera_tse_ethernetif.o)
 .debug_aranges
                0x00001620       0x20 ../FreeLwIP_bsp/\libfreertos_bsp.a(icmp.o)
 .debug_aranges
                0x00001640       0x20 ../FreeLwIP_bsp/\libfreertos_bsp.a(inet_chksum.o)
 .debug_aranges
                0x00001660       0x20 ../FreeLwIP_bsp/\libfreertos_bsp.a(altera_avalon_cfi_flash_amd.o)
 .debug_aranges
                0x00001680       0x20 ../FreeLwIP_bsp/\libfreertos_bsp.a(altera_avalon_cfi_flash_intel.o)
 .debug_aranges
                0x000016a0       0x20 ../FreeLwIP_bsp/\libfreertos_bsp.a(alt_icache_flush.o)
 .debug_aranges
                0x000016c0       0x20 c:/altera/13.1/nios2eds/bin/gnu/h-i686-mingw32/bin/../lib/gcc/nios2-elf/4.7.3/../../../../../H-i686-mingw32/nios2-elf/lib\libc.a(lib_a-atexit.o)
 .debug_aranges
                0x000016e0       0x18 c:/altera/13.1/nios2eds/bin/gnu/h-i686-mingw32/bin/../lib/gcc/nios2-elf/4.7.3/../../../../../H-i686-mingw32/nios2-elf/lib\libc.a(lib_a-ctype_.o)
 .debug_aranges
                0x000016f8       0x20 c:/altera/13.1/nios2eds/bin/gnu/h-i686-mingw32/bin/../lib/gcc/nios2-elf/4.7.3/../../../../../H-i686-mingw32/nios2-elf/lib\libc.a(lib_a-errno.o)
 .debug_aranges
                0x00001718       0x20 c:/altera/13.1/nios2eds/bin/gnu/h-i686-mingw32/bin/../lib/gcc/nios2-elf/4.7.3/../../../../../H-i686-mingw32/nios2-elf/lib\libc.a(lib_a-exit.o)
 .debug_aranges
                0x00001738       0x20 c:/altera/13.1/nios2eds/bin/gnu/h-i686-mingw32/bin/../lib/gcc/nios2-elf/4.7.3/../../../../../H-i686-mingw32/nios2-elf/lib\libc.a(lib_a-malloc.o)
 .debug_aranges
                0x00001758       0x20 c:/altera/13.1/nios2eds/bin/gnu/h-i686-mingw32/bin/../lib/gcc/nios2-elf/4.7.3/../../../../../H-i686-mingw32/nios2-elf/lib\libc.a(lib_a-memcmp.o)
 .debug_aranges
                0x00001778       0x20 c:/altera/13.1/nios2eds/bin/gnu/h-i686-mingw32/bin/../lib/gcc/nios2-elf/4.7.3/../../../../../H-i686-mingw32/nios2-elf/lib\libc.a(lib_a-snprintf.o)
 .debug_aranges
                0x00001798       0x20 c:/altera/13.1/nios2eds/bin/gnu/h-i686-mingw32/bin/../lib/gcc/nios2-elf/4.7.3/../../../../../H-i686-mingw32/nios2-elf/lib\libc.a(lib_a-strncpy.o)
 .debug_aranges
                0x000017b8       0x20 c:/altera/13.1/nios2eds/bin/gnu/h-i686-mingw32/bin/../lib/gcc/nios2-elf/4.7.3/../../../../../H-i686-mingw32/nios2-elf/lib\libc.a(lib_a-__atexit.o)
 .debug_aranges
                0x000017d8       0x20 c:/altera/13.1/nios2eds/bin/gnu/h-i686-mingw32/bin/../lib/gcc/nios2-elf/4.7.3/../../../../../H-i686-mingw32/nios2-elf/lib\libc.a(lib_a-__call_atexit.o)
 .debug_aranges
                0x000017f8       0x20 ../FreeLwIP_bsp/\libfreertos_bsp.a(alt_exit.o)

.debug_pubnames
 *(.debug_pubnames)

.debug_info     0x00000000    0x5195d
 *(.debug_info .gnu.linkonce.wi.*)
 .debug_info    0x00000000       0x79 ../FreeLwIP_bsp//obj/HAL/src/crt0.o
 .debug_info    0x00000079      0x6da obj/default/BasicWEB.o
 .debug_info    0x00000753      0x2f5 obj/default/BlockQ.o
 .debug_info    0x00000a48      0x28a obj/default/GenQTest.o
 .debug_info    0x00000cd2      0x1cf obj/default/PollQ.o
 .debug_info    0x00000ea1      0x274 obj/default/QPeek.o
 .debug_info    0x00001115      0x23b obj/default/blocktim.o
 .debug_info    0x00001350      0x24c obj/default/countsem.o
 .debug_info    0x0000159c      0x21e obj/default/death.o
 .debug_info    0x000017ba      0x2e6 obj/default/dynamic.o
 .debug_info    0x00001aa0      0x2dc obj/default/echo_server.o
 .debug_info    0x00001d7c     0x1140 obj/default/ethernet.o
 .debug_info    0x00002ebc      0x17c obj/default/integer.o
 .debug_info    0x00003038      0x232 obj/default/main.o
 .debug_info    0x0000326a      0x24d obj/default/recmutex.o
 .debug_info    0x000034b7      0x25b obj/default/semtest.o
 .debug_info    0x00003712      0x10e c:/altera/13.1/nios2eds/bin/gnu/h-i686-mingw32/bin/../lib/gcc/nios2-elf/4.7.3/../../../../../H-i686-mingw32/nios2-elf/lib\libc.a(lib_a-memcpy.o)
 .debug_info    0x00003820      0x117 c:/altera/13.1/nios2eds/bin/gnu/h-i686-mingw32/bin/../lib/gcc/nios2-elf/4.7.3/../../../../../H-i686-mingw32/nios2-elf/lib\libc.a(lib_a-memset.o)
 .debug_info    0x00003937      0xa3f c:/altera/13.1/nios2eds/bin/gnu/h-i686-mingw32/bin/../lib/gcc/nios2-elf/4.7.3/../../../../../H-i686-mingw32/nios2-elf/lib\libc.a(lib_a-perror.o)
 .debug_info    0x00004376      0xa6c c:/altera/13.1/nios2eds/bin/gnu/h-i686-mingw32/bin/../lib/gcc/nios2-elf/4.7.3/../../../../../H-i686-mingw32/nios2-elf/lib\libc.a(lib_a-printf.o)
 .debug_info    0x00004de2      0xab7 c:/altera/13.1/nios2eds/bin/gnu/h-i686-mingw32/bin/../lib/gcc/nios2-elf/4.7.3/../../../../../H-i686-mingw32/nios2-elf/lib\libc.a(lib_a-puts.o)
 .debug_info    0x00005899      0xa8e c:/altera/13.1/nios2eds/bin/gnu/h-i686-mingw32/bin/../lib/gcc/nios2-elf/4.7.3/../../../../../H-i686-mingw32/nios2-elf/lib\libc.a(lib_a-sprintf.o)
 .debug_info    0x00006327      0x118 c:/altera/13.1/nios2eds/bin/gnu/h-i686-mingw32/bin/../lib/gcc/nios2-elf/4.7.3/../../../../../H-i686-mingw32/nios2-elf/lib\libc.a(lib_a-strcat.o)
 .debug_info    0x0000643f      0x114 c:/altera/13.1/nios2eds/bin/gnu/h-i686-mingw32/bin/../lib/gcc/nios2-elf/4.7.3/../../../../../H-i686-mingw32/nios2-elf/lib\libc.a(lib_a-strcpy.o)
 .debug_info    0x00006553       0xf6 c:/altera/13.1/nios2eds/bin/gnu/h-i686-mingw32/bin/../lib/gcc/nios2-elf/4.7.3/../../../../../H-i686-mingw32/nios2-elf/lib\libc.a(lib_a-strerror.o)
 .debug_info    0x00006649       0xdf c:/altera/13.1/nios2eds/bin/gnu/h-i686-mingw32/bin/../lib/gcc/nios2-elf/4.7.3/../../../../../H-i686-mingw32/nios2-elf/lib\libc.a(lib_a-strlen.o)
 .debug_info    0x00006728       0xf9 c:/altera/13.1/nios2eds/bin/gnu/h-i686-mingw32/bin/../lib/gcc/nios2-elf/4.7.3/../../../../../H-i686-mingw32/nios2-elf/lib\libc.a(lib_a-strncmp.o)
 .debug_info    0x00006821       0x65 c:/altera/13.1/nios2eds/bin/gnu/h-i686-mingw32/bin/../lib/gcc/nios2-elf/4.7.3/../../../../../H-i686-mingw32/nios2-elf/lib\libc.a(lib_a-u_strerr.o)
 .debug_info    0x00006886     0x195a c:/altera/13.1/nios2eds/bin/gnu/h-i686-mingw32/bin/../lib/gcc/nios2-elf/4.7.3/../../../../../H-i686-mingw32/nios2-elf/lib\libc.a(lib_a-vfprintf.o)
 .debug_info    0x000081e0      0x9d4 c:/altera/13.1/nios2eds/bin/gnu/h-i686-mingw32/bin/../lib/gcc/nios2-elf/4.7.3/../../../../../H-i686-mingw32/nios2-elf/lib\libc.a(lib_a-wsetup.o)
 .debug_info    0x00008bb4     0x1408 c:/altera/13.1/nios2eds/bin/gnu/h-i686-mingw32/bin/../lib/gcc/nios2-elf/4.7.3/../../../../../H-i686-mingw32/nios2-elf/lib\libc.a(lib_a-dtoa.o)
 .debug_info    0x00009fbc      0xad0 c:/altera/13.1/nios2eds/bin/gnu/h-i686-mingw32/bin/../lib/gcc/nios2-elf/4.7.3/../../../../../H-i686-mingw32/nios2-elf/lib\libc.a(lib_a-fflush.o)
 .debug_info    0x0000aa8c      0xd6f c:/altera/13.1/nios2eds/bin/gnu/h-i686-mingw32/bin/../lib/gcc/nios2-elf/4.7.3/../../../../../H-i686-mingw32/nios2-elf/lib\libc.a(lib_a-findfp.o)
 .debug_info    0x0000b7fb      0xa35 c:/altera/13.1/nios2eds/bin/gnu/h-i686-mingw32/bin/../lib/gcc/nios2-elf/4.7.3/../../../../../H-i686-mingw32/nios2-elf/lib\libc.a(lib_a-fputc.o)
 .debug_info    0x0000c230      0xaf9 c:/altera/13.1/nios2eds/bin/gnu/h-i686-mingw32/bin/../lib/gcc/nios2-elf/4.7.3/../../../../../H-i686-mingw32/nios2-elf/lib\libc.a(lib_a-fputs.o)
 .debug_info    0x0000cd29      0xcf9 c:/altera/13.1/nios2eds/bin/gnu/h-i686-mingw32/bin/../lib/gcc/nios2-elf/4.7.3/../../../../../H-i686-mingw32/nios2-elf/lib\libc.a(lib_a-freer.o)
 .debug_info    0x0000da22      0xd05 c:/altera/13.1/nios2eds/bin/gnu/h-i686-mingw32/bin/../lib/gcc/nios2-elf/4.7.3/../../../../../H-i686-mingw32/nios2-elf/lib\libc.a(lib_a-fvwrite.o)
 .debug_info    0x0000e727      0xb72 c:/altera/13.1/nios2eds/bin/gnu/h-i686-mingw32/bin/../lib/gcc/nios2-elf/4.7.3/../../../../../H-i686-mingw32/nios2-elf/lib\libc.a(lib_a-fwalk.o)
 .debug_info    0x0000f299      0x938 c:/altera/13.1/nios2eds/bin/gnu/h-i686-mingw32/bin/../lib/gcc/nios2-elf/4.7.3/../../../../../H-i686-mingw32/nios2-elf/lib\libc.a(lib_a-impure.o)
 .debug_info    0x0000fbd1      0xc10 c:/altera/13.1/nios2eds/bin/gnu/h-i686-mingw32/bin/../lib/gcc/nios2-elf/4.7.3/../../../../../H-i686-mingw32/nios2-elf/lib\libc.a(lib_a-locale.o)
 .debug_info    0x000107e1      0xbc2 c:/altera/13.1/nios2eds/bin/gnu/h-i686-mingw32/bin/../lib/gcc/nios2-elf/4.7.3/../../../../../H-i686-mingw32/nios2-elf/lib\libc.a(lib_a-makebuf.o)
 .debug_info    0x000113a3      0xe44 c:/altera/13.1/nios2eds/bin/gnu/h-i686-mingw32/bin/../lib/gcc/nios2-elf/4.7.3/../../../../../H-i686-mingw32/nios2-elf/lib\libc.a(lib_a-mallocr.o)
 .debug_info    0x000121e7      0x13e c:/altera/13.1/nios2eds/bin/gnu/h-i686-mingw32/bin/../lib/gcc/nios2-elf/4.7.3/../../../../../H-i686-mingw32/nios2-elf/lib\libc.a(lib_a-memchr.o)
 .debug_info    0x00012325      0x146 c:/altera/13.1/nios2eds/bin/gnu/h-i686-mingw32/bin/../lib/gcc/nios2-elf/4.7.3/../../../../../H-i686-mingw32/nios2-elf/lib\libc.a(lib_a-memmove.o)
 .debug_info    0x0001246b     0x172a c:/altera/13.1/nios2eds/bin/gnu/h-i686-mingw32/bin/../lib/gcc/nios2-elf/4.7.3/../../../../../H-i686-mingw32/nios2-elf/lib\libc.a(lib_a-mprec.o)
 .debug_info    0x00013b95      0xa2e c:/altera/13.1/nios2eds/bin/gnu/h-i686-mingw32/bin/../lib/gcc/nios2-elf/4.7.3/../../../../../H-i686-mingw32/nios2-elf/lib\libc.a(lib_a-putc.o)
 .debug_info    0x000145c3      0xd8e c:/altera/13.1/nios2eds/bin/gnu/h-i686-mingw32/bin/../lib/gcc/nios2-elf/4.7.3/../../../../../H-i686-mingw32/nios2-elf/lib\libc.a(lib_a-reallocr.o)
 .debug_info    0x00015351       0xe8 c:/altera/13.1/nios2eds/bin/gnu/h-i686-mingw32/bin/../lib/gcc/nios2-elf/4.7.3/../../../../../H-i686-mingw32/nios2-elf/lib\libc.a(lib_a-s_isinfd.o)
 .debug_info    0x00015439       0xe8 c:/altera/13.1/nios2eds/bin/gnu/h-i686-mingw32/bin/../lib/gcc/nios2-elf/4.7.3/../../../../../H-i686-mingw32/nios2-elf/lib\libc.a(lib_a-s_isnand.o)
 .debug_info    0x00015521      0x9a3 c:/altera/13.1/nios2eds/bin/gnu/h-i686-mingw32/bin/../lib/gcc/nios2-elf/4.7.3/../../../../../H-i686-mingw32/nios2-elf/lib\libc.a(lib_a-sbrkr.o)
 .debug_info    0x00015ec4      0xbfd c:/altera/13.1/nios2eds/bin/gnu/h-i686-mingw32/bin/../lib/gcc/nios2-elf/4.7.3/../../../../../H-i686-mingw32/nios2-elf/lib\libc.a(lib_a-stdio.o)
 .debug_info    0x00016ac1       0xe1 c:/altera/13.1/nios2eds/bin/gnu/h-i686-mingw32/bin/../lib/gcc/nios2-elf/4.7.3/../../../../../H-i686-mingw32/nios2-elf/lib\libc.a(lib_a-strcmp.o)
 .debug_info    0x00016ba2      0xa6e c:/altera/13.1/nios2eds/bin/gnu/h-i686-mingw32/bin/../lib/gcc/nios2-elf/4.7.3/../../../../../H-i686-mingw32/nios2-elf/lib\libc.a(lib_a-wbuf.o)
 .debug_info    0x00017610      0x9d2 c:/altera/13.1/nios2eds/bin/gnu/h-i686-mingw32/bin/../lib/gcc/nios2-elf/4.7.3/../../../../../H-i686-mingw32/nios2-elf/lib\libc.a(lib_a-writer.o)
 .debug_info    0x00017fe2      0xa9b c:/altera/13.1/nios2eds/bin/gnu/h-i686-mingw32/bin/../lib/gcc/nios2-elf/4.7.3/../../../../../H-i686-mingw32/nios2-elf/lib\libc.a(lib_a-callocr.o)
 .debug_info    0x00018a7d      0x97f c:/altera/13.1/nios2eds/bin/gnu/h-i686-mingw32/bin/../lib/gcc/nios2-elf/4.7.3/../../../../../H-i686-mingw32/nios2-elf/lib\libc.a(lib_a-closer.o)
 .debug_info    0x000193fc      0xa97 c:/altera/13.1/nios2eds/bin/gnu/h-i686-mingw32/bin/../lib/gcc/nios2-elf/4.7.3/../../../../../H-i686-mingw32/nios2-elf/lib\libc.a(lib_a-fclose.o)
 .debug_info    0x00019e93      0xb2f c:/altera/13.1/nios2eds/bin/gnu/h-i686-mingw32/bin/../lib/gcc/nios2-elf/4.7.3/../../../../../H-i686-mingw32/nios2-elf/lib\libc.a(lib_a-fstatr.o)
 .debug_info    0x0001a9c2       0x84 c:/altera/13.1/nios2eds/bin/gnu/h-i686-mingw32/bin/../lib/gcc/nios2-elf/4.7.3/../../../../../H-i686-mingw32/nios2-elf/lib\libc.a(lib_a-int_errno.o)
 .debug_info    0x0001aa46      0x97f c:/altera/13.1/nios2eds/bin/gnu/h-i686-mingw32/bin/../lib/gcc/nios2-elf/4.7.3/../../../../../H-i686-mingw32/nios2-elf/lib\libc.a(lib_a-isattyr.o)
 .debug_info    0x0001b3c5      0x9cb c:/altera/13.1/nios2eds/bin/gnu/h-i686-mingw32/bin/../lib/gcc/nios2-elf/4.7.3/../../../../../H-i686-mingw32/nios2-elf/lib\libc.a(lib_a-lseekr.o)
 .debug_info    0x0001bd90      0x9cb c:/altera/13.1/nios2eds/bin/gnu/h-i686-mingw32/bin/../lib/gcc/nios2-elf/4.7.3/../../../../../H-i686-mingw32/nios2-elf/lib\libc.a(lib_a-readr.o)
 .debug_info    0x0001c75b      0x718 c:/altera/13.1/nios2eds/bin/gnu/h-i686-mingw32/bin/../lib/gcc/nios2-elf/4.7.3\libgcc.a(_udivdi3.o)
 .debug_info    0x0001ce73      0x771 c:/altera/13.1/nios2eds/bin/gnu/h-i686-mingw32/bin/../lib/gcc/nios2-elf/4.7.3\libgcc.a(_umoddi3.o)
 .debug_info    0x0001d5e4      0x588 c:/altera/13.1/nios2eds/bin/gnu/h-i686-mingw32/bin/../lib/gcc/nios2-elf/4.7.3\libgcc.a(_addsub_df.o)
 .debug_info    0x0001db6c      0x519 c:/altera/13.1/nios2eds/bin/gnu/h-i686-mingw32/bin/../lib/gcc/nios2-elf/4.7.3\libgcc.a(_mul_df.o)
 .debug_info    0x0001e085      0x443 c:/altera/13.1/nios2eds/bin/gnu/h-i686-mingw32/bin/../lib/gcc/nios2-elf/4.7.3\libgcc.a(_div_df.o)
 .debug_info    0x0001e4c8      0x320 c:/altera/13.1/nios2eds/bin/gnu/h-i686-mingw32/bin/../lib/gcc/nios2-elf/4.7.3\libgcc.a(_eq_df.o)
 .debug_info    0x0001e7e8      0x320 c:/altera/13.1/nios2eds/bin/gnu/h-i686-mingw32/bin/../lib/gcc/nios2-elf/4.7.3\libgcc.a(_ne_df.o)
 .debug_info    0x0001eb08      0x320 c:/altera/13.1/nios2eds/bin/gnu/h-i686-mingw32/bin/../lib/gcc/nios2-elf/4.7.3\libgcc.a(_gt_df.o)
 .debug_info    0x0001ee28      0x320 c:/altera/13.1/nios2eds/bin/gnu/h-i686-mingw32/bin/../lib/gcc/nios2-elf/4.7.3\libgcc.a(_ge_df.o)
 .debug_info    0x0001f148      0x320 c:/altera/13.1/nios2eds/bin/gnu/h-i686-mingw32/bin/../lib/gcc/nios2-elf/4.7.3\libgcc.a(_lt_df.o)
 .debug_info    0x0001f468      0x261 c:/altera/13.1/nios2eds/bin/gnu/h-i686-mingw32/bin/../lib/gcc/nios2-elf/4.7.3\libgcc.a(_si_to_df.o)
 .debug_info    0x0001f6c9      0x30b c:/altera/13.1/nios2eds/bin/gnu/h-i686-mingw32/bin/../lib/gcc/nios2-elf/4.7.3\libgcc.a(_df_to_si.o)
 .debug_info    0x0001f9d4      0x155 c:/altera/13.1/nios2eds/bin/gnu/h-i686-mingw32/bin/../lib/gcc/nios2-elf/4.7.3\libgcc.a(_thenan_df.o)
 .debug_info    0x0001fb29      0x284 c:/altera/13.1/nios2eds/bin/gnu/h-i686-mingw32/bin/../lib/gcc/nios2-elf/4.7.3\libgcc.a(_usi_to_df.o)
 .debug_info    0x0001fdad      0x289 c:/altera/13.1/nios2eds/bin/gnu/h-i686-mingw32/bin/../lib/gcc/nios2-elf/4.7.3\libgcc.a(lib2-divmod.o)
 .debug_info    0x00020036      0x1ea c:/altera/13.1/nios2eds/bin/gnu/h-i686-mingw32/bin/../lib/gcc/nios2-elf/4.7.3\libgcc.a(_muldi3.o)
 .debug_info    0x00020220       0xac c:/altera/13.1/nios2eds/bin/gnu/h-i686-mingw32/bin/../lib/gcc/nios2-elf/4.7.3\libgcc.a(_clz.o)
 .debug_info    0x000202cc      0x123 c:/altera/13.1/nios2eds/bin/gnu/h-i686-mingw32/bin/../lib/gcc/nios2-elf/4.7.3\libgcc.a(_clzsi2.o)
 .debug_info    0x000203ef      0x2f7 c:/altera/13.1/nios2eds/bin/gnu/h-i686-mingw32/bin/../lib/gcc/nios2-elf/4.7.3\libgcc.a(_pack_df.o)
 .debug_info    0x000206e6      0x265 c:/altera/13.1/nios2eds/bin/gnu/h-i686-mingw32/bin/../lib/gcc/nios2-elf/4.7.3\libgcc.a(_unpack_df.o)
 .debug_info    0x0002094b      0x226 c:/altera/13.1/nios2eds/bin/gnu/h-i686-mingw32/bin/../lib/gcc/nios2-elf/4.7.3\libgcc.a(_fpcmp_parts_df.o)
 .debug_info    0x00020b71      0x185 c:/altera/13.1/nios2eds/bin/gnu/h-i686-mingw32/bin/../lib/gcc/nios2-elf/4.7.3\libgcc.a(_lshrdi3.o)
 .debug_info    0x00020cf6      0x185 c:/altera/13.1/nios2eds/bin/gnu/h-i686-mingw32/bin/../lib/gcc/nios2-elf/4.7.3\libgcc.a(_ashldi3.o)
 .debug_info    0x00020e7b      0x1ee ../FreeLwIP_bsp/\libfreertos_bsp.a(alt_main.o)
 .debug_info    0x00021069      0x97c ../FreeLwIP_bsp/\libfreertos_bsp.a(alt_malloc_lock.o)
 .debug_info    0x000219e5       0xe6 ../FreeLwIP_bsp/\libfreertos_bsp.a(heap_3.o)
 .debug_info    0x00021acb      0x99f ../FreeLwIP_bsp/\libfreertos_bsp.a(queue.o)
 .debug_info    0x0002246a     0x10eb ../FreeLwIP_bsp/\libfreertos_bsp.a(tasks.o)
 .debug_info    0x00023555      0x76d ../FreeLwIP_bsp/\libfreertos_bsp.a(timers.o)
 .debug_info    0x00023cc2      0x50b ../FreeLwIP_bsp/\libfreertos_bsp.a(alt_dev.o)
 .debug_info    0x000241cd       0x8d ../FreeLwIP_bsp/\libfreertos_bsp.a(alt_do_ctors.o)
 .debug_info    0x0002425a       0x8d ../FreeLwIP_bsp/\libfreertos_bsp.a(alt_do_dtors.o)
 .debug_info    0x000242e7      0x4d8 ../FreeLwIP_bsp/\libfreertos_bsp.a(alt_fstat.o)
 .debug_info    0x000247bf      0x4f0 ../FreeLwIP_bsp/\libfreertos_bsp.a(alt_io_redirect.o)
 .debug_info    0x00024caf      0x4db ../FreeLwIP_bsp/\libfreertos_bsp.a(alt_isatty.o)
 .debug_info    0x0002518a      0x135 ../FreeLwIP_bsp/\libfreertos_bsp.a(alt_load.o)
 .debug_info    0x000252bf      0x381 ../FreeLwIP_bsp/\libfreertos_bsp.a(alt_lseek.o)
 .debug_info    0x00025640      0x3f0 ../FreeLwIP_bsp/\libfreertos_bsp.a(alt_open.o)
 .debug_info    0x00025a30      0x2eb ../FreeLwIP_bsp/\libfreertos_bsp.a(alt_release_fd.o)
 .debug_info    0x00025d1b      0x1e1 ../FreeLwIP_bsp/\libfreertos_bsp.a(alt_sbrk.o)
 .debug_info    0x00025efc      0x11e ../FreeLwIP_bsp/\libfreertos_bsp.a(alt_usleep.o)
 .debug_info    0x0002601a     0x1361 ../FreeLwIP_bsp/\libfreertos_bsp.a(api_lib.o)
 .debug_info    0x0002737b     0x15fa ../FreeLwIP_bsp/\libfreertos_bsp.a(api_msg.o)
 .debug_info    0x00028975      0x472 ../FreeLwIP_bsp/\libfreertos_bsp.a(netbuf.o)
 .debug_info    0x00028de7     0x1f2b ../FreeLwIP_bsp/\libfreertos_bsp.a(sockets.o)
 .debug_info    0x0002ad12      0xd20 ../FreeLwIP_bsp/\libfreertos_bsp.a(tcpip.o)
 .debug_info    0x0002ba32       0xa2 ../FreeLwIP_bsp/\libfreertos_bsp.a(alt_lwip_close.o)
 .debug_info    0x0002bad4       0xcb ../FreeLwIP_bsp/\libfreertos_bsp.a(alt_lwip_read.o)
 .debug_info    0x0002bb9f       0xd4 ../FreeLwIP_bsp/\libfreertos_bsp.a(alt_lwip_write.o)
 .debug_info    0x0002bc73     0x1a62 ../FreeLwIP_bsp/\libfreertos_bsp.a(lwip_main.o)
 .debug_info    0x0002d6d5     0x1abc ../FreeLwIP_bsp/\libfreertos_bsp.a(lwip_tse_mac.o)
 .debug_info    0x0002f191      0x843 ../FreeLwIP_bsp/\libfreertos_bsp.a(sys_arch.o)
 .debug_info    0x0002f9d4     0x135a ../FreeLwIP_bsp/\libfreertos_bsp.a(dhcp.o)
 .debug_info    0x00030d2e       0x91 ../FreeLwIP_bsp/\libfreertos_bsp.a(init.o)
 .debug_info    0x00030dbf      0xdfe ../FreeLwIP_bsp/\libfreertos_bsp.a(ip.o)
 .debug_info    0x00031bbd      0x62c ../FreeLwIP_bsp/\libfreertos_bsp.a(ip_addr.o)
 .debug_info    0x000321e9      0xd78 ../FreeLwIP_bsp/\libfreertos_bsp.a(ip_frag.o)
 .debug_info    0x00032f61      0x654 ../FreeLwIP_bsp/\libfreertos_bsp.a(mem.o)
 .debug_info    0x000335b5      0x4e8 ../FreeLwIP_bsp/\libfreertos_bsp.a(memp.o)
 .debug_info    0x00033a9d     0x11e4 ../FreeLwIP_bsp/\libfreertos_bsp.a(netif.o)
 .debug_info    0x00034c81     0x10e9 ../FreeLwIP_bsp/\libfreertos_bsp.a(pbuf.o)
 .debug_info    0x00035d6a      0x8b4 ../FreeLwIP_bsp/\libfreertos_bsp.a(raw.o)
 .debug_info    0x0003661e      0x367 ../FreeLwIP_bsp/\libfreertos_bsp.a(stats.o)
 .debug_info    0x00036985     0x1913 ../FreeLwIP_bsp/\libfreertos_bsp.a(tcp.o)
 .debug_info    0x00038298     0x11e3 ../FreeLwIP_bsp/\libfreertos_bsp.a(tcp_in.o)
 .debug_info    0x0003947b     0x1502 ../FreeLwIP_bsp/\libfreertos_bsp.a(tcp_out.o)
 .debug_info    0x0003a97d      0xa75 ../FreeLwIP_bsp/\libfreertos_bsp.a(timers.o)
 .debug_info    0x0003b3f2     0x10be ../FreeLwIP_bsp/\libfreertos_bsp.a(udp.o)
 .debug_info    0x0003c4b0     0x13fa ../FreeLwIP_bsp/\libfreertos_bsp.a(etharp.o)
 .debug_info    0x0003d8aa      0xe50 ../FreeLwIP_bsp/\libfreertos_bsp.a(alt_sys_init.o)
 .debug_info    0x0003e6fa      0x852 ../FreeLwIP_bsp/\libfreertos_bsp.a(altera_avalon_cfi_flash.o)
 .debug_info    0x0003ef4c      0x9e5 ../FreeLwIP_bsp/\libfreertos_bsp.a(altera_avalon_cfi_flash_table.o)
 .debug_info    0x0003f931      0x5bc ../FreeLwIP_bsp/\libfreertos_bsp.a(altera_avalon_jtag_uart_fd.o)
 .debug_info    0x0003feed      0x48b ../FreeLwIP_bsp/\libfreertos_bsp.a(altera_avalon_jtag_uart_init.o)
 .debug_info    0x00040378      0x2db ../FreeLwIP_bsp/\libfreertos_bsp.a(altera_avalon_jtag_uart_ioctl.o)
 .debug_info    0x00040653      0x415 ../FreeLwIP_bsp/\libfreertos_bsp.a(altera_avalon_jtag_uart_read.o)
 .debug_info    0x00040a68      0x410 ../FreeLwIP_bsp/\libfreertos_bsp.a(altera_avalon_jtag_uart_write.o)
 .debug_info    0x00040e78      0x7e2 ../FreeLwIP_bsp/\libfreertos_bsp.a(altera_avalon_lcd_16207.o)
 .debug_info    0x0004165a      0x54a ../FreeLwIP_bsp/\libfreertos_bsp.a(altera_avalon_lcd_16207_fd.o)
 .debug_info    0x00041ba4      0xb3d ../FreeLwIP_bsp/\libfreertos_bsp.a(altera_avalon_sgdma.o)
 .debug_info    0x000426e1      0x252 ../FreeLwIP_bsp/\libfreertos_bsp.a(altera_avalon_timer_sc.o)
 .debug_info    0x00042933     0x2642 ../FreeLwIP_bsp/\libfreertos_bsp.a(altera_avalon_tse.o)
 .debug_info    0x00044f75      0x97c ../FreeLwIP_bsp/\libfreertos_bsp.a(altera_avalon_tse_system_info.o)
 .debug_info    0x000458f1      0x4b3 ../FreeLwIP_bsp/\libfreertos_bsp.a(altera_avalon_uart_fd.o)
 .debug_info    0x00045da4      0x3e7 ../FreeLwIP_bsp/\libfreertos_bsp.a(altera_avalon_uart_init.o)
 .debug_info    0x0004618b      0x405 ../FreeLwIP_bsp/\libfreertos_bsp.a(altera_avalon_uart_read.o)
 .debug_info    0x00046590      0x3fb ../FreeLwIP_bsp/\libfreertos_bsp.a(altera_avalon_uart_write.o)
 .debug_info    0x0004698b       0x94 ../FreeLwIP_bsp/\libfreertos_bsp.a(altera_vic_0_vector_tbl.o)
 .debug_info    0x00046a1f       0x9d ../FreeLwIP_bsp/\libfreertos_bsp.a(altera_vic_funnel_non_preemptive.o)
 .debug_info    0x00046abc      0x1a9 ../FreeLwIP_bsp/\libfreertos_bsp.a(altera_vic_irq_init.o)
 .debug_info    0x00046c65      0x297 ../FreeLwIP_bsp/\libfreertos_bsp.a(altera_vic_isr_register.o)
 .debug_info    0x00046efc      0x97c ../FreeLwIP_bsp/\libfreertos_bsp.a(alt_env_lock.o)
 .debug_info    0x00047878      0x2b2 ../FreeLwIP_bsp/\libfreertos_bsp.a(list.o)
 .debug_info    0x00047b2a      0x272 ../FreeLwIP_bsp/\libfreertos_bsp.a(port.o)
 .debug_info    0x00047d9c       0x82 ../FreeLwIP_bsp/\libfreertos_bsp.a(port_asm.o)
 .debug_info    0x00047e1e      0x301 ../FreeLwIP_bsp/\libfreertos_bsp.a(alt_alarm_start.o)
 .debug_info    0x0004811f       0xd5 ../FreeLwIP_bsp/\libfreertos_bsp.a(alt_busy_sleep.o)
 .debug_info    0x000481f4      0x350 ../FreeLwIP_bsp/\libfreertos_bsp.a(alt_close.o)
 .debug_info    0x00048544       0xba ../FreeLwIP_bsp/\libfreertos_bsp.a(alt_dcache_flush.o)
 .debug_info    0x000485fe       0x90 ../FreeLwIP_bsp/\libfreertos_bsp.a(alt_dcache_flush_all.o)
 .debug_info    0x0004868e      0x1b9 ../FreeLwIP_bsp/\libfreertos_bsp.a(alt_dev_llist_insert.o)
 .debug_info    0x00048847       0xa3 ../FreeLwIP_bsp/\libfreertos_bsp.a(alt_errno.o)
 .debug_info    0x000488ea      0x30d ../FreeLwIP_bsp/\libfreertos_bsp.a(alt_find_dev.o)
 .debug_info    0x00048bf7      0x30c ../FreeLwIP_bsp/\libfreertos_bsp.a(alt_find_file.o)
 .debug_info    0x00048f03      0x3ce ../FreeLwIP_bsp/\libfreertos_bsp.a(alt_flash_dev.o)
 .debug_info    0x000492d1      0x3ad ../FreeLwIP_bsp/\libfreertos_bsp.a(alt_get_fd.o)
 .debug_info    0x0004967e      0x1e6 ../FreeLwIP_bsp/\libfreertos_bsp.a(alt_gettod.o)
 .debug_info    0x00049864       0x90 ../FreeLwIP_bsp/\libfreertos_bsp.a(alt_icache_flush_all.o)
 .debug_info    0x000498f4      0x1e8 ../FreeLwIP_bsp/\libfreertos_bsp.a(alt_instruction_exception_entry.o)
 .debug_info    0x00049adc      0x500 ../FreeLwIP_bsp/\libfreertos_bsp.a(alt_read.o)
 .debug_info    0x00049fdc       0xc9 ../FreeLwIP_bsp/\libfreertos_bsp.a(alt_remap_uncached.o)
 .debug_info    0x0004a0a5      0x2ce ../FreeLwIP_bsp/\libfreertos_bsp.a(alt_tick.o)
 .debug_info    0x0004a373       0xd4 ../FreeLwIP_bsp/\libfreertos_bsp.a(alt_uncached_malloc.o)
 .debug_info    0x0004a447      0x507 ../FreeLwIP_bsp/\libfreertos_bsp.a(alt_write.o)
 .debug_info    0x0004a94e     0x13eb ../FreeLwIP_bsp/\libfreertos_bsp.a(altera_tse_ethernetif.o)
 .debug_info    0x0004bd39      0x937 ../FreeLwIP_bsp/\libfreertos_bsp.a(icmp.o)
 .debug_info    0x0004c670      0x461 ../FreeLwIP_bsp/\libfreertos_bsp.a(inet_chksum.o)
 .debug_info    0x0004cad1      0x65f ../FreeLwIP_bsp/\libfreertos_bsp.a(altera_avalon_cfi_flash_amd.o)
 .debug_info    0x0004d130      0x65f ../FreeLwIP_bsp/\libfreertos_bsp.a(altera_avalon_cfi_flash_intel.o)
 .debug_info    0x0004d78f       0xda ../FreeLwIP_bsp/\libfreertos_bsp.a(alt_icache_flush.o)
 .debug_info    0x0004d869      0x1e6 c:/altera/13.1/nios2eds/bin/gnu/h-i686-mingw32/bin/../lib/gcc/nios2-elf/4.7.3/../../../../../H-i686-mingw32/nios2-elf/lib\libc.a(lib_a-atexit.o)
 .debug_info    0x0004da4f       0x98 c:/altera/13.1/nios2eds/bin/gnu/h-i686-mingw32/bin/../lib/gcc/nios2-elf/4.7.3/../../../../../H-i686-mingw32/nios2-elf/lib\libc.a(lib_a-ctype_.o)
 .debug_info    0x0004dae7      0x931 c:/altera/13.1/nios2eds/bin/gnu/h-i686-mingw32/bin/../lib/gcc/nios2-elf/4.7.3/../../../../../H-i686-mingw32/nios2-elf/lib\libc.a(lib_a-errno.o)
 .debug_info    0x0004e418      0x993 c:/altera/13.1/nios2eds/bin/gnu/h-i686-mingw32/bin/../lib/gcc/nios2-elf/4.7.3/../../../../../H-i686-mingw32/nios2-elf/lib\libc.a(lib_a-exit.o)
 .debug_info    0x0004edab      0x9c9 c:/altera/13.1/nios2eds/bin/gnu/h-i686-mingw32/bin/../lib/gcc/nios2-elf/4.7.3/../../../../../H-i686-mingw32/nios2-elf/lib\libc.a(lib_a-malloc.o)
 .debug_info    0x0004f774      0x117 c:/altera/13.1/nios2eds/bin/gnu/h-i686-mingw32/bin/../lib/gcc/nios2-elf/4.7.3/../../../../../H-i686-mingw32/nios2-elf/lib\libc.a(lib_a-memcmp.o)
 .debug_info    0x0004f88b      0xab8 c:/altera/13.1/nios2eds/bin/gnu/h-i686-mingw32/bin/../lib/gcc/nios2-elf/4.7.3/../../../../../H-i686-mingw32/nios2-elf/lib\libc.a(lib_a-snprintf.o)
 .debug_info    0x00050343      0x12e c:/altera/13.1/nios2eds/bin/gnu/h-i686-mingw32/bin/../lib/gcc/nios2-elf/4.7.3/../../../../../H-i686-mingw32/nios2-elf/lib\libc.a(lib_a-strncpy.o)
 .debug_info    0x00050471      0x9f9 c:/altera/13.1/nios2eds/bin/gnu/h-i686-mingw32/bin/../lib/gcc/nios2-elf/4.7.3/../../../../../H-i686-mingw32/nios2-elf/lib\libc.a(lib_a-__atexit.o)
 .debug_info    0x00050e6a      0xa07 c:/altera/13.1/nios2eds/bin/gnu/h-i686-mingw32/bin/../lib/gcc/nios2-elf/4.7.3/../../../../../H-i686-mingw32/nios2-elf/lib\libc.a(lib_a-__call_atexit.o)
 .debug_info    0x00051871       0xec ../FreeLwIP_bsp/\libfreertos_bsp.a(alt_exit.o)

.debug_abbrev   0x00000000    0x109fb
 *(.debug_abbrev)
 .debug_abbrev  0x00000000       0x12 ../FreeLwIP_bsp//obj/HAL/src/crt0.o
 .debug_abbrev  0x00000012      0x15a obj/default/BasicWEB.o
 .debug_abbrev  0x0000016c      0x100 obj/default/BlockQ.o
 .debug_abbrev  0x0000026c       0xe7 obj/default/GenQTest.o
 .debug_abbrev  0x00000353       0xb1 obj/default/PollQ.o
 .debug_abbrev  0x00000404       0xf8 obj/default/QPeek.o
 .debug_abbrev  0x000004fc       0xe5 obj/default/blocktim.o
 .debug_abbrev  0x000005e1      0x106 obj/default/countsem.o
 .debug_abbrev  0x000006e7       0xe1 obj/default/death.o
 .debug_abbrev  0x000007c8       0xff obj/default/dynamic.o
 .debug_abbrev  0x000008c7       0xfa obj/default/echo_server.o
 .debug_abbrev  0x000009c1      0x25d obj/default/ethernet.o
 .debug_abbrev  0x00000c1e       0xcc obj/default/integer.o
 .debug_abbrev  0x00000cea      0x129 obj/default/main.o
 .debug_abbrev  0x00000e13       0xf4 obj/default/recmutex.o
 .debug_abbrev  0x00000f07      0x100 obj/default/semtest.o
 .debug_abbrev  0x00001007       0x9c c:/altera/13.1/nios2eds/bin/gnu/h-i686-mingw32/bin/../lib/gcc/nios2-elf/4.7.3/../../../../../H-i686-mingw32/nios2-elf/lib\libc.a(lib_a-memcpy.o)
 .debug_abbrev  0x000010a3       0xac c:/altera/13.1/nios2eds/bin/gnu/h-i686-mingw32/bin/../lib/gcc/nios2-elf/4.7.3/../../../../../H-i686-mingw32/nios2-elf/lib\libc.a(lib_a-memset.o)
 .debug_abbrev  0x0000114f      0x21e c:/altera/13.1/nios2eds/bin/gnu/h-i686-mingw32/bin/../lib/gcc/nios2-elf/4.7.3/../../../../../H-i686-mingw32/nios2-elf/lib\libc.a(lib_a-perror.o)
 .debug_abbrev  0x0000136d      0x209 c:/altera/13.1/nios2eds/bin/gnu/h-i686-mingw32/bin/../lib/gcc/nios2-elf/4.7.3/../../../../../H-i686-mingw32/nios2-elf/lib\libc.a(lib_a-printf.o)
 .debug_abbrev  0x00001576      0x208 c:/altera/13.1/nios2eds/bin/gnu/h-i686-mingw32/bin/../lib/gcc/nios2-elf/4.7.3/../../../../../H-i686-mingw32/nios2-elf/lib\libc.a(lib_a-puts.o)
 .debug_abbrev  0x0000177e      0x1f6 c:/altera/13.1/nios2eds/bin/gnu/h-i686-mingw32/bin/../lib/gcc/nios2-elf/4.7.3/../../../../../H-i686-mingw32/nios2-elf/lib\libc.a(lib_a-sprintf.o)
 .debug_abbrev  0x00001974       0xb3 c:/altera/13.1/nios2eds/bin/gnu/h-i686-mingw32/bin/../lib/gcc/nios2-elf/4.7.3/../../../../../H-i686-mingw32/nios2-elf/lib\libc.a(lib_a-strcat.o)
 .debug_abbrev  0x00001a27       0x83 c:/altera/13.1/nios2eds/bin/gnu/h-i686-mingw32/bin/../lib/gcc/nios2-elf/4.7.3/../../../../../H-i686-mingw32/nios2-elf/lib\libc.a(lib_a-strcpy.o)
 .debug_abbrev  0x00001aaa       0xa7 c:/altera/13.1/nios2eds/bin/gnu/h-i686-mingw32/bin/../lib/gcc/nios2-elf/4.7.3/../../../../../H-i686-mingw32/nios2-elf/lib\libc.a(lib_a-strerror.o)
 .debug_abbrev  0x00001b51       0x90 c:/altera/13.1/nios2eds/bin/gnu/h-i686-mingw32/bin/../lib/gcc/nios2-elf/4.7.3/../../../../../H-i686-mingw32/nios2-elf/lib\libc.a(lib_a-strlen.o)
 .debug_abbrev  0x00001be1       0x81 c:/altera/13.1/nios2eds/bin/gnu/h-i686-mingw32/bin/../lib/gcc/nios2-elf/4.7.3/../../../../../H-i686-mingw32/nios2-elf/lib\libc.a(lib_a-strncmp.o)
 .debug_abbrev  0x00001c62       0x5e c:/altera/13.1/nios2eds/bin/gnu/h-i686-mingw32/bin/../lib/gcc/nios2-elf/4.7.3/../../../../../H-i686-mingw32/nios2-elf/lib\libc.a(lib_a-u_strerr.o)
 .debug_abbrev  0x00001cc0      0x3d9 c:/altera/13.1/nios2eds/bin/gnu/h-i686-mingw32/bin/../lib/gcc/nios2-elf/4.7.3/../../../../../H-i686-mingw32/nios2-elf/lib\libc.a(lib_a-vfprintf.o)
 .debug_abbrev  0x00002099      0x1d5 c:/altera/13.1/nios2eds/bin/gnu/h-i686-mingw32/bin/../lib/gcc/nios2-elf/4.7.3/../../../../../H-i686-mingw32/nios2-elf/lib\libc.a(lib_a-wsetup.o)
 .debug_abbrev  0x0000226e      0x2ab c:/altera/13.1/nios2eds/bin/gnu/h-i686-mingw32/bin/../lib/gcc/nios2-elf/4.7.3/../../../../../H-i686-mingw32/nios2-elf/lib\libc.a(lib_a-dtoa.o)
 .debug_abbrev  0x00002519      0x259 c:/altera/13.1/nios2eds/bin/gnu/h-i686-mingw32/bin/../lib/gcc/nios2-elf/4.7.3/../../../../../H-i686-mingw32/nios2-elf/lib\libc.a(lib_a-fflush.o)
 .debug_abbrev  0x00002772      0x317 c:/altera/13.1/nios2eds/bin/gnu/h-i686-mingw32/bin/../lib/gcc/nios2-elf/4.7.3/../../../../../H-i686-mingw32/nios2-elf/lib\libc.a(lib_a-findfp.o)
 .debug_abbrev  0x00002a89      0x212 c:/altera/13.1/nios2eds/bin/gnu/h-i686-mingw32/bin/../lib/gcc/nios2-elf/4.7.3/../../../../../H-i686-mingw32/nios2-elf/lib\libc.a(lib_a-fputc.o)
 .debug_abbrev  0x00002c9b      0x21b c:/altera/13.1/nios2eds/bin/gnu/h-i686-mingw32/bin/../lib/gcc/nios2-elf/4.7.3/../../../../../H-i686-mingw32/nios2-elf/lib\libc.a(lib_a-fputs.o)
 .debug_abbrev  0x00002eb6      0x25d c:/altera/13.1/nios2eds/bin/gnu/h-i686-mingw32/bin/../lib/gcc/nios2-elf/4.7.3/../../../../../H-i686-mingw32/nios2-elf/lib\libc.a(lib_a-freer.o)
 .debug_abbrev  0x00003113      0x234 c:/altera/13.1/nios2eds/bin/gnu/h-i686-mingw32/bin/../lib/gcc/nios2-elf/4.7.3/../../../../../H-i686-mingw32/nios2-elf/lib\libc.a(lib_a-fvwrite.o)
 .debug_abbrev  0x00003347      0x224 c:/altera/13.1/nios2eds/bin/gnu/h-i686-mingw32/bin/../lib/gcc/nios2-elf/4.7.3/../../../../../H-i686-mingw32/nios2-elf/lib\libc.a(lib_a-fwalk.o)
 .debug_abbrev  0x0000356b      0x162 c:/altera/13.1/nios2eds/bin/gnu/h-i686-mingw32/bin/../lib/gcc/nios2-elf/4.7.3/../../../../../H-i686-mingw32/nios2-elf/lib\libc.a(lib_a-impure.o)
 .debug_abbrev  0x000036cd      0x29f c:/altera/13.1/nios2eds/bin/gnu/h-i686-mingw32/bin/../lib/gcc/nios2-elf/4.7.3/../../../../../H-i686-mingw32/nios2-elf/lib\libc.a(lib_a-locale.o)
 .debug_abbrev  0x0000396c      0x1e8 c:/altera/13.1/nios2eds/bin/gnu/h-i686-mingw32/bin/../lib/gcc/nios2-elf/4.7.3/../../../../../H-i686-mingw32/nios2-elf/lib\libc.a(lib_a-makebuf.o)
 .debug_abbrev  0x00003b54      0x284 c:/altera/13.1/nios2eds/bin/gnu/h-i686-mingw32/bin/../lib/gcc/nios2-elf/4.7.3/../../../../../H-i686-mingw32/nios2-elf/lib\libc.a(lib_a-mallocr.o)
 .debug_abbrev  0x00003dd8       0xab c:/altera/13.1/nios2eds/bin/gnu/h-i686-mingw32/bin/../lib/gcc/nios2-elf/4.7.3/../../../../../H-i686-mingw32/nios2-elf/lib\libc.a(lib_a-memchr.o)
 .debug_abbrev  0x00003e83       0x9c c:/altera/13.1/nios2eds/bin/gnu/h-i686-mingw32/bin/../lib/gcc/nios2-elf/4.7.3/../../../../../H-i686-mingw32/nios2-elf/lib\libc.a(lib_a-memmove.o)
 .debug_abbrev  0x00003f1f      0x394 c:/altera/13.1/nios2eds/bin/gnu/h-i686-mingw32/bin/../lib/gcc/nios2-elf/4.7.3/../../../../../H-i686-mingw32/nios2-elf/lib\libc.a(lib_a-mprec.o)
 .debug_abbrev  0x000042b3      0x1f8 c:/altera/13.1/nios2eds/bin/gnu/h-i686-mingw32/bin/../lib/gcc/nios2-elf/4.7.3/../../../../../H-i686-mingw32/nios2-elf/lib\libc.a(lib_a-putc.o)
 .debug_abbrev  0x000044ab      0x242 c:/altera/13.1/nios2eds/bin/gnu/h-i686-mingw32/bin/../lib/gcc/nios2-elf/4.7.3/../../../../../H-i686-mingw32/nios2-elf/lib\libc.a(lib_a-reallocr.o)
 .debug_abbrev  0x000046ed       0x6f c:/altera/13.1/nios2eds/bin/gnu/h-i686-mingw32/bin/../lib/gcc/nios2-elf/4.7.3/../../../../../H-i686-mingw32/nios2-elf/lib\libc.a(lib_a-s_isinfd.o)
 .debug_abbrev  0x0000475c       0x6f c:/altera/13.1/nios2eds/bin/gnu/h-i686-mingw32/bin/../lib/gcc/nios2-elf/4.7.3/../../../../../H-i686-mingw32/nios2-elf/lib\libc.a(lib_a-s_isnand.o)
 .debug_abbrev  0x000047cb      0x1df c:/altera/13.1/nios2eds/bin/gnu/h-i686-mingw32/bin/../lib/gcc/nios2-elf/4.7.3/../../../../../H-i686-mingw32/nios2-elf/lib\libc.a(lib_a-sbrkr.o)
 .debug_abbrev  0x000049aa      0x226 c:/altera/13.1/nios2eds/bin/gnu/h-i686-mingw32/bin/../lib/gcc/nios2-elf/4.7.3/../../../../../H-i686-mingw32/nios2-elf/lib\libc.a(lib_a-stdio.o)
 .debug_abbrev  0x00004bd0       0x74 c:/altera/13.1/nios2eds/bin/gnu/h-i686-mingw32/bin/../lib/gcc/nios2-elf/4.7.3/../../../../../H-i686-mingw32/nios2-elf/lib\libc.a(lib_a-strcmp.o)
 .debug_abbrev  0x00004c44      0x21a c:/altera/13.1/nios2eds/bin/gnu/h-i686-mingw32/bin/../lib/gcc/nios2-elf/4.7.3/../../../../../H-i686-mingw32/nios2-elf/lib\libc.a(lib_a-wbuf.o)
 .debug_abbrev  0x00004e5e      0x1c0 c:/altera/13.1/nios2eds/bin/gnu/h-i686-mingw32/bin/../lib/gcc/nios2-elf/4.7.3/../../../../../H-i686-mingw32/nios2-elf/lib\libc.a(lib_a-writer.o)
 .debug_abbrev  0x0000501e      0x1f5 c:/altera/13.1/nios2eds/bin/gnu/h-i686-mingw32/bin/../lib/gcc/nios2-elf/4.7.3/../../../../../H-i686-mingw32/nios2-elf/lib\libc.a(lib_a-callocr.o)
 .debug_abbrev  0x00005213      0x1bb c:/altera/13.1/nios2eds/bin/gnu/h-i686-mingw32/bin/../lib/gcc/nios2-elf/4.7.3/../../../../../H-i686-mingw32/nios2-elf/lib\libc.a(lib_a-closer.o)
 .debug_abbrev  0x000053ce      0x24e c:/altera/13.1/nios2eds/bin/gnu/h-i686-mingw32/bin/../lib/gcc/nios2-elf/4.7.3/../../../../../H-i686-mingw32/nios2-elf/lib\libc.a(lib_a-fclose.o)
 .debug_abbrev  0x0000561c      0x1ca c:/altera/13.1/nios2eds/bin/gnu/h-i686-mingw32/bin/../lib/gcc/nios2-elf/4.7.3/../../../../../H-i686-mingw32/nios2-elf/lib\libc.a(lib_a-fstatr.o)
 .debug_abbrev  0x000057e6       0x37 c:/altera/13.1/nios2eds/bin/gnu/h-i686-mingw32/bin/../lib/gcc/nios2-elf/4.7.3/../../../../../H-i686-mingw32/nios2-elf/lib\libc.a(lib_a-int_errno.o)
 .debug_abbrev  0x0000581d      0x1bb c:/altera/13.1/nios2eds/bin/gnu/h-i686-mingw32/bin/../lib/gcc/nios2-elf/4.7.3/../../../../../H-i686-mingw32/nios2-elf/lib\libc.a(lib_a-isattyr.o)
 .debug_abbrev  0x000059d8      0x1ca c:/altera/13.1/nios2eds/bin/gnu/h-i686-mingw32/bin/../lib/gcc/nios2-elf/4.7.3/../../../../../H-i686-mingw32/nios2-elf/lib\libc.a(lib_a-lseekr.o)
 .debug_abbrev  0x00005ba2      0x1bb c:/altera/13.1/nios2eds/bin/gnu/h-i686-mingw32/bin/../lib/gcc/nios2-elf/4.7.3/../../../../../H-i686-mingw32/nios2-elf/lib\libc.a(lib_a-readr.o)
 .debug_abbrev  0x00005d5d      0x170 c:/altera/13.1/nios2eds/bin/gnu/h-i686-mingw32/bin/../lib/gcc/nios2-elf/4.7.3\libgcc.a(_udivdi3.o)
 .debug_abbrev  0x00005ecd      0x193 c:/altera/13.1/nios2eds/bin/gnu/h-i686-mingw32/bin/../lib/gcc/nios2-elf/4.7.3\libgcc.a(_umoddi3.o)
 .debug_abbrev  0x00006060      0x22d c:/altera/13.1/nios2eds/bin/gnu/h-i686-mingw32/bin/../lib/gcc/nios2-elf/4.7.3\libgcc.a(_addsub_df.o)
 .debug_abbrev  0x0000628d      0x240 c:/altera/13.1/nios2eds/bin/gnu/h-i686-mingw32/bin/../lib/gcc/nios2-elf/4.7.3\libgcc.a(_mul_df.o)
 .debug_abbrev  0x000064cd      0x245 c:/altera/13.1/nios2eds/bin/gnu/h-i686-mingw32/bin/../lib/gcc/nios2-elf/4.7.3\libgcc.a(_div_df.o)
 .debug_abbrev  0x00006712      0x1a5 c:/altera/13.1/nios2eds/bin/gnu/h-i686-mingw32/bin/../lib/gcc/nios2-elf/4.7.3\libgcc.a(_eq_df.o)
 .debug_abbrev  0x000068b7      0x1a5 c:/altera/13.1/nios2eds/bin/gnu/h-i686-mingw32/bin/../lib/gcc/nios2-elf/4.7.3\libgcc.a(_ne_df.o)
 .debug_abbrev  0x00006a5c      0x1a5 c:/altera/13.1/nios2eds/bin/gnu/h-i686-mingw32/bin/../lib/gcc/nios2-elf/4.7.3\libgcc.a(_gt_df.o)
 .debug_abbrev  0x00006c01      0x1a5 c:/altera/13.1/nios2eds/bin/gnu/h-i686-mingw32/bin/../lib/gcc/nios2-elf/4.7.3\libgcc.a(_ge_df.o)
 .debug_abbrev  0x00006da6      0x1a5 c:/altera/13.1/nios2eds/bin/gnu/h-i686-mingw32/bin/../lib/gcc/nios2-elf/4.7.3\libgcc.a(_lt_df.o)
 .debug_abbrev  0x00006f4b      0x19c c:/altera/13.1/nios2eds/bin/gnu/h-i686-mingw32/bin/../lib/gcc/nios2-elf/4.7.3\libgcc.a(_si_to_df.o)
 .debug_abbrev  0x000070e7      0x1ae c:/altera/13.1/nios2eds/bin/gnu/h-i686-mingw32/bin/../lib/gcc/nios2-elf/4.7.3\libgcc.a(_df_to_si.o)
 .debug_abbrev  0x00007295       0xb6 c:/altera/13.1/nios2eds/bin/gnu/h-i686-mingw32/bin/../lib/gcc/nios2-elf/4.7.3\libgcc.a(_thenan_df.o)
 .debug_abbrev  0x0000734b      0x1bf c:/altera/13.1/nios2eds/bin/gnu/h-i686-mingw32/bin/../lib/gcc/nios2-elf/4.7.3\libgcc.a(_usi_to_df.o)
 .debug_abbrev  0x0000750a      0x112 c:/altera/13.1/nios2eds/bin/gnu/h-i686-mingw32/bin/../lib/gcc/nios2-elf/4.7.3\libgcc.a(lib2-divmod.o)
 .debug_abbrev  0x0000761c       0xe0 c:/altera/13.1/nios2eds/bin/gnu/h-i686-mingw32/bin/../lib/gcc/nios2-elf/4.7.3\libgcc.a(_muldi3.o)
 .debug_abbrev  0x000076fc       0x5d c:/altera/13.1/nios2eds/bin/gnu/h-i686-mingw32/bin/../lib/gcc/nios2-elf/4.7.3\libgcc.a(_clz.o)
 .debug_abbrev  0x00007759       0xbe c:/altera/13.1/nios2eds/bin/gnu/h-i686-mingw32/bin/../lib/gcc/nios2-elf/4.7.3\libgcc.a(_clzsi2.o)
 .debug_abbrev  0x00007817      0x1b6 c:/altera/13.1/nios2eds/bin/gnu/h-i686-mingw32/bin/../lib/gcc/nios2-elf/4.7.3\libgcc.a(_pack_df.o)
 .debug_abbrev  0x000079cd      0x15d c:/altera/13.1/nios2eds/bin/gnu/h-i686-mingw32/bin/../lib/gcc/nios2-elf/4.7.3\libgcc.a(_unpack_df.o)
 .debug_abbrev  0x00007b2a      0x146 c:/altera/13.1/nios2eds/bin/gnu/h-i686-mingw32/bin/../lib/gcc/nios2-elf/4.7.3\libgcc.a(_fpcmp_parts_df.o)
 .debug_abbrev  0x00007c70       0xf1 c:/altera/13.1/nios2eds/bin/gnu/h-i686-mingw32/bin/../lib/gcc/nios2-elf/4.7.3\libgcc.a(_lshrdi3.o)
 .debug_abbrev  0x00007d61       0xf1 c:/altera/13.1/nios2eds/bin/gnu/h-i686-mingw32/bin/../lib/gcc/nios2-elf/4.7.3\libgcc.a(_ashldi3.o)
 .debug_abbrev  0x00007e52      0x10b ../FreeLwIP_bsp/\libfreertos_bsp.a(alt_main.o)
 .debug_abbrev  0x00007f5d      0x180 ../FreeLwIP_bsp/\libfreertos_bsp.a(alt_malloc_lock.o)
 .debug_abbrev  0x000080dd       0x9f ../FreeLwIP_bsp/\libfreertos_bsp.a(heap_3.o)
 .debug_abbrev  0x0000817c      0x14c ../FreeLwIP_bsp/\libfreertos_bsp.a(queue.o)
 .debug_abbrev  0x000082c8      0x1e9 ../FreeLwIP_bsp/\libfreertos_bsp.a(tasks.o)
 .debug_abbrev  0x000084b1      0x175 ../FreeLwIP_bsp/\libfreertos_bsp.a(timers.o)
 .debug_abbrev  0x00008626       0xd9 ../FreeLwIP_bsp/\libfreertos_bsp.a(alt_dev.o)
 .debug_abbrev  0x000086ff       0x79 ../FreeLwIP_bsp/\libfreertos_bsp.a(alt_do_ctors.o)
 .debug_abbrev  0x00008778       0x79 ../FreeLwIP_bsp/\libfreertos_bsp.a(alt_do_dtors.o)
 .debug_abbrev  0x000087f1      0x11f ../FreeLwIP_bsp/\libfreertos_bsp.a(alt_fstat.o)
 .debug_abbrev  0x00008910      0x114 ../FreeLwIP_bsp/\libfreertos_bsp.a(alt_io_redirect.o)
 .debug_abbrev  0x00008a24      0x11f ../FreeLwIP_bsp/\libfreertos_bsp.a(alt_isatty.o)
 .debug_abbrev  0x00008b43       0x9d ../FreeLwIP_bsp/\libfreertos_bsp.a(alt_load.o)
 .debug_abbrev  0x00008be0      0x11f ../FreeLwIP_bsp/\libfreertos_bsp.a(alt_lseek.o)
 .debug_abbrev  0x00008cff      0x148 ../FreeLwIP_bsp/\libfreertos_bsp.a(alt_open.o)
 .debug_abbrev  0x00008e47       0xde ../FreeLwIP_bsp/\libfreertos_bsp.a(alt_release_fd.o)
 .debug_abbrev  0x00008f25      0x112 ../FreeLwIP_bsp/\libfreertos_bsp.a(alt_sbrk.o)
 .debug_abbrev  0x00009037       0xa9 ../FreeLwIP_bsp/\libfreertos_bsp.a(alt_usleep.o)
 .debug_abbrev  0x000090e0      0x1ff ../FreeLwIP_bsp/\libfreertos_bsp.a(api_lib.o)
 .debug_abbrev  0x000092df      0x256 ../FreeLwIP_bsp/\libfreertos_bsp.a(api_msg.o)
 .debug_abbrev  0x00009535      0x10a ../FreeLwIP_bsp/\libfreertos_bsp.a(netbuf.o)
 .debug_abbrev  0x0000963f      0x23e ../FreeLwIP_bsp/\libfreertos_bsp.a(sockets.o)
 .debug_abbrev  0x0000987d      0x1f3 ../FreeLwIP_bsp/\libfreertos_bsp.a(tcpip.o)
 .debug_abbrev  0x00009a70       0x53 ../FreeLwIP_bsp/\libfreertos_bsp.a(alt_lwip_close.o)
 .debug_abbrev  0x00009ac3       0x67 ../FreeLwIP_bsp/\libfreertos_bsp.a(alt_lwip_read.o)
 .debug_abbrev  0x00009b2a       0x70 ../FreeLwIP_bsp/\libfreertos_bsp.a(alt_lwip_write.o)
 .debug_abbrev  0x00009b9a      0x2ea ../FreeLwIP_bsp/\libfreertos_bsp.a(lwip_main.o)
 .debug_abbrev  0x00009e84      0x21c ../FreeLwIP_bsp/\libfreertos_bsp.a(lwip_tse_mac.o)
 .debug_abbrev  0x0000a0a0      0x190 ../FreeLwIP_bsp/\libfreertos_bsp.a(sys_arch.o)
 .debug_abbrev  0x0000a230      0x202 ../FreeLwIP_bsp/\libfreertos_bsp.a(dhcp.o)
 .debug_abbrev  0x0000a432       0x42 ../FreeLwIP_bsp/\libfreertos_bsp.a(init.o)
 .debug_abbrev  0x0000a474      0x1b3 ../FreeLwIP_bsp/\libfreertos_bsp.a(ip.o)
 .debug_abbrev  0x0000a627      0x1aa ../FreeLwIP_bsp/\libfreertos_bsp.a(ip_addr.o)
 .debug_abbrev  0x0000a7d1      0x217 ../FreeLwIP_bsp/\libfreertos_bsp.a(ip_frag.o)
 .debug_abbrev  0x0000a9e8      0x196 ../FreeLwIP_bsp/\libfreertos_bsp.a(mem.o)
 .debug_abbrev  0x0000ab7e      0x167 ../FreeLwIP_bsp/\libfreertos_bsp.a(memp.o)
 .debug_abbrev  0x0000ace5      0x257 ../FreeLwIP_bsp/\libfreertos_bsp.a(netif.o)
 .debug_abbrev  0x0000af3c      0x21d ../FreeLwIP_bsp/\libfreertos_bsp.a(pbuf.o)
 .debug_abbrev  0x0000b159      0x1d1 ../FreeLwIP_bsp/\libfreertos_bsp.a(raw.o)
 .debug_abbrev  0x0000b32a       0xc4 ../FreeLwIP_bsp/\libfreertos_bsp.a(stats.o)
 .debug_abbrev  0x0000b3ee      0x2f2 ../FreeLwIP_bsp/\libfreertos_bsp.a(tcp.o)
 .debug_abbrev  0x0000b6e0      0x248 ../FreeLwIP_bsp/\libfreertos_bsp.a(tcp_in.o)
 .debug_abbrev  0x0000b928      0x2ab ../FreeLwIP_bsp/\libfreertos_bsp.a(tcp_out.o)
 .debug_abbrev  0x0000bbd3      0x1a3 ../FreeLwIP_bsp/\libfreertos_bsp.a(timers.o)
 .debug_abbrev  0x0000bd76      0x21f ../FreeLwIP_bsp/\libfreertos_bsp.a(udp.o)
 .debug_abbrev  0x0000bf95      0x217 ../FreeLwIP_bsp/\libfreertos_bsp.a(etharp.o)
 .debug_abbrev  0x0000c1ac      0x197 ../FreeLwIP_bsp/\libfreertos_bsp.a(alt_sys_init.o)
 .debug_abbrev  0x0000c343      0x1c9 ../FreeLwIP_bsp/\libfreertos_bsp.a(altera_avalon_cfi_flash.o)
 .debug_abbrev  0x0000c50c      0x175 ../FreeLwIP_bsp/\libfreertos_bsp.a(altera_avalon_cfi_flash_table.o)
 .debug_abbrev  0x0000c681      0x118 ../FreeLwIP_bsp/\libfreertos_bsp.a(altera_avalon_jtag_uart_fd.o)
 .debug_abbrev  0x0000c799      0x1d6 ../FreeLwIP_bsp/\libfreertos_bsp.a(altera_avalon_jtag_uart_init.o)
 .debug_abbrev  0x0000c96f      0x102 ../FreeLwIP_bsp/\libfreertos_bsp.a(altera_avalon_jtag_uart_ioctl.o)
 .debug_abbrev  0x0000ca71      0x197 ../FreeLwIP_bsp/\libfreertos_bsp.a(altera_avalon_jtag_uart_read.o)
 .debug_abbrev  0x0000cc08      0x195 ../FreeLwIP_bsp/\libfreertos_bsp.a(altera_avalon_jtag_uart_write.o)
 .debug_abbrev  0x0000cd9d      0x254 ../FreeLwIP_bsp/\libfreertos_bsp.a(altera_avalon_lcd_16207.o)
 .debug_abbrev  0x0000cff1      0x125 ../FreeLwIP_bsp/\libfreertos_bsp.a(altera_avalon_lcd_16207_fd.o)
 .debug_abbrev  0x0000d116      0x279 ../FreeLwIP_bsp/\libfreertos_bsp.a(altera_avalon_sgdma.o)
 .debug_abbrev  0x0000d38f      0x155 ../FreeLwIP_bsp/\libfreertos_bsp.a(altera_avalon_timer_sc.o)
 .debug_abbrev  0x0000d4e4      0x256 ../FreeLwIP_bsp/\libfreertos_bsp.a(altera_avalon_tse.o)
 .debug_abbrev  0x0000d73a       0xf0 ../FreeLwIP_bsp/\libfreertos_bsp.a(altera_avalon_tse_system_info.o)
 .debug_abbrev  0x0000d82a      0x109 ../FreeLwIP_bsp/\libfreertos_bsp.a(altera_avalon_uart_fd.o)
 .debug_abbrev  0x0000d933      0x1ce ../FreeLwIP_bsp/\libfreertos_bsp.a(altera_avalon_uart_init.o)
 .debug_abbrev  0x0000db01      0x190 ../FreeLwIP_bsp/\libfreertos_bsp.a(altera_avalon_uart_read.o)
 .debug_abbrev  0x0000dc91      0x197 ../FreeLwIP_bsp/\libfreertos_bsp.a(altera_avalon_uart_write.o)
 .debug_abbrev  0x0000de28       0x14 ../FreeLwIP_bsp/\libfreertos_bsp.a(altera_vic_0_vector_tbl.o)
 .debug_abbrev  0x0000de3c       0x14 ../FreeLwIP_bsp/\libfreertos_bsp.a(altera_vic_funnel_non_preemptive.o)
 .debug_abbrev  0x0000de50       0xd4 ../FreeLwIP_bsp/\libfreertos_bsp.a(altera_vic_irq_init.o)
 .debug_abbrev  0x0000df24      0x158 ../FreeLwIP_bsp/\libfreertos_bsp.a(altera_vic_isr_register.o)
 .debug_abbrev  0x0000e07c      0x180 ../FreeLwIP_bsp/\libfreertos_bsp.a(alt_env_lock.o)
 .debug_abbrev  0x0000e1fc       0xbc ../FreeLwIP_bsp/\libfreertos_bsp.a(list.o)
 .debug_abbrev  0x0000e2b8      0x17c ../FreeLwIP_bsp/\libfreertos_bsp.a(port.o)
 .debug_abbrev  0x0000e434       0x12 ../FreeLwIP_bsp/\libfreertos_bsp.a(port_asm.o)
 .debug_abbrev  0x0000e446      0x162 ../FreeLwIP_bsp/\libfreertos_bsp.a(alt_alarm_start.o)
 .debug_abbrev  0x0000e5a8       0x7e ../FreeLwIP_bsp/\libfreertos_bsp.a(alt_busy_sleep.o)
 .debug_abbrev  0x0000e626      0x11f ../FreeLwIP_bsp/\libfreertos_bsp.a(alt_close.o)
 .debug_abbrev  0x0000e745       0x74 ../FreeLwIP_bsp/\libfreertos_bsp.a(alt_dcache_flush.o)
 .debug_abbrev  0x0000e7b9       0x42 ../FreeLwIP_bsp/\libfreertos_bsp.a(alt_dcache_flush_all.o)
 .debug_abbrev  0x0000e7fb      0x114 ../FreeLwIP_bsp/\libfreertos_bsp.a(alt_dev_llist_insert.o)
 .debug_abbrev  0x0000e90f       0x5a ../FreeLwIP_bsp/\libfreertos_bsp.a(alt_errno.o)
 .debug_abbrev  0x0000e969       0xf0 ../FreeLwIP_bsp/\libfreertos_bsp.a(alt_find_dev.o)
 .debug_abbrev  0x0000ea59       0xf0 ../FreeLwIP_bsp/\libfreertos_bsp.a(alt_find_file.o)
 .debug_abbrev  0x0000eb49      0x11a ../FreeLwIP_bsp/\libfreertos_bsp.a(alt_flash_dev.o)
 .debug_abbrev  0x0000ec63      0x141 ../FreeLwIP_bsp/\libfreertos_bsp.a(alt_get_fd.o)
 .debug_abbrev  0x0000eda4       0xe8 ../FreeLwIP_bsp/\libfreertos_bsp.a(alt_gettod.o)
 .debug_abbrev  0x0000ee8c       0x42 ../FreeLwIP_bsp/\libfreertos_bsp.a(alt_icache_flush_all.o)
 .debug_abbrev  0x0000eece       0xd3 ../FreeLwIP_bsp/\libfreertos_bsp.a(alt_instruction_exception_entry.o)
 .debug_abbrev  0x0000efa1      0x12e ../FreeLwIP_bsp/\libfreertos_bsp.a(alt_read.o)
 .debug_abbrev  0x0000f0cf       0x77 ../FreeLwIP_bsp/\libfreertos_bsp.a(alt_remap_uncached.o)
 .debug_abbrev  0x0000f146      0x15a ../FreeLwIP_bsp/\libfreertos_bsp.a(alt_tick.o)
 .debug_abbrev  0x0000f2a0       0x86 ../FreeLwIP_bsp/\libfreertos_bsp.a(alt_uncached_malloc.o)
 .debug_abbrev  0x0000f326      0x133 ../FreeLwIP_bsp/\libfreertos_bsp.a(alt_write.o)
 .debug_abbrev  0x0000f459      0x1d4 ../FreeLwIP_bsp/\libfreertos_bsp.a(altera_tse_ethernetif.o)
 .debug_abbrev  0x0000f62d      0x1ce ../FreeLwIP_bsp/\libfreertos_bsp.a(icmp.o)
 .debug_abbrev  0x0000f7fb      0x118 ../FreeLwIP_bsp/\libfreertos_bsp.a(inet_chksum.o)
 .debug_abbrev  0x0000f913      0x119 ../FreeLwIP_bsp/\libfreertos_bsp.a(altera_avalon_cfi_flash_amd.o)
 .debug_abbrev  0x0000fa2c      0x119 ../FreeLwIP_bsp/\libfreertos_bsp.a(altera_avalon_cfi_flash_intel.o)
 .debug_abbrev  0x0000fb45       0x8c ../FreeLwIP_bsp/\libfreertos_bsp.a(alt_icache_flush.o)
 .debug_abbrev  0x0000fbd1      0x106 c:/altera/13.1/nios2eds/bin/gnu/h-i686-mingw32/bin/../lib/gcc/nios2-elf/4.7.3/../../../../../H-i686-mingw32/nios2-elf/lib\libc.a(lib_a-atexit.o)
 .debug_abbrev  0x0000fcd7       0x5d c:/altera/13.1/nios2eds/bin/gnu/h-i686-mingw32/bin/../lib/gcc/nios2-elf/4.7.3/../../../../../H-i686-mingw32/nios2-elf/lib\libc.a(lib_a-ctype_.o)
 .debug_abbrev  0x0000fd34      0x171 c:/altera/13.1/nios2eds/bin/gnu/h-i686-mingw32/bin/../lib/gcc/nios2-elf/4.7.3/../../../../../H-i686-mingw32/nios2-elf/lib\libc.a(lib_a-errno.o)
 .debug_abbrev  0x0000fea5      0x1c8 c:/altera/13.1/nios2eds/bin/gnu/h-i686-mingw32/bin/../lib/gcc/nios2-elf/4.7.3/../../../../../H-i686-mingw32/nios2-elf/lib\libc.a(lib_a-exit.o)
 .debug_abbrev  0x0001006d      0x1dc c:/altera/13.1/nios2eds/bin/gnu/h-i686-mingw32/bin/../lib/gcc/nios2-elf/4.7.3/../../../../../H-i686-mingw32/nios2-elf/lib\libc.a(lib_a-malloc.o)
 .debug_abbrev  0x00010249       0x7f c:/altera/13.1/nios2eds/bin/gnu/h-i686-mingw32/bin/../lib/gcc/nios2-elf/4.7.3/../../../../../H-i686-mingw32/nios2-elf/lib\libc.a(lib_a-memcmp.o)
 .debug_abbrev  0x000102c8      0x1e9 c:/altera/13.1/nios2eds/bin/gnu/h-i686-mingw32/bin/../lib/gcc/nios2-elf/4.7.3/../../../../../H-i686-mingw32/nios2-elf/lib\libc.a(lib_a-snprintf.o)
 .debug_abbrev  0x000104b1       0x90 c:/altera/13.1/nios2eds/bin/gnu/h-i686-mingw32/bin/../lib/gcc/nios2-elf/4.7.3/../../../../../H-i686-mingw32/nios2-elf/lib\libc.a(lib_a-strncpy.o)
 .debug_abbrev  0x00010541      0x211 c:/altera/13.1/nios2eds/bin/gnu/h-i686-mingw32/bin/../lib/gcc/nios2-elf/4.7.3/../../../../../H-i686-mingw32/nios2-elf/lib\libc.a(lib_a-__atexit.o)
 .debug_abbrev  0x00010752      0x203 c:/altera/13.1/nios2eds/bin/gnu/h-i686-mingw32/bin/../lib/gcc/nios2-elf/4.7.3/../../../../../H-i686-mingw32/nios2-elf/lib\libc.a(lib_a-__call_atexit.o)
 .debug_abbrev  0x00010955       0xa6 ../FreeLwIP_bsp/\libfreertos_bsp.a(alt_exit.o)

.debug_line     0x00000000    0x17839
 *(.debug_line)
 .debug_line    0x00000000       0x81 ../FreeLwIP_bsp//obj/HAL/src/crt0.o
 .debug_line    0x00000081      0x1ec obj/default/BasicWEB.o
 .debug_line    0x0000026d       0xf2 obj/default/BlockQ.o
 .debug_line    0x0000035f      0x179 obj/default/GenQTest.o
 .debug_line    0x000004d8       0xf2 obj/default/PollQ.o
 .debug_line    0x000005ca       0xf6 obj/default/QPeek.o
 .debug_line    0x000006c0      0x164 obj/default/blocktim.o
 .debug_line    0x00000824       0xfc obj/default/countsem.o
 .debug_line    0x00000920       0xc3 obj/default/death.o
 .debug_line    0x000009e3      0x113 obj/default/dynamic.o
 .debug_line    0x00000af6      0x114 obj/default/echo_server.o
 .debug_line    0x00000c0a      0x23d obj/default/ethernet.o
 .debug_line    0x00000e47       0xba obj/default/integer.o
 .debug_line    0x00000f01       0xf7 obj/default/main.o
 .debug_line    0x00000ff8      0x118 obj/default/recmutex.o
 .debug_line    0x00001110      0x11a obj/default/semtest.o
 .debug_line    0x0000122a      0x13d c:/altera/13.1/nios2eds/bin/gnu/h-i686-mingw32/bin/../lib/gcc/nios2-elf/4.7.3/../../../../../H-i686-mingw32/nios2-elf/lib\libc.a(lib_a-memcpy.o)
 .debug_line    0x00001367      0x1f1 c:/altera/13.1/nios2eds/bin/gnu/h-i686-mingw32/bin/../lib/gcc/nios2-elf/4.7.3/../../../../../H-i686-mingw32/nios2-elf/lib\libc.a(lib_a-memset.o)
 .debug_line    0x00001558      0x221 c:/altera/13.1/nios2eds/bin/gnu/h-i686-mingw32/bin/../lib/gcc/nios2-elf/4.7.3/../../../../../H-i686-mingw32/nios2-elf/lib\libc.a(lib_a-perror.o)
 .debug_line    0x00001779      0x218 c:/altera/13.1/nios2eds/bin/gnu/h-i686-mingw32/bin/../lib/gcc/nios2-elf/4.7.3/../../../../../H-i686-mingw32/nios2-elf/lib\libc.a(lib_a-printf.o)
 .debug_line    0x00001991      0x235 c:/altera/13.1/nios2eds/bin/gnu/h-i686-mingw32/bin/../lib/gcc/nios2-elf/4.7.3/../../../../../H-i686-mingw32/nios2-elf/lib\libc.a(lib_a-puts.o)
 .debug_line    0x00001bc6      0x23d c:/altera/13.1/nios2eds/bin/gnu/h-i686-mingw32/bin/../lib/gcc/nios2-elf/4.7.3/../../../../../H-i686-mingw32/nios2-elf/lib\libc.a(lib_a-sprintf.o)
 .debug_line    0x00001e03      0x105 c:/altera/13.1/nios2eds/bin/gnu/h-i686-mingw32/bin/../lib/gcc/nios2-elf/4.7.3/../../../../../H-i686-mingw32/nios2-elf/lib\libc.a(lib_a-strcat.o)
 .debug_line    0x00001f08      0x10b c:/altera/13.1/nios2eds/bin/gnu/h-i686-mingw32/bin/../lib/gcc/nios2-elf/4.7.3/../../../../../H-i686-mingw32/nios2-elf/lib\libc.a(lib_a-strcpy.o)
 .debug_line    0x00002013      0x252 c:/altera/13.1/nios2eds/bin/gnu/h-i686-mingw32/bin/../lib/gcc/nios2-elf/4.7.3/../../../../../H-i686-mingw32/nios2-elf/lib\libc.a(lib_a-strerror.o)
 .debug_line    0x00002265      0x182 c:/altera/13.1/nios2eds/bin/gnu/h-i686-mingw32/bin/../lib/gcc/nios2-elf/4.7.3/../../../../../H-i686-mingw32/nios2-elf/lib\libc.a(lib_a-strlen.o)
 .debug_line    0x000023e7      0x1c8 c:/altera/13.1/nios2eds/bin/gnu/h-i686-mingw32/bin/../lib/gcc/nios2-elf/4.7.3/../../../../../H-i686-mingw32/nios2-elf/lib\libc.a(lib_a-strncmp.o)
 .debug_line    0x000025af       0x6b c:/altera/13.1/nios2eds/bin/gnu/h-i686-mingw32/bin/../lib/gcc/nios2-elf/4.7.3/../../../../../H-i686-mingw32/nios2-elf/lib\libc.a(lib_a-u_strerr.o)
 .debug_line    0x0000261a      0xaf9 c:/altera/13.1/nios2eds/bin/gnu/h-i686-mingw32/bin/../lib/gcc/nios2-elf/4.7.3/../../../../../H-i686-mingw32/nios2-elf/lib\libc.a(lib_a-vfprintf.o)
 .debug_line    0x00003113      0x26b c:/altera/13.1/nios2eds/bin/gnu/h-i686-mingw32/bin/../lib/gcc/nios2-elf/4.7.3/../../../../../H-i686-mingw32/nios2-elf/lib\libc.a(lib_a-wsetup.o)
 .debug_line    0x0000337e      0x876 c:/altera/13.1/nios2eds/bin/gnu/h-i686-mingw32/bin/../lib/gcc/nios2-elf/4.7.3/../../../../../H-i686-mingw32/nios2-elf/lib\libc.a(lib_a-dtoa.o)
 .debug_line    0x00003bf4      0x29c c:/altera/13.1/nios2eds/bin/gnu/h-i686-mingw32/bin/../lib/gcc/nios2-elf/4.7.3/../../../../../H-i686-mingw32/nios2-elf/lib\libc.a(lib_a-fflush.o)
 .debug_line    0x00003e90      0x2e6 c:/altera/13.1/nios2eds/bin/gnu/h-i686-mingw32/bin/../lib/gcc/nios2-elf/4.7.3/../../../../../H-i686-mingw32/nios2-elf/lib\libc.a(lib_a-findfp.o)
 .debug_line    0x00004176      0x22f c:/altera/13.1/nios2eds/bin/gnu/h-i686-mingw32/bin/../lib/gcc/nios2-elf/4.7.3/../../../../../H-i686-mingw32/nios2-elf/lib\libc.a(lib_a-fputc.o)
 .debug_line    0x000043a5      0x23c c:/altera/13.1/nios2eds/bin/gnu/h-i686-mingw32/bin/../lib/gcc/nios2-elf/4.7.3/../../../../../H-i686-mingw32/nios2-elf/lib\libc.a(lib_a-fputs.o)
 .debug_line    0x000045e1      0x311 c:/altera/13.1/nios2eds/bin/gnu/h-i686-mingw32/bin/../lib/gcc/nios2-elf/4.7.3/../../../../../H-i686-mingw32/nios2-elf/lib\libc.a(lib_a-freer.o)
 .debug_line    0x000048f2      0x360 c:/altera/13.1/nios2eds/bin/gnu/h-i686-mingw32/bin/../lib/gcc/nios2-elf/4.7.3/../../../../../H-i686-mingw32/nios2-elf/lib\libc.a(lib_a-fvwrite.o)
 .debug_line    0x00004c52      0x259 c:/altera/13.1/nios2eds/bin/gnu/h-i686-mingw32/bin/../lib/gcc/nios2-elf/4.7.3/../../../../../H-i686-mingw32/nios2-elf/lib\libc.a(lib_a-fwalk.o)
 .debug_line    0x00004eab      0x173 c:/altera/13.1/nios2eds/bin/gnu/h-i686-mingw32/bin/../lib/gcc/nios2-elf/4.7.3/../../../../../H-i686-mingw32/nios2-elf/lib\libc.a(lib_a-impure.o)
 .debug_line    0x0000501e      0x231 c:/altera/13.1/nios2eds/bin/gnu/h-i686-mingw32/bin/../lib/gcc/nios2-elf/4.7.3/../../../../../H-i686-mingw32/nios2-elf/lib\libc.a(lib_a-locale.o)
 .debug_line    0x0000524f      0x293 c:/altera/13.1/nios2eds/bin/gnu/h-i686-mingw32/bin/../lib/gcc/nios2-elf/4.7.3/../../../../../H-i686-mingw32/nios2-elf/lib\libc.a(lib_a-makebuf.o)
 .debug_line    0x000054e2      0x421 c:/altera/13.1/nios2eds/bin/gnu/h-i686-mingw32/bin/../lib/gcc/nios2-elf/4.7.3/../../../../../H-i686-mingw32/nios2-elf/lib\libc.a(lib_a-mallocr.o)
 .debug_line    0x00005903      0x1f1 c:/altera/13.1/nios2eds/bin/gnu/h-i686-mingw32/bin/../lib/gcc/nios2-elf/4.7.3/../../../../../H-i686-mingw32/nios2-elf/lib\libc.a(lib_a-memchr.o)
 .debug_line    0x00005af4      0x1ed c:/altera/13.1/nios2eds/bin/gnu/h-i686-mingw32/bin/../lib/gcc/nios2-elf/4.7.3/../../../../../H-i686-mingw32/nios2-elf/lib\libc.a(lib_a-memmove.o)
 .debug_line    0x00005ce1      0x725 c:/altera/13.1/nios2eds/bin/gnu/h-i686-mingw32/bin/../lib/gcc/nios2-elf/4.7.3/../../../../../H-i686-mingw32/nios2-elf/lib\libc.a(lib_a-mprec.o)
 .debug_line    0x00006406      0x29c c:/altera/13.1/nios2eds/bin/gnu/h-i686-mingw32/bin/../lib/gcc/nios2-elf/4.7.3/../../../../../H-i686-mingw32/nios2-elf/lib\libc.a(lib_a-putc.o)
 .debug_line    0x000066a2      0x330 c:/altera/13.1/nios2eds/bin/gnu/h-i686-mingw32/bin/../lib/gcc/nios2-elf/4.7.3/../../../../../H-i686-mingw32/nios2-elf/lib\libc.a(lib_a-reallocr.o)
 .debug_line    0x000069d2      0x170 c:/altera/13.1/nios2eds/bin/gnu/h-i686-mingw32/bin/../lib/gcc/nios2-elf/4.7.3/../../../../../H-i686-mingw32/nios2-elf/lib\libc.a(lib_a-s_isinfd.o)
 .debug_line    0x00006b42      0x170 c:/altera/13.1/nios2eds/bin/gnu/h-i686-mingw32/bin/../lib/gcc/nios2-elf/4.7.3/../../../../../H-i686-mingw32/nios2-elf/lib\libc.a(lib_a-s_isnand.o)
 .debug_line    0x00006cb2      0x212 c:/altera/13.1/nios2eds/bin/gnu/h-i686-mingw32/bin/../lib/gcc/nios2-elf/4.7.3/../../../../../H-i686-mingw32/nios2-elf/lib\libc.a(lib_a-sbrkr.o)
 .debug_line    0x00006ec4      0x245 c:/altera/13.1/nios2eds/bin/gnu/h-i686-mingw32/bin/../lib/gcc/nios2-elf/4.7.3/../../../../../H-i686-mingw32/nios2-elf/lib\libc.a(lib_a-stdio.o)
 .debug_line    0x00007109      0x110 c:/altera/13.1/nios2eds/bin/gnu/h-i686-mingw32/bin/../lib/gcc/nios2-elf/4.7.3/../../../../../H-i686-mingw32/nios2-elf/lib\libc.a(lib_a-strcmp.o)
 .debug_line    0x00007219      0x272 c:/altera/13.1/nios2eds/bin/gnu/h-i686-mingw32/bin/../lib/gcc/nios2-elf/4.7.3/../../../../../H-i686-mingw32/nios2-elf/lib\libc.a(lib_a-wbuf.o)
 .debug_line    0x0000748b      0x213 c:/altera/13.1/nios2eds/bin/gnu/h-i686-mingw32/bin/../lib/gcc/nios2-elf/4.7.3/../../../../../H-i686-mingw32/nios2-elf/lib\libc.a(lib_a-writer.o)
 .debug_line    0x0000769e      0x1c9 c:/altera/13.1/nios2eds/bin/gnu/h-i686-mingw32/bin/../lib/gcc/nios2-elf/4.7.3/../../../../../H-i686-mingw32/nios2-elf/lib\libc.a(lib_a-callocr.o)
 .debug_line    0x00007867      0x213 c:/altera/13.1/nios2eds/bin/gnu/h-i686-mingw32/bin/../lib/gcc/nios2-elf/4.7.3/../../../../../H-i686-mingw32/nios2-elf/lib\libc.a(lib_a-closer.o)
 .debug_line    0x00007a7a      0x266 c:/altera/13.1/nios2eds/bin/gnu/h-i686-mingw32/bin/../lib/gcc/nios2-elf/4.7.3/../../../../../H-i686-mingw32/nios2-elf/lib\libc.a(lib_a-fclose.o)
 .debug_line    0x00007ce0      0x21c c:/altera/13.1/nios2eds/bin/gnu/h-i686-mingw32/bin/../lib/gcc/nios2-elf/4.7.3/../../../../../H-i686-mingw32/nios2-elf/lib\libc.a(lib_a-fstatr.o)
 .debug_line    0x00007efc       0x5d c:/altera/13.1/nios2eds/bin/gnu/h-i686-mingw32/bin/../lib/gcc/nios2-elf/4.7.3/../../../../../H-i686-mingw32/nios2-elf/lib\libc.a(lib_a-int_errno.o)
 .debug_line    0x00007f59      0x214 c:/altera/13.1/nios2eds/bin/gnu/h-i686-mingw32/bin/../lib/gcc/nios2-elf/4.7.3/../../../../../H-i686-mingw32/nios2-elf/lib\libc.a(lib_a-isattyr.o)
 .debug_line    0x0000816d      0x21e c:/altera/13.1/nios2eds/bin/gnu/h-i686-mingw32/bin/../lib/gcc/nios2-elf/4.7.3/../../../../../H-i686-mingw32/nios2-elf/lib\libc.a(lib_a-lseekr.o)
 .debug_line    0x0000838b      0x212 c:/altera/13.1/nios2eds/bin/gnu/h-i686-mingw32/bin/../lib/gcc/nios2-elf/4.7.3/../../../../../H-i686-mingw32/nios2-elf/lib\libc.a(lib_a-readr.o)
 .debug_line    0x0000859d      0x119 c:/altera/13.1/nios2eds/bin/gnu/h-i686-mingw32/bin/../lib/gcc/nios2-elf/4.7.3\libgcc.a(_udivdi3.o)
 .debug_line    0x000086b6      0x121 c:/altera/13.1/nios2eds/bin/gnu/h-i686-mingw32/bin/../lib/gcc/nios2-elf/4.7.3\libgcc.a(_umoddi3.o)
 .debug_line    0x000087d7      0x131 c:/altera/13.1/nios2eds/bin/gnu/h-i686-mingw32/bin/../lib/gcc/nios2-elf/4.7.3\libgcc.a(_addsub_df.o)
 .debug_line    0x00008908      0x114 c:/altera/13.1/nios2eds/bin/gnu/h-i686-mingw32/bin/../lib/gcc/nios2-elf/4.7.3\libgcc.a(_mul_df.o)
 .debug_line    0x00008a1c       0xce c:/altera/13.1/nios2eds/bin/gnu/h-i686-mingw32/bin/../lib/gcc/nios2-elf/4.7.3\libgcc.a(_div_df.o)
 .debug_line    0x00008aea       0x6d c:/altera/13.1/nios2eds/bin/gnu/h-i686-mingw32/bin/../lib/gcc/nios2-elf/4.7.3\libgcc.a(_eq_df.o)
 .debug_line    0x00008b57       0x6d c:/altera/13.1/nios2eds/bin/gnu/h-i686-mingw32/bin/../lib/gcc/nios2-elf/4.7.3\libgcc.a(_ne_df.o)
 .debug_line    0x00008bc4       0x6e c:/altera/13.1/nios2eds/bin/gnu/h-i686-mingw32/bin/../lib/gcc/nios2-elf/4.7.3\libgcc.a(_gt_df.o)
 .debug_line    0x00008c32       0x6e c:/altera/13.1/nios2eds/bin/gnu/h-i686-mingw32/bin/../lib/gcc/nios2-elf/4.7.3\libgcc.a(_ge_df.o)
 .debug_line    0x00008ca0       0x6d c:/altera/13.1/nios2eds/bin/gnu/h-i686-mingw32/bin/../lib/gcc/nios2-elf/4.7.3\libgcc.a(_lt_df.o)
 .debug_line    0x00008d0d       0x94 c:/altera/13.1/nios2eds/bin/gnu/h-i686-mingw32/bin/../lib/gcc/nios2-elf/4.7.3\libgcc.a(_si_to_df.o)
 .debug_line    0x00008da1       0x8d c:/altera/13.1/nios2eds/bin/gnu/h-i686-mingw32/bin/../lib/gcc/nios2-elf/4.7.3\libgcc.a(_df_to_si.o)
 .debug_line    0x00008e2e       0x51 c:/altera/13.1/nios2eds/bin/gnu/h-i686-mingw32/bin/../lib/gcc/nios2-elf/4.7.3\libgcc.a(_thenan_df.o)
 .debug_line    0x00008e7f       0x9e c:/altera/13.1/nios2eds/bin/gnu/h-i686-mingw32/bin/../lib/gcc/nios2-elf/4.7.3\libgcc.a(_usi_to_df.o)
 .debug_line    0x00008f1d       0xd3 c:/altera/13.1/nios2eds/bin/gnu/h-i686-mingw32/bin/../lib/gcc/nios2-elf/4.7.3\libgcc.a(lib2-divmod.o)
 .debug_line    0x00008ff0       0x8b c:/altera/13.1/nios2eds/bin/gnu/h-i686-mingw32/bin/../lib/gcc/nios2-elf/4.7.3\libgcc.a(_muldi3.o)
 .debug_line    0x0000907b       0x53 c:/altera/13.1/nios2eds/bin/gnu/h-i686-mingw32/bin/../lib/gcc/nios2-elf/4.7.3\libgcc.a(_clz.o)
 .debug_line    0x000090ce       0x8c c:/altera/13.1/nios2eds/bin/gnu/h-i686-mingw32/bin/../lib/gcc/nios2-elf/4.7.3\libgcc.a(_clzsi2.o)
 .debug_line    0x0000915a       0xc7 c:/altera/13.1/nios2eds/bin/gnu/h-i686-mingw32/bin/../lib/gcc/nios2-elf/4.7.3\libgcc.a(_pack_df.o)
 .debug_line    0x00009221       0xa2 c:/altera/13.1/nios2eds/bin/gnu/h-i686-mingw32/bin/../lib/gcc/nios2-elf/4.7.3\libgcc.a(_unpack_df.o)
 .debug_line    0x000092c3       0x96 c:/altera/13.1/nios2eds/bin/gnu/h-i686-mingw32/bin/../lib/gcc/nios2-elf/4.7.3\libgcc.a(_fpcmp_parts_df.o)
 .debug_line    0x00009359       0x77 c:/altera/13.1/nios2eds/bin/gnu/h-i686-mingw32/bin/../lib/gcc/nios2-elf/4.7.3\libgcc.a(_lshrdi3.o)
 .debug_line    0x000093d0       0x75 c:/altera/13.1/nios2eds/bin/gnu/h-i686-mingw32/bin/../lib/gcc/nios2-elf/4.7.3\libgcc.a(_ashldi3.o)
 .debug_line    0x00009445      0x135 ../FreeLwIP_bsp/\libfreertos_bsp.a(alt_main.o)
 .debug_line    0x0000957a      0x17d ../FreeLwIP_bsp/\libfreertos_bsp.a(alt_malloc_lock.o)
 .debug_line    0x000096f7       0xb8 ../FreeLwIP_bsp/\libfreertos_bsp.a(heap_3.o)
 .debug_line    0x000097af      0x39f ../FreeLwIP_bsp/\libfreertos_bsp.a(queue.o)
 .debug_line    0x00009b4e      0x5e3 ../FreeLwIP_bsp/\libfreertos_bsp.a(tasks.o)
 .debug_line    0x0000a131      0x1ab ../FreeLwIP_bsp/\libfreertos_bsp.a(timers.o)
 .debug_line    0x0000a2dc      0x13f ../FreeLwIP_bsp/\libfreertos_bsp.a(alt_dev.o)
 .debug_line    0x0000a41b       0x59 ../FreeLwIP_bsp/\libfreertos_bsp.a(alt_do_ctors.o)
 .debug_line    0x0000a474       0x59 ../FreeLwIP_bsp/\libfreertos_bsp.a(alt_do_dtors.o)
 .debug_line    0x0000a4cd      0x180 ../FreeLwIP_bsp/\libfreertos_bsp.a(alt_fstat.o)
 .debug_line    0x0000a64d      0x154 ../FreeLwIP_bsp/\libfreertos_bsp.a(alt_io_redirect.o)
 .debug_line    0x0000a7a1      0x180 ../FreeLwIP_bsp/\libfreertos_bsp.a(alt_isatty.o)
 .debug_line    0x0000a921       0x92 ../FreeLwIP_bsp/\libfreertos_bsp.a(alt_load.o)
 .debug_line    0x0000a9b3      0x184 ../FreeLwIP_bsp/\libfreertos_bsp.a(alt_lseek.o)
 .debug_line    0x0000ab37      0x125 ../FreeLwIP_bsp/\libfreertos_bsp.a(alt_open.o)
 .debug_line    0x0000ac5c       0xae ../FreeLwIP_bsp/\libfreertos_bsp.a(alt_release_fd.o)
 .debug_line    0x0000ad0a      0x11b ../FreeLwIP_bsp/\libfreertos_bsp.a(alt_sbrk.o)
 .debug_line    0x0000ae25      0x13e ../FreeLwIP_bsp/\libfreertos_bsp.a(alt_usleep.o)
 .debug_line    0x0000af63      0x5d3 ../FreeLwIP_bsp/\libfreertos_bsp.a(api_lib.o)
 .debug_line    0x0000b536      0x6ee ../FreeLwIP_bsp/\libfreertos_bsp.a(api_msg.o)
 .debug_line    0x0000bc24      0x1c9 ../FreeLwIP_bsp/\libfreertos_bsp.a(netbuf.o)
 .debug_line    0x0000bded      0xaa8 ../FreeLwIP_bsp/\libfreertos_bsp.a(sockets.o)
 .debug_line    0x0000c895      0x268 ../FreeLwIP_bsp/\libfreertos_bsp.a(tcpip.o)
 .debug_line    0x0000cafd       0xcf ../FreeLwIP_bsp/\libfreertos_bsp.a(alt_lwip_close.o)
 .debug_line    0x0000cbcc      0x132 ../FreeLwIP_bsp/\libfreertos_bsp.a(alt_lwip_read.o)
 .debug_line    0x0000ccfe      0x133 ../FreeLwIP_bsp/\libfreertos_bsp.a(alt_lwip_write.o)
 .debug_line    0x0000ce31      0x38d ../FreeLwIP_bsp/\libfreertos_bsp.a(lwip_main.o)
 .debug_line    0x0000d1be      0x3d2 ../FreeLwIP_bsp/\libfreertos_bsp.a(lwip_tse_mac.o)
 .debug_line    0x0000d590      0x2d4 ../FreeLwIP_bsp/\libfreertos_bsp.a(sys_arch.o)
 .debug_line    0x0000d864      0x855 ../FreeLwIP_bsp/\libfreertos_bsp.a(dhcp.o)
 .debug_line    0x0000e0b9       0x53 ../FreeLwIP_bsp/\libfreertos_bsp.a(init.o)
 .debug_line    0x0000e10c      0x27f ../FreeLwIP_bsp/\libfreertos_bsp.a(ip.o)
 .debug_line    0x0000e38b      0x207 ../FreeLwIP_bsp/\libfreertos_bsp.a(ip_addr.o)
 .debug_line    0x0000e592      0x34e ../FreeLwIP_bsp/\libfreertos_bsp.a(ip_frag.o)
 .debug_line    0x0000e8e0      0x223 ../FreeLwIP_bsp/\libfreertos_bsp.a(mem.o)
 .debug_line    0x0000eb03      0x161 ../FreeLwIP_bsp/\libfreertos_bsp.a(memp.o)
 .debug_line    0x0000ec64      0x27c ../FreeLwIP_bsp/\libfreertos_bsp.a(netif.o)
 .debug_line    0x0000eee0      0x53e ../FreeLwIP_bsp/\libfreertos_bsp.a(pbuf.o)
 .debug_line    0x0000f41e      0x1c2 ../FreeLwIP_bsp/\libfreertos_bsp.a(raw.o)
 .debug_line    0x0000f5e0       0xa7 ../FreeLwIP_bsp/\libfreertos_bsp.a(stats.o)
 .debug_line    0x0000f687      0x695 ../FreeLwIP_bsp/\libfreertos_bsp.a(tcp.o)
 .debug_line    0x0000fd1c      0x85d ../FreeLwIP_bsp/\libfreertos_bsp.a(tcp_in.o)
 .debug_line    0x00010579      0x5c8 ../FreeLwIP_bsp/\libfreertos_bsp.a(tcp_out.o)
 .debug_line    0x00010b41      0x1e6 ../FreeLwIP_bsp/\libfreertos_bsp.a(timers.o)
 .debug_line    0x00010d27      0x377 ../FreeLwIP_bsp/\libfreertos_bsp.a(udp.o)
 .debug_line    0x0001109e      0x491 ../FreeLwIP_bsp/\libfreertos_bsp.a(etharp.o)
 .debug_line    0x0001152f      0x28b ../FreeLwIP_bsp/\libfreertos_bsp.a(alt_sys_init.o)
 .debug_line    0x000117ba      0x24c ../FreeLwIP_bsp/\libfreertos_bsp.a(altera_avalon_cfi_flash.o)
 .debug_line    0x00011a06      0x3da ../FreeLwIP_bsp/\libfreertos_bsp.a(altera_avalon_cfi_flash_table.o)
 .debug_line    0x00011de0      0x157 ../FreeLwIP_bsp/\libfreertos_bsp.a(altera_avalon_jtag_uart_fd.o)
 .debug_line    0x00011f37      0x203 ../FreeLwIP_bsp/\libfreertos_bsp.a(altera_avalon_jtag_uart_init.o)
 .debug_line    0x0001213a      0x14f ../FreeLwIP_bsp/\libfreertos_bsp.a(altera_avalon_jtag_uart_ioctl.o)
 .debug_line    0x00012289      0x1d2 ../FreeLwIP_bsp/\libfreertos_bsp.a(altera_avalon_jtag_uart_read.o)
 .debug_line    0x0001245b      0x1cf ../FreeLwIP_bsp/\libfreertos_bsp.a(altera_avalon_jtag_uart_write.o)
 .debug_line    0x0001262a      0x3c0 ../FreeLwIP_bsp/\libfreertos_bsp.a(altera_avalon_lcd_16207.o)
 .debug_line    0x000129ea      0x140 ../FreeLwIP_bsp/\libfreertos_bsp.a(altera_avalon_lcd_16207_fd.o)
 .debug_line    0x00012b2a      0x2b5 ../FreeLwIP_bsp/\libfreertos_bsp.a(altera_avalon_sgdma.o)
 .debug_line    0x00012ddf      0x101 ../FreeLwIP_bsp/\libfreertos_bsp.a(altera_avalon_timer_sc.o)
 .debug_line    0x00012ee0      0xecf ../FreeLwIP_bsp/\libfreertos_bsp.a(altera_avalon_tse.o)
 .debug_line    0x00013daf       0xd1 ../FreeLwIP_bsp/\libfreertos_bsp.a(altera_avalon_tse_system_info.o)
 .debug_line    0x00013e80      0x116 ../FreeLwIP_bsp/\libfreertos_bsp.a(altera_avalon_uart_fd.o)
 .debug_line    0x00013f96      0x1ef ../FreeLwIP_bsp/\libfreertos_bsp.a(altera_avalon_uart_init.o)
 .debug_line    0x00014185      0x1fd ../FreeLwIP_bsp/\libfreertos_bsp.a(altera_avalon_uart_read.o)
 .debug_line    0x00014382      0x1dd ../FreeLwIP_bsp/\libfreertos_bsp.a(altera_avalon_uart_write.o)
 .debug_line    0x0001455f       0x74 ../FreeLwIP_bsp/\libfreertos_bsp.a(altera_vic_0_vector_tbl.o)
 .debug_line    0x000145d3       0x67 ../FreeLwIP_bsp/\libfreertos_bsp.a(altera_vic_funnel_non_preemptive.o)
 .debug_line    0x0001463a       0xbb ../FreeLwIP_bsp/\libfreertos_bsp.a(altera_vic_irq_init.o)
 .debug_line    0x000146f5       0xd7 ../FreeLwIP_bsp/\libfreertos_bsp.a(altera_vic_isr_register.o)
 .debug_line    0x000147cc      0x17a ../FreeLwIP_bsp/\libfreertos_bsp.a(alt_env_lock.o)
 .debug_line    0x00014946       0xac ../FreeLwIP_bsp/\libfreertos_bsp.a(list.o)
 .debug_line    0x000149f2       0xbd ../FreeLwIP_bsp/\libfreertos_bsp.a(port.o)
 .debug_line    0x00014aaf       0xe5 ../FreeLwIP_bsp/\libfreertos_bsp.a(port_asm.o)
 .debug_line    0x00014b94       0xfe ../FreeLwIP_bsp/\libfreertos_bsp.a(alt_alarm_start.o)
 .debug_line    0x00014c92       0x9f ../FreeLwIP_bsp/\libfreertos_bsp.a(alt_busy_sleep.o)
 .debug_line    0x00014d31      0x10a ../FreeLwIP_bsp/\libfreertos_bsp.a(alt_close.o)
 .debug_line    0x00014e3b       0x67 ../FreeLwIP_bsp/\libfreertos_bsp.a(alt_dcache_flush.o)
 .debug_line    0x00014ea2       0x51 ../FreeLwIP_bsp/\libfreertos_bsp.a(alt_dcache_flush_all.o)
 .debug_line    0x00014ef3       0xd0 ../FreeLwIP_bsp/\libfreertos_bsp.a(alt_dev_llist_insert.o)
 .debug_line    0x00014fc3       0x51 ../FreeLwIP_bsp/\libfreertos_bsp.a(alt_errno.o)
 .debug_line    0x00015014       0xb9 ../FreeLwIP_bsp/\libfreertos_bsp.a(alt_find_dev.o)
 .debug_line    0x000150cd       0xd5 ../FreeLwIP_bsp/\libfreertos_bsp.a(alt_find_file.o)
 .debug_line    0x000151a2       0xc5 ../FreeLwIP_bsp/\libfreertos_bsp.a(alt_flash_dev.o)
 .debug_line    0x00015267      0x12b ../FreeLwIP_bsp/\libfreertos_bsp.a(alt_get_fd.o)
 .debug_line    0x00015392      0x162 ../FreeLwIP_bsp/\libfreertos_bsp.a(alt_gettod.o)
 .debug_line    0x000154f4       0x50 ../FreeLwIP_bsp/\libfreertos_bsp.a(alt_icache_flush_all.o)
 .debug_line    0x00015544       0xba ../FreeLwIP_bsp/\libfreertos_bsp.a(alt_instruction_exception_entry.o)
 .debug_line    0x000155fe      0x1ed ../FreeLwIP_bsp/\libfreertos_bsp.a(alt_read.o)
 .debug_line    0x000157eb       0x69 ../FreeLwIP_bsp/\libfreertos_bsp.a(alt_remap_uncached.o)
 .debug_line    0x00015854      0x106 ../FreeLwIP_bsp/\libfreertos_bsp.a(alt_tick.o)
 .debug_line    0x0001595a       0xdd ../FreeLwIP_bsp/\libfreertos_bsp.a(alt_uncached_malloc.o)
 .debug_line    0x00015a37      0x1ec ../FreeLwIP_bsp/\libfreertos_bsp.a(alt_write.o)
 .debug_line    0x00015c23      0x291 ../FreeLwIP_bsp/\libfreertos_bsp.a(altera_tse_ethernetif.o)
 .debug_line    0x00015eb4      0x1a7 ../FreeLwIP_bsp/\libfreertos_bsp.a(icmp.o)
 .debug_line    0x0001605b      0x1b1 ../FreeLwIP_bsp/\libfreertos_bsp.a(inet_chksum.o)
 .debug_line    0x0001620c      0x174 ../FreeLwIP_bsp/\libfreertos_bsp.a(altera_avalon_cfi_flash_amd.o)
 .debug_line    0x00016380      0x14f ../FreeLwIP_bsp/\libfreertos_bsp.a(altera_avalon_cfi_flash_intel.o)
 .debug_line    0x000164cf       0x81 ../FreeLwIP_bsp/\libfreertos_bsp.a(alt_icache_flush.o)
 .debug_line    0x00016550      0x16d c:/altera/13.1/nios2eds/bin/gnu/h-i686-mingw32/bin/../lib/gcc/nios2-elf/4.7.3/../../../../../H-i686-mingw32/nios2-elf/lib\libc.a(lib_a-atexit.o)
 .debug_line    0x000166bd       0xd1 c:/altera/13.1/nios2eds/bin/gnu/h-i686-mingw32/bin/../lib/gcc/nios2-elf/4.7.3/../../../../../H-i686-mingw32/nios2-elf/lib\libc.a(lib_a-ctype_.o)
 .debug_line    0x0001678e      0x18e c:/altera/13.1/nios2eds/bin/gnu/h-i686-mingw32/bin/../lib/gcc/nios2-elf/4.7.3/../../../../../H-i686-mingw32/nios2-elf/lib\libc.a(lib_a-errno.o)
 .debug_line    0x0001691c      0x219 c:/altera/13.1/nios2eds/bin/gnu/h-i686-mingw32/bin/../lib/gcc/nios2-elf/4.7.3/../../../../../H-i686-mingw32/nios2-elf/lib\libc.a(lib_a-exit.o)
 .debug_line    0x00016b35      0x207 c:/altera/13.1/nios2eds/bin/gnu/h-i686-mingw32/bin/../lib/gcc/nios2-elf/4.7.3/../../../../../H-i686-mingw32/nios2-elf/lib\libc.a(lib_a-malloc.o)
 .debug_line    0x00016d3c      0x18d c:/altera/13.1/nios2eds/bin/gnu/h-i686-mingw32/bin/../lib/gcc/nios2-elf/4.7.3/../../../../../H-i686-mingw32/nios2-elf/lib\libc.a(lib_a-memcmp.o)
 .debug_line    0x00016ec9      0x29e c:/altera/13.1/nios2eds/bin/gnu/h-i686-mingw32/bin/../lib/gcc/nios2-elf/4.7.3/../../../../../H-i686-mingw32/nios2-elf/lib\libc.a(lib_a-snprintf.o)
 .debug_line    0x00017167      0x1af c:/altera/13.1/nios2eds/bin/gnu/h-i686-mingw32/bin/../lib/gcc/nios2-elf/4.7.3/../../../../../H-i686-mingw32/nios2-elf/lib\libc.a(lib_a-strncpy.o)
 .debug_line    0x00017316      0x250 c:/altera/13.1/nios2eds/bin/gnu/h-i686-mingw32/bin/../lib/gcc/nios2-elf/4.7.3/../../../../../H-i686-mingw32/nios2-elf/lib\libc.a(lib_a-__atexit.o)
 .debug_line    0x00017566      0x264 c:/altera/13.1/nios2eds/bin/gnu/h-i686-mingw32/bin/../lib/gcc/nios2-elf/4.7.3/../../../../../H-i686-mingw32/nios2-elf/lib\libc.a(lib_a-__call_atexit.o)
 .debug_line    0x000177ca       0x6f ../FreeLwIP_bsp/\libfreertos_bsp.a(alt_exit.o)

.debug_frame    0x00000000     0x6700
 *(.debug_frame)
 .debug_frame   0x00000000       0x48 obj/default/BasicWEB.o
 .debug_frame   0x00000048       0x80 obj/default/BlockQ.o
 .debug_frame   0x000000c8       0xb8 obj/default/GenQTest.o
 .debug_frame   0x00000180       0x80 obj/default/PollQ.o
 .debug_frame   0x00000200       0xb8 obj/default/QPeek.o
 .debug_frame   0x000002b8       0x80 obj/default/blocktim.o
 .debug_frame   0x00000338       0x9c obj/default/countsem.o
 .debug_frame   0x000003d4       0x80 obj/default/death.o
 .debug_frame   0x00000454       0xd4 obj/default/dynamic.o
 .debug_frame   0x00000528       0x30 obj/default/echo_server.o
 .debug_frame   0x00000558      0x128 obj/default/ethernet.o
 .debug_frame   0x00000680       0x64 obj/default/integer.o
 .debug_frame   0x000006e4       0xd4 obj/default/main.o
 .debug_frame   0x000007b8       0x9c obj/default/recmutex.o
 .debug_frame   0x00000854       0x64 obj/default/semtest.o
 .debug_frame   0x000008b8       0x20 c:/altera/13.1/nios2eds/bin/gnu/h-i686-mingw32/bin/../lib/gcc/nios2-elf/4.7.3/../../../../../H-i686-mingw32/nios2-elf/lib\libc.a(lib_a-memcpy.o)
 .debug_frame   0x000008d8       0x20 c:/altera/13.1/nios2eds/bin/gnu/h-i686-mingw32/bin/../lib/gcc/nios2-elf/4.7.3/../../../../../H-i686-mingw32/nios2-elf/lib\libc.a(lib_a-memset.o)
 .debug_frame   0x000008f8       0x38 c:/altera/13.1/nios2eds/bin/gnu/h-i686-mingw32/bin/../lib/gcc/nios2-elf/4.7.3/../../../../../H-i686-mingw32/nios2-elf/lib\libc.a(lib_a-perror.o)
 .debug_frame   0x00000930       0x40 c:/altera/13.1/nios2eds/bin/gnu/h-i686-mingw32/bin/../lib/gcc/nios2-elf/4.7.3/../../../../../H-i686-mingw32/nios2-elf/lib\libc.a(lib_a-printf.o)
 .debug_frame   0x00000970       0x3c c:/altera/13.1/nios2eds/bin/gnu/h-i686-mingw32/bin/../lib/gcc/nios2-elf/4.7.3/../../../../../H-i686-mingw32/nios2-elf/lib\libc.a(lib_a-puts.o)
 .debug_frame   0x000009ac       0x40 c:/altera/13.1/nios2eds/bin/gnu/h-i686-mingw32/bin/../lib/gcc/nios2-elf/4.7.3/../../../../../H-i686-mingw32/nios2-elf/lib\libc.a(lib_a-sprintf.o)
 .debug_frame   0x000009ec       0x28 c:/altera/13.1/nios2eds/bin/gnu/h-i686-mingw32/bin/../lib/gcc/nios2-elf/4.7.3/../../../../../H-i686-mingw32/nios2-elf/lib\libc.a(lib_a-strcat.o)
 .debug_frame   0x00000a14       0x20 c:/altera/13.1/nios2eds/bin/gnu/h-i686-mingw32/bin/../lib/gcc/nios2-elf/4.7.3/../../../../../H-i686-mingw32/nios2-elf/lib\libc.a(lib_a-strcpy.o)
 .debug_frame   0x00000a34       0x28 c:/altera/13.1/nios2eds/bin/gnu/h-i686-mingw32/bin/../lib/gcc/nios2-elf/4.7.3/../../../../../H-i686-mingw32/nios2-elf/lib\libc.a(lib_a-strerror.o)
 .debug_frame   0x00000a5c       0x20 c:/altera/13.1/nios2eds/bin/gnu/h-i686-mingw32/bin/../lib/gcc/nios2-elf/4.7.3/../../../../../H-i686-mingw32/nios2-elf/lib\libc.a(lib_a-strlen.o)
 .debug_frame   0x00000a7c       0x20 c:/altera/13.1/nios2eds/bin/gnu/h-i686-mingw32/bin/../lib/gcc/nios2-elf/4.7.3/../../../../../H-i686-mingw32/nios2-elf/lib\libc.a(lib_a-strncmp.o)
 .debug_frame   0x00000a9c       0x20 c:/altera/13.1/nios2eds/bin/gnu/h-i686-mingw32/bin/../lib/gcc/nios2-elf/4.7.3/../../../../../H-i686-mingw32/nios2-elf/lib\libc.a(lib_a-u_strerr.o)
 .debug_frame   0x00000abc       0x64 c:/altera/13.1/nios2eds/bin/gnu/h-i686-mingw32/bin/../lib/gcc/nios2-elf/4.7.3/../../../../../H-i686-mingw32/nios2-elf/lib\libc.a(lib_a-vfprintf.o)
 .debug_frame   0x00000b20       0x2c c:/altera/13.1/nios2eds/bin/gnu/h-i686-mingw32/bin/../lib/gcc/nios2-elf/4.7.3/../../../../../H-i686-mingw32/nios2-elf/lib\libc.a(lib_a-wsetup.o)
 .debug_frame   0x00000b4c       0x64 c:/altera/13.1/nios2eds/bin/gnu/h-i686-mingw32/bin/../lib/gcc/nios2-elf/4.7.3/../../../../../H-i686-mingw32/nios2-elf/lib\libc.a(lib_a-dtoa.o)
 .debug_frame   0x00000bb0       0x40 c:/altera/13.1/nios2eds/bin/gnu/h-i686-mingw32/bin/../lib/gcc/nios2-elf/4.7.3/../../../../../H-i686-mingw32/nios2-elf/lib\libc.a(lib_a-fflush.o)
 .debug_frame   0x00000bf0      0x100 c:/altera/13.1/nios2eds/bin/gnu/h-i686-mingw32/bin/../lib/gcc/nios2-elf/4.7.3/../../../../../H-i686-mingw32/nios2-elf/lib\libc.a(lib_a-findfp.o)
 .debug_frame   0x00000cf0       0x44 c:/altera/13.1/nios2eds/bin/gnu/h-i686-mingw32/bin/../lib/gcc/nios2-elf/4.7.3/../../../../../H-i686-mingw32/nios2-elf/lib\libc.a(lib_a-fputc.o)
 .debug_frame   0x00000d34       0x3c c:/altera/13.1/nios2eds/bin/gnu/h-i686-mingw32/bin/../lib/gcc/nios2-elf/4.7.3/../../../../../H-i686-mingw32/nios2-elf/lib\libc.a(lib_a-fputs.o)
 .debug_frame   0x00000d70       0x4c c:/altera/13.1/nios2eds/bin/gnu/h-i686-mingw32/bin/../lib/gcc/nios2-elf/4.7.3/../../../../../H-i686-mingw32/nios2-elf/lib\libc.a(lib_a-freer.o)
 .debug_frame   0x00000dbc       0x38 c:/altera/13.1/nios2eds/bin/gnu/h-i686-mingw32/bin/../lib/gcc/nios2-elf/4.7.3/../../../../../H-i686-mingw32/nios2-elf/lib\libc.a(lib_a-fvwrite.o)
 .debug_frame   0x00000df4       0x5c c:/altera/13.1/nios2eds/bin/gnu/h-i686-mingw32/bin/../lib/gcc/nios2-elf/4.7.3/../../../../../H-i686-mingw32/nios2-elf/lib\libc.a(lib_a-fwalk.o)
 .debug_frame   0x00000e50       0x6c c:/altera/13.1/nios2eds/bin/gnu/h-i686-mingw32/bin/../lib/gcc/nios2-elf/4.7.3/../../../../../H-i686-mingw32/nios2-elf/lib\libc.a(lib_a-locale.o)
 .debug_frame   0x00000ebc       0x2c c:/altera/13.1/nios2eds/bin/gnu/h-i686-mingw32/bin/../lib/gcc/nios2-elf/4.7.3/../../../../../H-i686-mingw32/nios2-elf/lib\libc.a(lib_a-makebuf.o)
 .debug_frame   0x00000ee8       0x38 c:/altera/13.1/nios2eds/bin/gnu/h-i686-mingw32/bin/../lib/gcc/nios2-elf/4.7.3/../../../../../H-i686-mingw32/nios2-elf/lib\libc.a(lib_a-mallocr.o)
 .debug_frame   0x00000f20       0x20 c:/altera/13.1/nios2eds/bin/gnu/h-i686-mingw32/bin/../lib/gcc/nios2-elf/4.7.3/../../../../../H-i686-mingw32/nios2-elf/lib\libc.a(lib_a-memchr.o)
 .debug_frame   0x00000f40       0x20 c:/altera/13.1/nios2eds/bin/gnu/h-i686-mingw32/bin/../lib/gcc/nios2-elf/4.7.3/../../../../../H-i686-mingw32/nios2-elf/lib\libc.a(lib_a-memmove.o)
 .debug_frame   0x00000f60      0x204 c:/altera/13.1/nios2eds/bin/gnu/h-i686-mingw32/bin/../lib/gcc/nios2-elf/4.7.3/../../../../../H-i686-mingw32/nios2-elf/lib\libc.a(lib_a-mprec.o)
 .debug_frame   0x00001164       0x48 c:/altera/13.1/nios2eds/bin/gnu/h-i686-mingw32/bin/../lib/gcc/nios2-elf/4.7.3/../../../../../H-i686-mingw32/nios2-elf/lib\libc.a(lib_a-putc.o)
 .debug_frame   0x000011ac       0x38 c:/altera/13.1/nios2eds/bin/gnu/h-i686-mingw32/bin/../lib/gcc/nios2-elf/4.7.3/../../../../../H-i686-mingw32/nios2-elf/lib\libc.a(lib_a-reallocr.o)
 .debug_frame   0x000011e4       0x20 c:/altera/13.1/nios2eds/bin/gnu/h-i686-mingw32/bin/../lib/gcc/nios2-elf/4.7.3/../../../../../H-i686-mingw32/nios2-elf/lib\libc.a(lib_a-s_isinfd.o)
 .debug_frame   0x00001204       0x20 c:/altera/13.1/nios2eds/bin/gnu/h-i686-mingw32/bin/../lib/gcc/nios2-elf/4.7.3/../../../../../H-i686-mingw32/nios2-elf/lib\libc.a(lib_a-s_isnand.o)
 .debug_frame   0x00001224       0x2c c:/altera/13.1/nios2eds/bin/gnu/h-i686-mingw32/bin/../lib/gcc/nios2-elf/4.7.3/../../../../../H-i686-mingw32/nios2-elf/lib\libc.a(lib_a-sbrkr.o)
 .debug_frame   0x00001250       0x78 c:/altera/13.1/nios2eds/bin/gnu/h-i686-mingw32/bin/../lib/gcc/nios2-elf/4.7.3/../../../../../H-i686-mingw32/nios2-elf/lib\libc.a(lib_a-stdio.o)
 .debug_frame   0x000012c8       0x20 c:/altera/13.1/nios2eds/bin/gnu/h-i686-mingw32/bin/../lib/gcc/nios2-elf/4.7.3/../../../../../H-i686-mingw32/nios2-elf/lib\libc.a(lib_a-strcmp.o)
 .debug_frame   0x000012e8       0x3c c:/altera/13.1/nios2eds/bin/gnu/h-i686-mingw32/bin/../lib/gcc/nios2-elf/4.7.3/../../../../../H-i686-mingw32/nios2-elf/lib\libc.a(lib_a-wbuf.o)
 .debug_frame   0x00001324       0x2c c:/altera/13.1/nios2eds/bin/gnu/h-i686-mingw32/bin/../lib/gcc/nios2-elf/4.7.3/../../../../../H-i686-mingw32/nios2-elf/lib\libc.a(lib_a-writer.o)
 .debug_frame   0x00001350       0x28 c:/altera/13.1/nios2eds/bin/gnu/h-i686-mingw32/bin/../lib/gcc/nios2-elf/4.7.3/../../../../../H-i686-mingw32/nios2-elf/lib\libc.a(lib_a-callocr.o)
 .debug_frame   0x00001378       0x2c c:/altera/13.1/nios2eds/bin/gnu/h-i686-mingw32/bin/../lib/gcc/nios2-elf/4.7.3/../../../../../H-i686-mingw32/nios2-elf/lib\libc.a(lib_a-closer.o)
 .debug_frame   0x000013a4       0x3c c:/altera/13.1/nios2eds/bin/gnu/h-i686-mingw32/bin/../lib/gcc/nios2-elf/4.7.3/../../../../../H-i686-mingw32/nios2-elf/lib\libc.a(lib_a-fclose.o)
 .debug_frame   0x000013e0       0x2c c:/altera/13.1/nios2eds/bin/gnu/h-i686-mingw32/bin/../lib/gcc/nios2-elf/4.7.3/../../../../../H-i686-mingw32/nios2-elf/lib\libc.a(lib_a-fstatr.o)
 .debug_frame   0x0000140c       0x2c c:/altera/13.1/nios2eds/bin/gnu/h-i686-mingw32/bin/../lib/gcc/nios2-elf/4.7.3/../../../../../H-i686-mingw32/nios2-elf/lib\libc.a(lib_a-isattyr.o)
 .debug_frame   0x00001438       0x2c c:/altera/13.1/nios2eds/bin/gnu/h-i686-mingw32/bin/../lib/gcc/nios2-elf/4.7.3/../../../../../H-i686-mingw32/nios2-elf/lib\libc.a(lib_a-lseekr.o)
 .debug_frame   0x00001464       0x2c c:/altera/13.1/nios2eds/bin/gnu/h-i686-mingw32/bin/../lib/gcc/nios2-elf/4.7.3/../../../../../H-i686-mingw32/nios2-elf/lib\libc.a(lib_a-readr.o)
 .debug_frame   0x00001490       0x38 c:/altera/13.1/nios2eds/bin/gnu/h-i686-mingw32/bin/../lib/gcc/nios2-elf/4.7.3\libgcc.a(_udivdi3.o)
 .debug_frame   0x000014c8       0x38 c:/altera/13.1/nios2eds/bin/gnu/h-i686-mingw32/bin/../lib/gcc/nios2-elf/4.7.3\libgcc.a(_umoddi3.o)
 .debug_frame   0x00001500       0x50 c:/altera/13.1/nios2eds/bin/gnu/h-i686-mingw32/bin/../lib/gcc/nios2-elf/4.7.3\libgcc.a(_addsub_df.o)
 .debug_frame   0x00001550       0x38 c:/altera/13.1/nios2eds/bin/gnu/h-i686-mingw32/bin/../lib/gcc/nios2-elf/4.7.3\libgcc.a(_mul_df.o)
 .debug_frame   0x00001588       0x28 c:/altera/13.1/nios2eds/bin/gnu/h-i686-mingw32/bin/../lib/gcc/nios2-elf/4.7.3\libgcc.a(_div_df.o)
 .debug_frame   0x000015b0       0x28 c:/altera/13.1/nios2eds/bin/gnu/h-i686-mingw32/bin/../lib/gcc/nios2-elf/4.7.3\libgcc.a(_eq_df.o)
 .debug_frame   0x000015d8       0x28 c:/altera/13.1/nios2eds/bin/gnu/h-i686-mingw32/bin/../lib/gcc/nios2-elf/4.7.3\libgcc.a(_ne_df.o)
 .debug_frame   0x00001600       0x28 c:/altera/13.1/nios2eds/bin/gnu/h-i686-mingw32/bin/../lib/gcc/nios2-elf/4.7.3\libgcc.a(_gt_df.o)
 .debug_frame   0x00001628       0x28 c:/altera/13.1/nios2eds/bin/gnu/h-i686-mingw32/bin/../lib/gcc/nios2-elf/4.7.3\libgcc.a(_ge_df.o)
 .debug_frame   0x00001650       0x28 c:/altera/13.1/nios2eds/bin/gnu/h-i686-mingw32/bin/../lib/gcc/nios2-elf/4.7.3\libgcc.a(_lt_df.o)
 .debug_frame   0x00001678       0x28 c:/altera/13.1/nios2eds/bin/gnu/h-i686-mingw32/bin/../lib/gcc/nios2-elf/4.7.3\libgcc.a(_si_to_df.o)
 .debug_frame   0x000016a0       0x28 c:/altera/13.1/nios2eds/bin/gnu/h-i686-mingw32/bin/../lib/gcc/nios2-elf/4.7.3\libgcc.a(_df_to_si.o)
 .debug_frame   0x000016c8       0x28 c:/altera/13.1/nios2eds/bin/gnu/h-i686-mingw32/bin/../lib/gcc/nios2-elf/4.7.3\libgcc.a(_usi_to_df.o)
 .debug_frame   0x000016f0       0x70 c:/altera/13.1/nios2eds/bin/gnu/h-i686-mingw32/bin/../lib/gcc/nios2-elf/4.7.3\libgcc.a(lib2-divmod.o)
 .debug_frame   0x00001760       0x20 c:/altera/13.1/nios2eds/bin/gnu/h-i686-mingw32/bin/../lib/gcc/nios2-elf/4.7.3\libgcc.a(_muldi3.o)
 .debug_frame   0x00001780       0x20 c:/altera/13.1/nios2eds/bin/gnu/h-i686-mingw32/bin/../lib/gcc/nios2-elf/4.7.3\libgcc.a(_clzsi2.o)
 .debug_frame   0x000017a0       0x34 c:/altera/13.1/nios2eds/bin/gnu/h-i686-mingw32/bin/../lib/gcc/nios2-elf/4.7.3\libgcc.a(_pack_df.o)
 .debug_frame   0x000017d4       0x20 c:/altera/13.1/nios2eds/bin/gnu/h-i686-mingw32/bin/../lib/gcc/nios2-elf/4.7.3\libgcc.a(_unpack_df.o)
 .debug_frame   0x000017f4       0x20 c:/altera/13.1/nios2eds/bin/gnu/h-i686-mingw32/bin/../lib/gcc/nios2-elf/4.7.3\libgcc.a(_fpcmp_parts_df.o)
 .debug_frame   0x00001814       0x20 c:/altera/13.1/nios2eds/bin/gnu/h-i686-mingw32/bin/../lib/gcc/nios2-elf/4.7.3\libgcc.a(_lshrdi3.o)
 .debug_frame   0x00001834       0x20 c:/altera/13.1/nios2eds/bin/gnu/h-i686-mingw32/bin/../lib/gcc/nios2-elf/4.7.3\libgcc.a(_ashldi3.o)
 .debug_frame   0x00001854       0x64 ../FreeLwIP_bsp/\libfreertos_bsp.a(alt_main.o)
 .debug_frame   0x000018b8       0x48 ../FreeLwIP_bsp/\libfreertos_bsp.a(alt_malloc_lock.o)
 .debug_frame   0x00001900       0x48 ../FreeLwIP_bsp/\libfreertos_bsp.a(heap_3.o)
 .debug_frame   0x00001948      0x2b8 ../FreeLwIP_bsp/\libfreertos_bsp.a(queue.o)
 .debug_frame   0x00001c00      0x4e8 ../FreeLwIP_bsp/\libfreertos_bsp.a(tasks.o)
 .debug_frame   0x000020e8      0x198 ../FreeLwIP_bsp/\libfreertos_bsp.a(timers.o)
 .debug_frame   0x00002280       0x2c ../FreeLwIP_bsp/\libfreertos_bsp.a(alt_dev.o)
 .debug_frame   0x000022ac       0x2c ../FreeLwIP_bsp/\libfreertos_bsp.a(alt_do_ctors.o)
 .debug_frame   0x000022d8       0x2c ../FreeLwIP_bsp/\libfreertos_bsp.a(alt_do_dtors.o)
 .debug_frame   0x00002304       0x48 ../FreeLwIP_bsp/\libfreertos_bsp.a(alt_fstat.o)
 .debug_frame   0x0000234c       0x48 ../FreeLwIP_bsp/\libfreertos_bsp.a(alt_io_redirect.o)
 .debug_frame   0x00002394       0x48 ../FreeLwIP_bsp/\libfreertos_bsp.a(alt_isatty.o)
 .debug_frame   0x000023dc       0x48 ../FreeLwIP_bsp/\libfreertos_bsp.a(alt_load.o)
 .debug_frame   0x00002424       0x48 ../FreeLwIP_bsp/\libfreertos_bsp.a(alt_lseek.o)
 .debug_frame   0x0000246c       0x64 ../FreeLwIP_bsp/\libfreertos_bsp.a(alt_open.o)
 .debug_frame   0x000024d0       0x2c ../FreeLwIP_bsp/\libfreertos_bsp.a(alt_release_fd.o)
 .debug_frame   0x000024fc       0x2c ../FreeLwIP_bsp/\libfreertos_bsp.a(alt_sbrk.o)
 .debug_frame   0x00002528       0x2c ../FreeLwIP_bsp/\libfreertos_bsp.a(alt_usleep.o)
 .debug_frame   0x00002554      0x208 ../FreeLwIP_bsp/\libfreertos_bsp.a(api_lib.o)
 .debug_frame   0x0000275c      0x2ec ../FreeLwIP_bsp/\libfreertos_bsp.a(api_msg.o)
 .debug_frame   0x00002a48      0x10c ../FreeLwIP_bsp/\libfreertos_bsp.a(netbuf.o)
 .debug_frame   0x00002b54      0x358 ../FreeLwIP_bsp/\libfreertos_bsp.a(sockets.o)
 .debug_frame   0x00002eac      0x17c ../FreeLwIP_bsp/\libfreertos_bsp.a(tcpip.o)
 .debug_frame   0x00003028       0x2c ../FreeLwIP_bsp/\libfreertos_bsp.a(alt_lwip_close.o)
 .debug_frame   0x00003054       0x2c ../FreeLwIP_bsp/\libfreertos_bsp.a(alt_lwip_read.o)
 .debug_frame   0x00003080       0x2c ../FreeLwIP_bsp/\libfreertos_bsp.a(alt_lwip_write.o)
 .debug_frame   0x000030ac      0x19c ../FreeLwIP_bsp/\libfreertos_bsp.a(lwip_main.o)
 .debug_frame   0x00003248       0xa0 ../FreeLwIP_bsp/\libfreertos_bsp.a(lwip_tse_mac.o)
 .debug_frame   0x000032e8      0x1ec ../FreeLwIP_bsp/\libfreertos_bsp.a(sys_arch.o)
 .debug_frame   0x000034d4      0x400 ../FreeLwIP_bsp/\libfreertos_bsp.a(dhcp.o)
 .debug_frame   0x000038d4       0x2c ../FreeLwIP_bsp/\libfreertos_bsp.a(init.o)
 .debug_frame   0x00003900       0x9c ../FreeLwIP_bsp/\libfreertos_bsp.a(ip.o)
 .debug_frame   0x0000399c       0xb8 ../FreeLwIP_bsp/\libfreertos_bsp.a(ip_addr.o)
 .debug_frame   0x00003a54      0x14c ../FreeLwIP_bsp/\libfreertos_bsp.a(ip_frag.o)
 .debug_frame   0x00003ba0       0xb8 ../FreeLwIP_bsp/\libfreertos_bsp.a(mem.o)
 .debug_frame   0x00003c58       0x64 ../FreeLwIP_bsp/\libfreertos_bsp.a(memp.o)
 .debug_frame   0x00003cbc      0x1b4 ../FreeLwIP_bsp/\libfreertos_bsp.a(netif.o)
 .debug_frame   0x00003e70      0x278 ../FreeLwIP_bsp/\libfreertos_bsp.a(pbuf.o)
 .debug_frame   0x000040e8       0xf0 ../FreeLwIP_bsp/\libfreertos_bsp.a(raw.o)
 .debug_frame   0x000041d8       0x2c ../FreeLwIP_bsp/\libfreertos_bsp.a(stats.o)
 .debug_frame   0x00004204      0x41c ../FreeLwIP_bsp/\libfreertos_bsp.a(tcp.o)
 .debug_frame   0x00004620       0xd8 ../FreeLwIP_bsp/\libfreertos_bsp.a(tcp_in.o)
 .debug_frame   0x000046f8      0x1f0 ../FreeLwIP_bsp/\libfreertos_bsp.a(tcp_out.o)
 .debug_frame   0x000048e8      0x128 ../FreeLwIP_bsp/\libfreertos_bsp.a(timers.o)
 .debug_frame   0x00004a10      0x1b4 ../FreeLwIP_bsp/\libfreertos_bsp.a(udp.o)
 .debug_frame   0x00004bc4      0x1d0 ../FreeLwIP_bsp/\libfreertos_bsp.a(etharp.o)
 .debug_frame   0x00004d94       0x64 ../FreeLwIP_bsp/\libfreertos_bsp.a(alt_sys_init.o)
 .debug_frame   0x00004df8       0xd4 ../FreeLwIP_bsp/\libfreertos_bsp.a(altera_avalon_cfi_flash.o)
 .debug_frame   0x00004ecc      0x208 ../FreeLwIP_bsp/\libfreertos_bsp.a(altera_avalon_cfi_flash_table.o)
 .debug_frame   0x000050d4       0x80 ../FreeLwIP_bsp/\libfreertos_bsp.a(altera_avalon_jtag_uart_fd.o)
 .debug_frame   0x00005154       0x80 ../FreeLwIP_bsp/\libfreertos_bsp.a(altera_avalon_jtag_uart_init.o)
 .debug_frame   0x000051d4       0x2c ../FreeLwIP_bsp/\libfreertos_bsp.a(altera_avalon_jtag_uart_ioctl.o)
 .debug_frame   0x00005200       0x2c ../FreeLwIP_bsp/\libfreertos_bsp.a(altera_avalon_jtag_uart_read.o)
 .debug_frame   0x0000522c       0x2c ../FreeLwIP_bsp/\libfreertos_bsp.a(altera_avalon_jtag_uart_write.o)
 .debug_frame   0x00005258      0x10c ../FreeLwIP_bsp/\libfreertos_bsp.a(altera_avalon_lcd_16207.o)
 .debug_frame   0x00005364       0x2c ../FreeLwIP_bsp/\libfreertos_bsp.a(altera_avalon_lcd_16207_fd.o)
 .debug_frame   0x00005390      0x240 ../FreeLwIP_bsp/\libfreertos_bsp.a(altera_avalon_sgdma.o)
 .debug_frame   0x000055d0       0x48 ../FreeLwIP_bsp/\libfreertos_bsp.a(altera_avalon_timer_sc.o)
 .debug_frame   0x00005618      0x4d4 ../FreeLwIP_bsp/\libfreertos_bsp.a(altera_avalon_tse.o)
 .debug_frame   0x00005aec       0x64 ../FreeLwIP_bsp/\libfreertos_bsp.a(altera_avalon_uart_fd.o)
 .debug_frame   0x00005b50       0x9c ../FreeLwIP_bsp/\libfreertos_bsp.a(altera_avalon_uart_init.o)
 .debug_frame   0x00005bec       0x48 ../FreeLwIP_bsp/\libfreertos_bsp.a(altera_avalon_uart_read.o)
 .debug_frame   0x00005c34       0x48 ../FreeLwIP_bsp/\libfreertos_bsp.a(altera_avalon_uart_write.o)
 .debug_frame   0x00005c7c       0x2c ../FreeLwIP_bsp/\libfreertos_bsp.a(altera_vic_irq_init.o)
 .debug_frame   0x00005ca8       0x2c ../FreeLwIP_bsp/\libfreertos_bsp.a(altera_vic_isr_register.o)
 .debug_frame   0x00005cd4       0x48 ../FreeLwIP_bsp/\libfreertos_bsp.a(alt_env_lock.o)
 .debug_frame   0x00005d1c       0x9c ../FreeLwIP_bsp/\libfreertos_bsp.a(list.o)
 .debug_frame   0x00005db8       0xd4 ../FreeLwIP_bsp/\libfreertos_bsp.a(port.o)
 .debug_frame   0x00005e8c       0x2c ../FreeLwIP_bsp/\libfreertos_bsp.a(alt_alarm_start.o)
 .debug_frame   0x00005eb8       0x2c ../FreeLwIP_bsp/\libfreertos_bsp.a(alt_busy_sleep.o)
 .debug_frame   0x00005ee4       0x48 ../FreeLwIP_bsp/\libfreertos_bsp.a(alt_close.o)
 .debug_frame   0x00005f2c       0x2c ../FreeLwIP_bsp/\libfreertos_bsp.a(alt_dcache_flush.o)
 .debug_frame   0x00005f58       0x2c ../FreeLwIP_bsp/\libfreertos_bsp.a(alt_dcache_flush_all.o)
 .debug_frame   0x00005f84       0x48 ../FreeLwIP_bsp/\libfreertos_bsp.a(alt_dev_llist_insert.o)
 .debug_frame   0x00005fcc       0x2c ../FreeLwIP_bsp/\libfreertos_bsp.a(alt_find_dev.o)
 .debug_frame   0x00005ff8       0x2c ../FreeLwIP_bsp/\libfreertos_bsp.a(alt_find_file.o)
 .debug_frame   0x00006024       0x48 ../FreeLwIP_bsp/\libfreertos_bsp.a(alt_flash_dev.o)
 .debug_frame   0x0000606c       0x2c ../FreeLwIP_bsp/\libfreertos_bsp.a(alt_get_fd.o)
 .debug_frame   0x00006098       0x30 ../FreeLwIP_bsp/\libfreertos_bsp.a(alt_gettod.o)
 .debug_frame   0x000060c8       0x2c ../FreeLwIP_bsp/\libfreertos_bsp.a(alt_icache_flush_all.o)
 .debug_frame   0x000060f4       0x48 ../FreeLwIP_bsp/\libfreertos_bsp.a(alt_instruction_exception_entry.o)
 .debug_frame   0x0000613c       0x48 ../FreeLwIP_bsp/\libfreertos_bsp.a(alt_read.o)
 .debug_frame   0x00006184       0x2c ../FreeLwIP_bsp/\libfreertos_bsp.a(alt_remap_uncached.o)
 .debug_frame   0x000061b0       0x48 ../FreeLwIP_bsp/\libfreertos_bsp.a(alt_tick.o)
 .debug_frame   0x000061f8       0x2c ../FreeLwIP_bsp/\libfreertos_bsp.a(alt_uncached_malloc.o)
 .debug_frame   0x00006224       0x48 ../FreeLwIP_bsp/\libfreertos_bsp.a(alt_write.o)
 .debug_frame   0x0000626c       0x80 ../FreeLwIP_bsp/\libfreertos_bsp.a(altera_tse_ethernetif.o)
 .debug_frame   0x000062ec       0x80 ../FreeLwIP_bsp/\libfreertos_bsp.a(icmp.o)
 .debug_frame   0x0000636c       0xb8 ../FreeLwIP_bsp/\libfreertos_bsp.a(inet_chksum.o)
 .debug_frame   0x00006424       0x80 ../FreeLwIP_bsp/\libfreertos_bsp.a(altera_avalon_cfi_flash_amd.o)
 .debug_frame   0x000064a4       0x80 ../FreeLwIP_bsp/\libfreertos_bsp.a(altera_avalon_cfi_flash_intel.o)
 .debug_frame   0x00006524       0x2c ../FreeLwIP_bsp/\libfreertos_bsp.a(alt_icache_flush.o)
 .debug_frame   0x00006550       0x20 c:/altera/13.1/nios2eds/bin/gnu/h-i686-mingw32/bin/../lib/gcc/nios2-elf/4.7.3/../../../../../H-i686-mingw32/nios2-elf/lib\libc.a(lib_a-atexit.o)
 .debug_frame   0x00006570       0x20 c:/altera/13.1/nios2eds/bin/gnu/h-i686-mingw32/bin/../lib/gcc/nios2-elf/4.7.3/../../../../../H-i686-mingw32/nios2-elf/lib\libc.a(lib_a-errno.o)
 .debug_frame   0x00006590       0x28 c:/altera/13.1/nios2eds/bin/gnu/h-i686-mingw32/bin/../lib/gcc/nios2-elf/4.7.3/../../../../../H-i686-mingw32/nios2-elf/lib\libc.a(lib_a-exit.o)
 .debug_frame   0x000065b8       0x30 c:/altera/13.1/nios2eds/bin/gnu/h-i686-mingw32/bin/../lib/gcc/nios2-elf/4.7.3/../../../../../H-i686-mingw32/nios2-elf/lib\libc.a(lib_a-malloc.o)
 .debug_frame   0x000065e8       0x20 c:/altera/13.1/nios2eds/bin/gnu/h-i686-mingw32/bin/../lib/gcc/nios2-elf/4.7.3/../../../../../H-i686-mingw32/nios2-elf/lib\libc.a(lib_a-memcmp.o)
 .debug_frame   0x00006608       0x48 c:/altera/13.1/nios2eds/bin/gnu/h-i686-mingw32/bin/../lib/gcc/nios2-elf/4.7.3/../../../../../H-i686-mingw32/nios2-elf/lib\libc.a(lib_a-snprintf.o)
 .debug_frame   0x00006650       0x20 c:/altera/13.1/nios2eds/bin/gnu/h-i686-mingw32/bin/../lib/gcc/nios2-elf/4.7.3/../../../../../H-i686-mingw32/nios2-elf/lib\libc.a(lib_a-strncpy.o)
 .debug_frame   0x00006670       0x2c c:/altera/13.1/nios2eds/bin/gnu/h-i686-mingw32/bin/../lib/gcc/nios2-elf/4.7.3/../../../../../H-i686-mingw32/nios2-elf/lib\libc.a(lib_a-__atexit.o)
 .debug_frame   0x0000669c       0x38 c:/altera/13.1/nios2eds/bin/gnu/h-i686-mingw32/bin/../lib/gcc/nios2-elf/4.7.3/../../../../../H-i686-mingw32/nios2-elf/lib\libc.a(lib_a-__call_atexit.o)
 .debug_frame   0x000066d4       0x2c ../FreeLwIP_bsp/\libfreertos_bsp.a(alt_exit.o)

.debug_str      0x00000000     0xba5d
 *(.debug_str)
 .debug_str     0x00000000      0x49a obj/default/BasicWEB.o
                                0x547 (size before relaxing)
 .debug_str     0x0000049a      0x209 obj/default/BlockQ.o
                                0x323 (size before relaxing)
 .debug_str     0x000006a3      0x157 obj/default/GenQTest.o
                                0x287 (size before relaxing)
 .debug_str     0x000007fa       0xad obj/default/PollQ.o
                                0x1f1 (size before relaxing)
 .debug_str     0x000008a7       0xe3 obj/default/QPeek.o
                                0x22b (size before relaxing)
 .debug_str     0x0000098a      0x12f obj/default/blocktim.o
                                0x24f (size before relaxing)
 .debug_str     0x00000ab9      0x114 obj/default/countsem.o
                                0x25c (size before relaxing)
 .debug_str     0x00000bcd       0xdc obj/default/death.o
                                0x201 (size before relaxing)
 .debug_str     0x00000ca9      0x1d0 obj/default/dynamic.o
                                0x2f4 (size before relaxing)
 .debug_str     0x00000e79       0xdb obj/default/echo_server.o
                                0x1fb (size before relaxing)
 .debug_str     0x00000f54      0x8c5 obj/default/ethernet.o
                                0xb3f (size before relaxing)
 .debug_str     0x00001819       0x7c obj/default/integer.o
                                0x195 (size before relaxing)
 .debug_str     0x00001895      0x11c obj/default/main.o
                                0x22d (size before relaxing)
 .debug_str     0x000019b1      0x173 obj/default/recmutex.o
                                0x2b4 (size before relaxing)
 .debug_str     0x00001b24      0x11a obj/default/semtest.o
                                0x28d (size before relaxing)
 .debug_str     0x00001c3e       0xf8 c:/altera/13.1/nios2eds/bin/gnu/h-i686-mingw32/bin/../lib/gcc/nios2-elf/4.7.3/../../../../../H-i686-mingw32/nios2-elf/lib\libc.a(lib_a-memcpy.o)
                                0x126 (size before relaxing)
 .debug_str     0x00001d36       0x4f c:/altera/13.1/nios2eds/bin/gnu/h-i686-mingw32/bin/../lib/gcc/nios2-elf/4.7.3/../../../../../H-i686-mingw32/nios2-elf/lib\libc.a(lib_a-memset.o)
                                0x18a (size before relaxing)
 .debug_str     0x00001d85      0x3fc c:/altera/13.1/nios2eds/bin/gnu/h-i686-mingw32/bin/../lib/gcc/nios2-elf/4.7.3/../../../../../H-i686-mingw32/nios2-elf/lib\libc.a(lib_a-perror.o)
                                0x538 (size before relaxing)
 .debug_str     0x00002181       0x90 c:/altera/13.1/nios2eds/bin/gnu/h-i686-mingw32/bin/../lib/gcc/nios2-elf/4.7.3/../../../../../H-i686-mingw32/nios2-elf/lib\libc.a(lib_a-printf.o)
                                0x571 (size before relaxing)
 .debug_str     0x00002211       0x90 c:/altera/13.1/nios2eds/bin/gnu/h-i686-mingw32/bin/../lib/gcc/nios2-elf/4.7.3/../../../../../H-i686-mingw32/nios2-elf/lib\libc.a(lib_a-puts.o)
                                0x56e (size before relaxing)
 .debug_str     0x000022a1       0x4e c:/altera/13.1/nios2eds/bin/gnu/h-i686-mingw32/bin/../lib/gcc/nios2-elf/4.7.3/../../../../../H-i686-mingw32/nios2-elf/lib\libc.a(lib_a-sprintf.o)
                                0x560 (size before relaxing)
 .debug_str     0x000022ef       0x54 c:/altera/13.1/nios2eds/bin/gnu/h-i686-mingw32/bin/../lib/gcc/nios2-elf/4.7.3/../../../../../H-i686-mingw32/nios2-elf/lib\libc.a(lib_a-strcat.o)
                                0x181 (size before relaxing)
 .debug_str     0x00002343       0x3b c:/altera/13.1/nios2eds/bin/gnu/h-i686-mingw32/bin/../lib/gcc/nios2-elf/4.7.3/../../../../../H-i686-mingw32/nios2-elf/lib\libc.a(lib_a-strcpy.o)
                                0x191 (size before relaxing)
 .debug_str     0x0000237e       0x53 c:/altera/13.1/nios2eds/bin/gnu/h-i686-mingw32/bin/../lib/gcc/nios2-elf/4.7.3/../../../../../H-i686-mingw32/nios2-elf/lib\libc.a(lib_a-strerror.o)
                                0x18f (size before relaxing)
 .debug_str     0x000023d1       0x3b c:/altera/13.1/nios2eds/bin/gnu/h-i686-mingw32/bin/../lib/gcc/nios2-elf/4.7.3/../../../../../H-i686-mingw32/nios2-elf/lib\libc.a(lib_a-strlen.o)
                                0x189 (size before relaxing)
 .debug_str     0x0000240c       0x44 c:/altera/13.1/nios2eds/bin/gnu/h-i686-mingw32/bin/../lib/gcc/nios2-elf/4.7.3/../../../../../H-i686-mingw32/nios2-elf/lib\libc.a(lib_a-strncmp.o)
                                0x178 (size before relaxing)
 .debug_str     0x00002450       0x3d c:/altera/13.1/nios2eds/bin/gnu/h-i686-mingw32/bin/../lib/gcc/nios2-elf/4.7.3/../../../../../H-i686-mingw32/nios2-elf/lib\libc.a(lib_a-u_strerr.o)
                                 0xf3 (size before relaxing)
 .debug_str     0x0000248d      0x26a c:/altera/13.1/nios2eds/bin/gnu/h-i686-mingw32/bin/../lib/gcc/nios2-elf/4.7.3/../../../../../H-i686-mingw32/nios2-elf/lib\libc.a(lib_a-vfprintf.o)
                                0x888 (size before relaxing)
 .debug_str     0x000026f7       0x4f c:/altera/13.1/nios2eds/bin/gnu/h-i686-mingw32/bin/../lib/gcc/nios2-elf/4.7.3/../../../../../H-i686-mingw32/nios2-elf/lib\libc.a(lib_a-wsetup.o)
                                0x535 (size before relaxing)
 .debug_str     0x00002746      0x1e6 c:/altera/13.1/nios2eds/bin/gnu/h-i686-mingw32/bin/../lib/gcc/nios2-elf/4.7.3/../../../../../H-i686-mingw32/nios2-elf/lib\libc.a(lib_a-dtoa.o)
                                0x678 (size before relaxing)
 .debug_str     0x0000292c       0x5b c:/altera/13.1/nios2eds/bin/gnu/h-i686-mingw32/bin/../lib/gcc/nios2-elf/4.7.3/../../../../../H-i686-mingw32/nios2-elf/lib\libc.a(lib_a-fflush.o)
                                0x553 (size before relaxing)
 .debug_str     0x00002987      0x104 c:/altera/13.1/nios2eds/bin/gnu/h-i686-mingw32/bin/../lib/gcc/nios2-elf/4.7.3/../../../../../H-i686-mingw32/nios2-elf/lib\libc.a(lib_a-findfp.o)
                                0x61f (size before relaxing)
 .debug_str     0x00002a8b       0x4a c:/altera/13.1/nios2eds/bin/gnu/h-i686-mingw32/bin/../lib/gcc/nios2-elf/4.7.3/../../../../../H-i686-mingw32/nios2-elf/lib\libc.a(lib_a-fputc.o)
                                0x536 (size before relaxing)
 .debug_str     0x00002ad5       0x42 c:/altera/13.1/nios2eds/bin/gnu/h-i686-mingw32/bin/../lib/gcc/nios2-elf/4.7.3/../../../../../H-i686-mingw32/nios2-elf/lib\libc.a(lib_a-fputs.o)
                                0x580 (size before relaxing)
 .debug_str     0x00002b17      0x183 c:/altera/13.1/nios2eds/bin/gnu/h-i686-mingw32/bin/../lib/gcc/nios2-elf/4.7.3/../../../../../H-i686-mingw32/nios2-elf/lib\libc.a(lib_a-freer.o)
                                0x67f (size before relaxing)
 .debug_str     0x00002c9a       0x6c c:/altera/13.1/nios2eds/bin/gnu/h-i686-mingw32/bin/../lib/gcc/nios2-elf/4.7.3/../../../../../H-i686-mingw32/nios2-elf/lib\libc.a(lib_a-fvwrite.o)
                                0x5b8 (size before relaxing)
 .debug_str     0x00002d06       0x5e c:/altera/13.1/nios2eds/bin/gnu/h-i686-mingw32/bin/../lib/gcc/nios2-elf/4.7.3/../../../../../H-i686-mingw32/nios2-elf/lib\libc.a(lib_a-fwalk.o)
                                0x567 (size before relaxing)
 .debug_str     0x00002d64       0xd4 c:/altera/13.1/nios2eds/bin/gnu/h-i686-mingw32/bin/../lib/gcc/nios2-elf/4.7.3/../../../../../H-i686-mingw32/nios2-elf/lib\libc.a(lib_a-impure.o)
                                0x526 (size before relaxing)
 .debug_str     0x00002e38      0x14c c:/altera/13.1/nios2eds/bin/gnu/h-i686-mingw32/bin/../lib/gcc/nios2-elf/4.7.3/../../../../../H-i686-mingw32/nios2-elf/lib\libc.a(lib_a-locale.o)
                                0x6bc (size before relaxing)
 .debug_str     0x00002f84      0x129 c:/altera/13.1/nios2eds/bin/gnu/h-i686-mingw32/bin/../lib/gcc/nios2-elf/4.7.3/../../../../../H-i686-mingw32/nios2-elf/lib\libc.a(lib_a-makebuf.o)
                                0x62f (size before relaxing)
 .debug_str     0x000030ad       0xd9 c:/altera/13.1/nios2eds/bin/gnu/h-i686-mingw32/bin/../lib/gcc/nios2-elf/4.7.3/../../../../../H-i686-mingw32/nios2-elf/lib\libc.a(lib_a-mallocr.o)
                                0x735 (size before relaxing)
 .debug_str     0x00003186       0x49 c:/altera/13.1/nios2eds/bin/gnu/h-i686-mingw32/bin/../lib/gcc/nios2-elf/4.7.3/../../../../../H-i686-mingw32/nios2-elf/lib\libc.a(lib_a-memchr.o)
                                0x197 (size before relaxing)
 .debug_str     0x000031cf       0x45 c:/altera/13.1/nios2eds/bin/gnu/h-i686-mingw32/bin/../lib/gcc/nios2-elf/4.7.3/../../../../../H-i686-mingw32/nios2-elf/lib\libc.a(lib_a-memmove.o)
                                0x1a9 (size before relaxing)
 .debug_str     0x00003214       0xa5 c:/altera/13.1/nios2eds/bin/gnu/h-i686-mingw32/bin/../lib/gcc/nios2-elf/4.7.3/../../../../../H-i686-mingw32/nios2-elf/lib\libc.a(lib_a-mprec.o)
                                0x632 (size before relaxing)
 .debug_str     0x000032b9       0x42 c:/altera/13.1/nios2eds/bin/gnu/h-i686-mingw32/bin/../lib/gcc/nios2-elf/4.7.3/../../../../../H-i686-mingw32/nios2-elf/lib\libc.a(lib_a-putc.o)
                                0x530 (size before relaxing)
 .debug_str     0x000032fb       0x49 c:/altera/13.1/nios2eds/bin/gnu/h-i686-mingw32/bin/../lib/gcc/nios2-elf/4.7.3/../../../../../H-i686-mingw32/nios2-elf/lib\libc.a(lib_a-reallocr.o)
                                0x607 (size before relaxing)
 .debug_str     0x00003344       0xd6 c:/altera/13.1/nios2eds/bin/gnu/h-i686-mingw32/bin/../lib/gcc/nios2-elf/4.7.3/../../../../../H-i686-mingw32/nios2-elf/lib\libc.a(lib_a-s_isinfd.o)
                                0x1a1 (size before relaxing)
 .debug_str     0x0000341a       0x3d c:/altera/13.1/nios2eds/bin/gnu/h-i686-mingw32/bin/../lib/gcc/nios2-elf/4.7.3/../../../../../H-i686-mingw32/nios2-elf/lib\libc.a(lib_a-s_isnand.o)
                                0x1a1 (size before relaxing)
 .debug_str     0x00003457       0x43 c:/altera/13.1/nios2eds/bin/gnu/h-i686-mingw32/bin/../lib/gcc/nios2-elf/4.7.3/../../../../../H-i686-mingw32/nios2-elf/lib\libc.a(lib_a-sbrkr.o)
                                0x51c (size before relaxing)
 .debug_str     0x0000349a       0x8e c:/altera/13.1/nios2eds/bin/gnu/h-i686-mingw32/bin/../lib/gcc/nios2-elf/4.7.3/../../../../../H-i686-mingw32/nios2-elf/lib\libc.a(lib_a-stdio.o)
                                0x570 (size before relaxing)
 .debug_str     0x00003528       0x3b c:/altera/13.1/nios2eds/bin/gnu/h-i686-mingw32/bin/../lib/gcc/nios2-elf/4.7.3/../../../../../H-i686-mingw32/nios2-elf/lib\libc.a(lib_a-strcmp.o)
                                0x16f (size before relaxing)
 .debug_str     0x00003563       0x40 c:/altera/13.1/nios2eds/bin/gnu/h-i686-mingw32/bin/../lib/gcc/nios2-elf/4.7.3/../../../../../H-i686-mingw32/nios2-elf/lib\libc.a(lib_a-wbuf.o)
                                0x53a (size before relaxing)
 .debug_str     0x000035a3       0x3a c:/altera/13.1/nios2eds/bin/gnu/h-i686-mingw32/bin/../lib/gcc/nios2-elf/4.7.3/../../../../../H-i686-mingw32/nios2-elf/lib\libc.a(lib_a-writer.o)
                                0x520 (size before relaxing)
 .debug_str     0x000035dd        0xf c:/altera/13.1/nios2eds/bin/gnu/h-i686-mingw32/bin/../lib/gcc/nios2-elf/4.7.3/../../../../../H-i686-mingw32/nios2-elf/lib\libc.a(lib_a-callocr.o)
                                0x55f (size before relaxing)
 .debug_str     0x000035ec       0x3a c:/altera/13.1/nios2eds/bin/gnu/h-i686-mingw32/bin/../lib/gcc/nios2-elf/4.7.3/../../../../../H-i686-mingw32/nios2-elf/lib\libc.a(lib_a-closer.o)
                                0x510 (size before relaxing)
 .debug_str     0x00003626       0x4b c:/altera/13.1/nios2eds/bin/gnu/h-i686-mingw32/bin/../lib/gcc/nios2-elf/4.7.3/../../../../../H-i686-mingw32/nios2-elf/lib\libc.a(lib_a-fclose.o)
                                0x562 (size before relaxing)
 .debug_str     0x00003671       0x46 c:/altera/13.1/nios2eds/bin/gnu/h-i686-mingw32/bin/../lib/gcc/nios2-elf/4.7.3/../../../../../H-i686-mingw32/nios2-elf/lib\libc.a(lib_a-fstatr.o)
                                0x603 (size before relaxing)
 .debug_str     0x000036b7       0x3d c:/altera/13.1/nios2eds/bin/gnu/h-i686-mingw32/bin/../lib/gcc/nios2-elf/4.7.3/../../../../../H-i686-mingw32/nios2-elf/lib\libc.a(lib_a-int_errno.o)
                                0x16f (size before relaxing)
 .debug_str     0x000036f4       0x42 c:/altera/13.1/nios2eds/bin/gnu/h-i686-mingw32/bin/../lib/gcc/nios2-elf/4.7.3/../../../../../H-i686-mingw32/nios2-elf/lib\libc.a(lib_a-isattyr.o)
                                0x513 (size before relaxing)
 .debug_str     0x00003736       0x40 c:/altera/13.1/nios2eds/bin/gnu/h-i686-mingw32/bin/../lib/gcc/nios2-elf/4.7.3/../../../../../H-i686-mingw32/nios2-elf/lib\libc.a(lib_a-lseekr.o)
                                0x524 (size before relaxing)
 .debug_str     0x00003776       0x39 c:/altera/13.1/nios2eds/bin/gnu/h-i686-mingw32/bin/../lib/gcc/nios2-elf/4.7.3/../../../../../H-i686-mingw32/nios2-elf/lib\libc.a(lib_a-readr.o)
                                0x51d (size before relaxing)
 .debug_str     0x000037af      0x15d c:/altera/13.1/nios2eds/bin/gnu/h-i686-mingw32/bin/../lib/gcc/nios2-elf/4.7.3\libgcc.a(_udivdi3.o)
                                0x1f6 (size before relaxing)
 .debug_str     0x0000390c        0xa c:/altera/13.1/nios2eds/bin/gnu/h-i686-mingw32/bin/../lib/gcc/nios2-elf/4.7.3\libgcc.a(_umoddi3.o)
                                0x1f6 (size before relaxing)
 .debug_str     0x00003916      0x16f c:/altera/13.1/nios2eds/bin/gnu/h-i686-mingw32/bin/../lib/gcc/nios2-elf/4.7.3\libgcc.a(_addsub_df.o)
                                0x2a9 (size before relaxing)
 .debug_str     0x00003a85       0x40 c:/altera/13.1/nios2eds/bin/gnu/h-i686-mingw32/bin/../lib/gcc/nios2-elf/4.7.3\libgcc.a(_mul_df.o)
                                0x27b (size before relaxing)
 .debug_str     0x00003ac5       0x35 c:/altera/13.1/nios2eds/bin/gnu/h-i686-mingw32/bin/../lib/gcc/nios2-elf/4.7.3\libgcc.a(_div_df.o)
                                0x26b (size before relaxing)
 .debug_str     0x00003afa       0x20 c:/altera/13.1/nios2eds/bin/gnu/h-i686-mingw32/bin/../lib/gcc/nios2-elf/4.7.3\libgcc.a(_eq_df.o)
                                0x238 (size before relaxing)
 .debug_str     0x00003b1a        0x8 c:/altera/13.1/nios2eds/bin/gnu/h-i686-mingw32/bin/../lib/gcc/nios2-elf/4.7.3\libgcc.a(_ne_df.o)
                                0x238 (size before relaxing)
 .debug_str     0x00003b22        0x8 c:/altera/13.1/nios2eds/bin/gnu/h-i686-mingw32/bin/../lib/gcc/nios2-elf/4.7.3\libgcc.a(_gt_df.o)
                                0x238 (size before relaxing)
 .debug_str     0x00003b2a        0x8 c:/altera/13.1/nios2eds/bin/gnu/h-i686-mingw32/bin/../lib/gcc/nios2-elf/4.7.3\libgcc.a(_ge_df.o)
                                0x238 (size before relaxing)
 .debug_str     0x00003b32        0x8 c:/altera/13.1/nios2eds/bin/gnu/h-i686-mingw32/bin/../lib/gcc/nios2-elf/4.7.3\libgcc.a(_lt_df.o)
                                0x238 (size before relaxing)
 .debug_str     0x00003b3a       0x21 c:/altera/13.1/nios2eds/bin/gnu/h-i686-mingw32/bin/../lib/gcc/nios2-elf/4.7.3\libgcc.a(_si_to_df.o)
                                0x20e (size before relaxing)
 .debug_str     0x00003b5b        0xa c:/altera/13.1/nios2eds/bin/gnu/h-i686-mingw32/bin/../lib/gcc/nios2-elf/4.7.3\libgcc.a(_df_to_si.o)
                                0x230 (size before relaxing)
 .debug_str     0x00000000      0x1c1 c:/altera/13.1/nios2eds/bin/gnu/h-i686-mingw32/bin/../lib/gcc/nios2-elf/4.7.3\libgcc.a(_thenan_df.o)
 .debug_str     0x00003b65       0x14 c:/altera/13.1/nios2eds/bin/gnu/h-i686-mingw32/bin/../lib/gcc/nios2-elf/4.7.3\libgcc.a(_usi_to_df.o)
                                0x20a (size before relaxing)
 .debug_str     0x00003b79       0x7c c:/altera/13.1/nios2eds/bin/gnu/h-i686-mingw32/bin/../lib/gcc/nios2-elf/4.7.3\libgcc.a(lib2-divmod.o)
                                0x15b (size before relaxing)
 .debug_str     0x00003bf5        0x9 c:/altera/13.1/nios2eds/bin/gnu/h-i686-mingw32/bin/../lib/gcc/nios2-elf/4.7.3\libgcc.a(_muldi3.o)
                                0x1a2 (size before relaxing)
 .debug_str     0x00000000      0x160 c:/altera/13.1/nios2eds/bin/gnu/h-i686-mingw32/bin/../lib/gcc/nios2-elf/4.7.3\libgcc.a(_clz.o)
 .debug_str     0x00000000      0x17d c:/altera/13.1/nios2eds/bin/gnu/h-i686-mingw32/bin/../lib/gcc/nios2-elf/4.7.3\libgcc.a(_clzsi2.o)
 .debug_str     0x00003bfe        0x7 c:/altera/13.1/nios2eds/bin/gnu/h-i686-mingw32/bin/../lib/gcc/nios2-elf/4.7.3\libgcc.a(_pack_df.o)
                                0x224 (size before relaxing)
 .debug_str     0x00000000      0x206 c:/altera/13.1/nios2eds/bin/gnu/h-i686-mingw32/bin/../lib/gcc/nios2-elf/4.7.3\libgcc.a(_unpack_df.o)
 .debug_str     0x00000000      0x1e4 c:/altera/13.1/nios2eds/bin/gnu/h-i686-mingw32/bin/../lib/gcc/nios2-elf/4.7.3\libgcc.a(_fpcmp_parts_df.o)
 .debug_str     0x00003c05       0x23 c:/altera/13.1/nios2eds/bin/gnu/h-i686-mingw32/bin/../lib/gcc/nios2-elf/4.7.3\libgcc.a(_lshrdi3.o)
                                0x194 (size before relaxing)
 .debug_str     0x00003c28        0xa c:/altera/13.1/nios2eds/bin/gnu/h-i686-mingw32/bin/../lib/gcc/nios2-elf/4.7.3\libgcc.a(_ashldi3.o)
                                0x194 (size before relaxing)
 .debug_str     0x00003c32       0xdb ../FreeLwIP_bsp/\libfreertos_bsp.a(alt_main.o)
                                0x1dd (size before relaxing)
 .debug_str     0x00003d0d       0x1f ../FreeLwIP_bsp/\libfreertos_bsp.a(alt_malloc_lock.o)
                                0x4df (size before relaxing)
 .debug_str     0x00003d2c       0x42 ../FreeLwIP_bsp/\libfreertos_bsp.a(heap_3.o)
                                0x12c (size before relaxing)
 .debug_str     0x00003d6e      0x48d ../FreeLwIP_bsp/\libfreertos_bsp.a(queue.o)
                                0x5ca (size before relaxing)
 .debug_str     0x000041fb      0x7e4 ../FreeLwIP_bsp/\libfreertos_bsp.a(tasks.o)
                                0xa13 (size before relaxing)
 .debug_str     0x000049df      0x33b ../FreeLwIP_bsp/\libfreertos_bsp.a(timers.o)
                                0x537 (size before relaxing)
 .debug_str     0x00004d1a       0x8c ../FreeLwIP_bsp/\libfreertos_bsp.a(alt_dev.o)
                                0x2f6 (size before relaxing)
 .debug_str     0x00004da6       0x48 ../FreeLwIP_bsp/\libfreertos_bsp.a(alt_do_ctors.o)
                                 0x9e (size before relaxing)
 .debug_str     0x00004dee       0x4c ../FreeLwIP_bsp/\libfreertos_bsp.a(alt_do_dtors.o)
                                 0x9d (size before relaxing)
 .debug_str     0x00004e3a       0x2c ../FreeLwIP_bsp/\libfreertos_bsp.a(alt_fstat.o)
                                0x2ae (size before relaxing)
 .debug_str     0x00004e66       0x56 ../FreeLwIP_bsp/\libfreertos_bsp.a(alt_io_redirect.o)
                                0x2d8 (size before relaxing)
 .debug_str     0x00004ebc       0x15 ../FreeLwIP_bsp/\libfreertos_bsp.a(alt_isatty.o)
                                0x2b6 (size before relaxing)
 .debug_str     0x00004ed1       0xe4 ../FreeLwIP_bsp/\libfreertos_bsp.a(alt_load.o)
                                0x1d4 (size before relaxing)
 .debug_str     0x00004fb5       0x14 ../FreeLwIP_bsp/\libfreertos_bsp.a(alt_lseek.o)
                                0x1d3 (size before relaxing)
 .debug_str     0x00004fc9       0x29 ../FreeLwIP_bsp/\libfreertos_bsp.a(alt_open.o)
                                0x20d (size before relaxing)
 .debug_str     0x00004ff2       0x28 ../FreeLwIP_bsp/\libfreertos_bsp.a(alt_release_fd.o)
                                0x1b7 (size before relaxing)
 .debug_str     0x0000501a       0x71 ../FreeLwIP_bsp/\libfreertos_bsp.a(alt_sbrk.o)
                                0x19d (size before relaxing)
 .debug_str     0x0000508b       0x45 ../FreeLwIP_bsp/\libfreertos_bsp.a(alt_usleep.o)
                                0x15a (size before relaxing)
 .debug_str     0x000050d0      0x3a3 ../FreeLwIP_bsp/\libfreertos_bsp.a(api_lib.o)
                                0x923 (size before relaxing)
 .debug_str     0x00005473      0x22a ../FreeLwIP_bsp/\libfreertos_bsp.a(api_msg.o)
                                0x9d2 (size before relaxing)
 .debug_str     0x0000569d       0x8f ../FreeLwIP_bsp/\libfreertos_bsp.a(netbuf.o)
                                0x346 (size before relaxing)
 .debug_str     0x0000572c      0x3ff ../FreeLwIP_bsp/\libfreertos_bsp.a(sockets.o)
                                0xba4 (size before relaxing)
 .debug_str     0x00005b2b      0x1dd ../FreeLwIP_bsp/\libfreertos_bsp.a(tcpip.o)
                                0x79d (size before relaxing)
 .debug_str     0x00005d08       0x1f ../FreeLwIP_bsp/\libfreertos_bsp.a(alt_lwip_close.o)
                                0x108 (size before relaxing)
 .debug_str     0x00005d27       0x1e ../FreeLwIP_bsp/\libfreertos_bsp.a(alt_lwip_read.o)
                                0x10d (size before relaxing)
 .debug_str     0x00005d45       0x1f ../FreeLwIP_bsp/\libfreertos_bsp.a(alt_lwip_write.o)
                                0x10f (size before relaxing)
 .debug_str     0x00005d64      0x6f7 ../FreeLwIP_bsp/\libfreertos_bsp.a(lwip_main.o)
                               0x128f (size before relaxing)
 .debug_str     0x0000645b      0xb70 ../FreeLwIP_bsp/\libfreertos_bsp.a(lwip_tse_mac.o)
                               0x19ca (size before relaxing)
 .debug_str     0x00006fcb      0x16c ../FreeLwIP_bsp/\libfreertos_bsp.a(sys_arch.o)
                                0x431 (size before relaxing)
 .debug_str     0x00007137      0x35f ../FreeLwIP_bsp/\libfreertos_bsp.a(dhcp.o)
                                0x8bf (size before relaxing)
 .debug_str     0x00007496       0x1f ../FreeLwIP_bsp/\libfreertos_bsp.a(init.o)
                                0x102 (size before relaxing)
 .debug_str     0x000074b5      0x14f ../FreeLwIP_bsp/\libfreertos_bsp.a(ip.o)
                                0x71c (size before relaxing)
 .debug_str     0x00007604       0x88 ../FreeLwIP_bsp/\libfreertos_bsp.a(ip_addr.o)
                                0x2e8 (size before relaxing)
 .debug_str     0x0000768c      0x2a7 ../FreeLwIP_bsp/\libfreertos_bsp.a(ip_frag.o)
                                0x762 (size before relaxing)
 .debug_str     0x00007933       0x8a ../FreeLwIP_bsp/\libfreertos_bsp.a(mem.o)
                                0x398 (size before relaxing)
 .debug_str     0x000079bd       0x65 ../FreeLwIP_bsp/\libfreertos_bsp.a(memp.o)
                                0x336 (size before relaxing)
 .debug_str     0x00007a22      0x183 ../FreeLwIP_bsp/\libfreertos_bsp.a(netif.o)
                                0x911 (size before relaxing)
 .debug_str     0x00007ba5      0x269 ../FreeLwIP_bsp/\libfreertos_bsp.a(pbuf.o)
                                0x880 (size before relaxing)
 .debug_str     0x00007e0e       0x75 ../FreeLwIP_bsp/\libfreertos_bsp.a(raw.o)
                                0x4c0 (size before relaxing)
 .debug_str     0x00007e83       0x21 ../FreeLwIP_bsp/\libfreertos_bsp.a(stats.o)
                                0x2d2 (size before relaxing)
 .debug_str     0x00007ea4      0x380 ../FreeLwIP_bsp/\libfreertos_bsp.a(tcp.o)
                                0xb0b (size before relaxing)
 .debug_str     0x00008224      0x13d ../FreeLwIP_bsp/\libfreertos_bsp.a(tcp_in.o)
                                0x92f (size before relaxing)
 .debug_str     0x00008361      0x212 ../FreeLwIP_bsp/\libfreertos_bsp.a(tcp_out.o)
                                0x992 (size before relaxing)
 .debug_str     0x00008573      0x103 ../FreeLwIP_bsp/\libfreertos_bsp.a(timers.o)
                                0x6a7 (size before relaxing)
 .debug_str     0x00008676      0x120 ../FreeLwIP_bsp/\libfreertos_bsp.a(udp.o)
                                0x7f6 (size before relaxing)
 .debug_str     0x00008796      0x314 ../FreeLwIP_bsp/\libfreertos_bsp.a(etharp.o)
                                0x97e (size before relaxing)
 .debug_str     0x00008aaa      0x4fe ../FreeLwIP_bsp/\libfreertos_bsp.a(alt_sys_init.o)
                                0x8ba (size before relaxing)
 .debug_str     0x00008fa8      0x177 ../FreeLwIP_bsp/\libfreertos_bsp.a(altera_avalon_cfi_flash.o)
                                0x4ff (size before relaxing)
 .debug_str     0x0000911f      0x2bf ../FreeLwIP_bsp/\libfreertos_bsp.a(altera_avalon_cfi_flash_table.o)
                                0x617 (size before relaxing)
 .debug_str     0x000093de       0xac ../FreeLwIP_bsp/\libfreertos_bsp.a(altera_avalon_jtag_uart_fd.o)
                                0x399 (size before relaxing)
 .debug_str     0x0000948a       0xc1 ../FreeLwIP_bsp/\libfreertos_bsp.a(altera_avalon_jtag_uart_init.o)
                                0x34a (size before relaxing)
 .debug_str     0x0000954b       0x4a ../FreeLwIP_bsp/\libfreertos_bsp.a(altera_avalon_jtag_uart_ioctl.o)
                                0x288 (size before relaxing)
 .debug_str     0x00009595       0x55 ../FreeLwIP_bsp/\libfreertos_bsp.a(altera_avalon_jtag_uart_read.o)
                                0x2f9 (size before relaxing)
 .debug_str     0x000095ea       0x4a ../FreeLwIP_bsp/\libfreertos_bsp.a(altera_avalon_jtag_uart_write.o)
                                0x2fa (size before relaxing)
 .debug_str     0x00009634      0x1f7 ../FreeLwIP_bsp/\libfreertos_bsp.a(altera_avalon_lcd_16207.o)
                                0x4aa (size before relaxing)
 .debug_str     0x0000982b       0x4a ../FreeLwIP_bsp/\libfreertos_bsp.a(altera_avalon_lcd_16207_fd.o)
                                0x343 (size before relaxing)
 .debug_str     0x00009875      0x361 ../FreeLwIP_bsp/\libfreertos_bsp.a(altera_avalon_sgdma.o)
                                0x652 (size before relaxing)
 .debug_str     0x00009bd6       0x66 ../FreeLwIP_bsp/\libfreertos_bsp.a(altera_avalon_timer_sc.o)
                                0x214 (size before relaxing)
 .debug_str     0x00009c3c      0xa93 ../FreeLwIP_bsp/\libfreertos_bsp.a(altera_avalon_tse.o)
                               0x1c8d (size before relaxing)
 .debug_str     0x0000a6cf       0x2c ../FreeLwIP_bsp/\libfreertos_bsp.a(altera_avalon_tse_system_info.o)
                                0x8ce (size before relaxing)
 .debug_str     0x0000a6fb       0x77 ../FreeLwIP_bsp/\libfreertos_bsp.a(altera_avalon_uart_fd.o)
                                0x2ea (size before relaxing)
 .debug_str     0x0000a772       0xa0 ../FreeLwIP_bsp/\libfreertos_bsp.a(altera_avalon_uart_init.o)
                                0x2c9 (size before relaxing)
 .debug_str     0x0000a812       0x4f ../FreeLwIP_bsp/\libfreertos_bsp.a(altera_avalon_uart_read.o)
                                0x2be (size before relaxing)
 .debug_str     0x0000a861       0x49 ../FreeLwIP_bsp/\libfreertos_bsp.a(altera_avalon_uart_write.o)
                                0x2b2 (size before relaxing)
 .debug_str     0x0000a8aa       0x58 ../FreeLwIP_bsp/\libfreertos_bsp.a(altera_vic_irq_init.o)
                                0x1bb (size before relaxing)
 .debug_str     0x0000a902       0x53 ../FreeLwIP_bsp/\libfreertos_bsp.a(altera_vic_isr_register.o)
                                0x225 (size before relaxing)
 .debug_str     0x0000a955       0x34 ../FreeLwIP_bsp/\libfreertos_bsp.a(alt_env_lock.o)
                                0x4d5 (size before relaxing)
 .debug_str     0x0000a989       0xa0 ../FreeLwIP_bsp/\libfreertos_bsp.a(list.o)
                                0x228 (size before relaxing)
 .debug_str     0x0000aa29       0xdb ../FreeLwIP_bsp/\libfreertos_bsp.a(port.o)
                                0x232 (size before relaxing)
 .debug_str     0x0000ab04       0x59 ../FreeLwIP_bsp/\libfreertos_bsp.a(alt_alarm_start.o)
                                0x247 (size before relaxing)
 .debug_str     0x0000ab5d       0x42 ../FreeLwIP_bsp/\libfreertos_bsp.a(alt_busy_sleep.o)
                                0x12d (size before relaxing)
 .debug_str     0x0000ab9f       0x25 ../FreeLwIP_bsp/\libfreertos_bsp.a(alt_close.o)
                                0x1d7 (size before relaxing)
 .debug_str     0x0000abc4       0x2c ../FreeLwIP_bsp/\libfreertos_bsp.a(alt_dcache_flush.o)
                                0x11d (size before relaxing)
 .debug_str     0x0000abf0       0x34 ../FreeLwIP_bsp/\libfreertos_bsp.a(alt_dcache_flush_all.o)
                                0x117 (size before relaxing)
 .debug_str     0x0000ac24       0x34 ../FreeLwIP_bsp/\libfreertos_bsp.a(alt_dev_llist_insert.o)
                                0x18e (size before relaxing)
 .debug_str     0x0000ac58       0x14 ../FreeLwIP_bsp/\libfreertos_bsp.a(alt_errno.o)
                                0x107 (size before relaxing)
 .debug_str     0x0000ac6c       0x24 ../FreeLwIP_bsp/\libfreertos_bsp.a(alt_find_dev.o)
                                0x1ae (size before relaxing)
 .debug_str     0x0000ac90       0x26 ../FreeLwIP_bsp/\libfreertos_bsp.a(alt_find_file.o)
                                0x1bc (size before relaxing)
 .debug_str     0x0000acb6       0x3f ../FreeLwIP_bsp/\libfreertos_bsp.a(alt_flash_dev.o)
                                0x2b1 (size before relaxing)
 .debug_str     0x0000acf5       0x30 ../FreeLwIP_bsp/\libfreertos_bsp.a(alt_get_fd.o)
                                0x22a (size before relaxing)
 .debug_str     0x0000ad25       0x81 ../FreeLwIP_bsp/\libfreertos_bsp.a(alt_gettod.o)
                                0x1eb (size before relaxing)
 .debug_str     0x0000ada6       0x34 ../FreeLwIP_bsp/\libfreertos_bsp.a(alt_icache_flush_all.o)
                                0x117 (size before relaxing)
 .debug_str     0x0000adda      0x48b ../FreeLwIP_bsp/\libfreertos_bsp.a(alt_instruction_exception_entry.o)
                                0x561 (size before relaxing)
 .debug_str     0x0000b265       0x1c ../FreeLwIP_bsp/\libfreertos_bsp.a(alt_read.o)
                                0x2c2 (size before relaxing)
 .debug_str     0x0000b281       0x30 ../FreeLwIP_bsp/\libfreertos_bsp.a(alt_remap_uncached.o)
                                0x11b (size before relaxing)
 .debug_str     0x0000b2b1       0x4a ../FreeLwIP_bsp/\libfreertos_bsp.a(alt_tick.o)
                                0x21b (size before relaxing)
 .debug_str     0x0000b2fb       0x32 ../FreeLwIP_bsp/\libfreertos_bsp.a(alt_uncached_malloc.o)
                                0x129 (size before relaxing)
 .debug_str     0x0000b32d       0x1e ../FreeLwIP_bsp/\libfreertos_bsp.a(alt_write.o)
                                0x2c4 (size before relaxing)
 .debug_str     0x0000b34b       0x75 ../FreeLwIP_bsp/\libfreertos_bsp.a(altera_tse_ethernetif.o)
                                0xdfb (size before relaxing)
 .debug_str     0x0000b3c0       0x79 ../FreeLwIP_bsp/\libfreertos_bsp.a(icmp.o)
                                0x4e9 (size before relaxing)
 .debug_str     0x0000b439       0xae ../FreeLwIP_bsp/\libfreertos_bsp.a(inet_chksum.o)
                                0x21a (size before relaxing)
 .debug_str     0x0000b4e7       0x93 ../FreeLwIP_bsp/\libfreertos_bsp.a(altera_avalon_cfi_flash_amd.o)
                                0x3f1 (size before relaxing)
 .debug_str     0x0000b57a       0x80 ../FreeLwIP_bsp/\libfreertos_bsp.a(altera_avalon_cfi_flash_intel.o)
                                0x3ee (size before relaxing)
 .debug_str     0x0000b5fa       0x2c ../FreeLwIP_bsp/\libfreertos_bsp.a(alt_icache_flush.o)
                                0x11d (size before relaxing)
 .debug_str     0x0000b626       0x7f c:/altera/13.1/nios2eds/bin/gnu/h-i686-mingw32/bin/../lib/gcc/nios2-elf/4.7.3/../../../../../H-i686-mingw32/nios2-elf/lib\libc.a(lib_a-atexit.o)
                                0x20f (size before relaxing)
 .debug_str     0x0000b6a5       0xd9 c:/altera/13.1/nios2eds/bin/gnu/h-i686-mingw32/bin/../lib/gcc/nios2-elf/4.7.3/../../../../../H-i686-mingw32/nios2-elf/lib\libc.a(lib_a-ctype_.o)
                                 0xff (size before relaxing)
 .debug_str     0x0000b77e       0xcf c:/altera/13.1/nios2eds/bin/gnu/h-i686-mingw32/bin/../lib/gcc/nios2-elf/4.7.3/../../../../../H-i686-mingw32/nios2-elf/lib\libc.a(lib_a-errno.o)
                                0x50e (size before relaxing)
 .debug_str     0x0000b84d       0x4a c:/altera/13.1/nios2eds/bin/gnu/h-i686-mingw32/bin/../lib/gcc/nios2-elf/4.7.3/../../../../../H-i686-mingw32/nios2-elf/lib\libc.a(lib_a-exit.o)
                                0x52f (size before relaxing)
 .debug_str     0x0000b897       0x3b c:/altera/13.1/nios2eds/bin/gnu/h-i686-mingw32/bin/../lib/gcc/nios2-elf/4.7.3/../../../../../H-i686-mingw32/nios2-elf/lib\libc.a(lib_a-malloc.o)
                                0x53a (size before relaxing)
 .debug_str     0x0000b8d2       0x3b c:/altera/13.1/nios2eds/bin/gnu/h-i686-mingw32/bin/../lib/gcc/nios2-elf/4.7.3/../../../../../H-i686-mingw32/nios2-elf/lib\libc.a(lib_a-memcmp.o)
                                0x176 (size before relaxing)
 .debug_str     0x0000b90d       0x51 c:/altera/13.1/nios2eds/bin/gnu/h-i686-mingw32/bin/../lib/gcc/nios2-elf/4.7.3/../../../../../H-i686-mingw32/nios2-elf/lib\libc.a(lib_a-snprintf.o)
                                0x56f (size before relaxing)
 .debug_str     0x0000b95e       0x44 c:/altera/13.1/nios2eds/bin/gnu/h-i686-mingw32/bin/../lib/gcc/nios2-elf/4.7.3/../../../../../H-i686-mingw32/nios2-elf/lib\libc.a(lib_a-strncpy.o)
                                0x1a0 (size before relaxing)
 .debug_str     0x0000b9a2       0x3d c:/altera/13.1/nios2eds/bin/gnu/h-i686-mingw32/bin/../lib/gcc/nios2-elf/4.7.3/../../../../../H-i686-mingw32/nios2-elf/lib\libc.a(lib_a-__atexit.o)
                                0x573 (size before relaxing)
 .debug_str     0x0000b9df       0x54 c:/altera/13.1/nios2eds/bin/gnu/h-i686-mingw32/bin/../lib/gcc/nios2-elf/4.7.3/../../../../../H-i686-mingw32/nios2-elf/lib\libc.a(lib_a-__call_atexit.o)
                                0x551 (size before relaxing)
 .debug_str     0x0000ba33       0x2a ../FreeLwIP_bsp/\libfreertos_bsp.a(alt_exit.o)
                                0x113 (size before relaxing)

.debug_loc      0x00000000    0x18bcf
 *(.debug_loc)
 .debug_loc     0x00000000       0x58 obj/default/BasicWEB.o
 .debug_loc     0x00000058       0xb1 obj/default/BlockQ.o
 .debug_loc     0x00000109      0x108 obj/default/GenQTest.o
 .debug_loc     0x00000211       0xb0 obj/default/PollQ.o
 .debug_loc     0x000002c1      0x108 obj/default/QPeek.o
 .debug_loc     0x000003c9       0xb0 obj/default/blocktim.o
 .debug_loc     0x00000479       0xdc obj/default/countsem.o
 .debug_loc     0x00000555       0xb0 obj/default/death.o
 .debug_loc     0x00000605      0x134 obj/default/dynamic.o
 .debug_loc     0x00000739       0x2d obj/default/echo_server.o
 .debug_loc     0x00000766      0x1b8 obj/default/ethernet.o
 .debug_loc     0x0000091e       0x84 obj/default/integer.o
 .debug_loc     0x000009a2      0x134 obj/default/main.o
 .debug_loc     0x00000ad6       0xdc obj/default/recmutex.o
 .debug_loc     0x00000bb2       0x84 obj/default/semtest.o
 .debug_loc     0x00000c36      0x1f2 c:/altera/13.1/nios2eds/bin/gnu/h-i686-mingw32/bin/../lib/gcc/nios2-elf/4.7.3/../../../../../H-i686-mingw32/nios2-elf/lib\libc.a(lib_a-memcpy.o)
 .debug_loc     0x00000e28      0x1b7 c:/altera/13.1/nios2eds/bin/gnu/h-i686-mingw32/bin/../lib/gcc/nios2-elf/4.7.3/../../../../../H-i686-mingw32/nios2-elf/lib\libc.a(lib_a-memset.o)
 .debug_loc     0x00000fdf       0xdb c:/altera/13.1/nios2eds/bin/gnu/h-i686-mingw32/bin/../lib/gcc/nios2-elf/4.7.3/../../../../../H-i686-mingw32/nios2-elf/lib\libc.a(lib_a-perror.o)
 .debug_loc     0x000010ba      0x132 c:/altera/13.1/nios2eds/bin/gnu/h-i686-mingw32/bin/../lib/gcc/nios2-elf/4.7.3/../../../../../H-i686-mingw32/nios2-elf/lib\libc.a(lib_a-printf.o)
 .debug_loc     0x000011ec       0xd9 c:/altera/13.1/nios2eds/bin/gnu/h-i686-mingw32/bin/../lib/gcc/nios2-elf/4.7.3/../../../../../H-i686-mingw32/nios2-elf/lib\libc.a(lib_a-puts.o)
 .debug_loc     0x000012c5      0x148 c:/altera/13.1/nios2eds/bin/gnu/h-i686-mingw32/bin/../lib/gcc/nios2-elf/4.7.3/../../../../../H-i686-mingw32/nios2-elf/lib\libc.a(lib_a-sprintf.o)
 .debug_loc     0x0000140d       0xc7 c:/altera/13.1/nios2eds/bin/gnu/h-i686-mingw32/bin/../lib/gcc/nios2-elf/4.7.3/../../../../../H-i686-mingw32/nios2-elf/lib\libc.a(lib_a-strcat.o)
 .debug_loc     0x000014d4      0x191 c:/altera/13.1/nios2eds/bin/gnu/h-i686-mingw32/bin/../lib/gcc/nios2-elf/4.7.3/../../../../../H-i686-mingw32/nios2-elf/lib\libc.a(lib_a-strcpy.o)
 .debug_loc     0x00001665      0x5a8 c:/altera/13.1/nios2eds/bin/gnu/h-i686-mingw32/bin/../lib/gcc/nios2-elf/4.7.3/../../../../../H-i686-mingw32/nios2-elf/lib\libc.a(lib_a-strerror.o)
 .debug_loc     0x00001c0d       0x52 c:/altera/13.1/nios2eds/bin/gnu/h-i686-mingw32/bin/../lib/gcc/nios2-elf/4.7.3/../../../../../H-i686-mingw32/nios2-elf/lib\libc.a(lib_a-strlen.o)
 .debug_loc     0x00001c5f      0x122 c:/altera/13.1/nios2eds/bin/gnu/h-i686-mingw32/bin/../lib/gcc/nios2-elf/4.7.3/../../../../../H-i686-mingw32/nios2-elf/lib\libc.a(lib_a-strncmp.o)
 .debug_loc     0x00001d81     0x2b6b c:/altera/13.1/nios2eds/bin/gnu/h-i686-mingw32/bin/../lib/gcc/nios2-elf/4.7.3/../../../../../H-i686-mingw32/nios2-elf/lib\libc.a(lib_a-vfprintf.o)
 .debug_loc     0x000048ec       0xba c:/altera/13.1/nios2eds/bin/gnu/h-i686-mingw32/bin/../lib/gcc/nios2-elf/4.7.3/../../../../../H-i686-mingw32/nios2-elf/lib\libc.a(lib_a-wsetup.o)
 .debug_loc     0x000049a6     0x2286 c:/altera/13.1/nios2eds/bin/gnu/h-i686-mingw32/bin/../lib/gcc/nios2-elf/4.7.3/../../../../../H-i686-mingw32/nios2-elf/lib\libc.a(lib_a-dtoa.o)
 .debug_loc     0x00006c2c      0x259 c:/altera/13.1/nios2eds/bin/gnu/h-i686-mingw32/bin/../lib/gcc/nios2-elf/4.7.3/../../../../../H-i686-mingw32/nios2-elf/lib\libc.a(lib_a-fflush.o)
 .debug_loc     0x00006e85      0x29c c:/altera/13.1/nios2eds/bin/gnu/h-i686-mingw32/bin/../lib/gcc/nios2-elf/4.7.3/../../../../../H-i686-mingw32/nios2-elf/lib\libc.a(lib_a-findfp.o)
 .debug_loc     0x00007121      0x111 c:/altera/13.1/nios2eds/bin/gnu/h-i686-mingw32/bin/../lib/gcc/nios2-elf/4.7.3/../../../../../H-i686-mingw32/nios2-elf/lib\libc.a(lib_a-fputc.o)
 .debug_loc     0x00007232       0xf1 c:/altera/13.1/nios2eds/bin/gnu/h-i686-mingw32/bin/../lib/gcc/nios2-elf/4.7.3/../../../../../H-i686-mingw32/nios2-elf/lib\libc.a(lib_a-fputs.o)
 .debug_loc     0x00007323      0x668 c:/altera/13.1/nios2eds/bin/gnu/h-i686-mingw32/bin/../lib/gcc/nios2-elf/4.7.3/../../../../../H-i686-mingw32/nios2-elf/lib\libc.a(lib_a-freer.o)
 .debug_loc     0x0000798b      0x50c c:/altera/13.1/nios2eds/bin/gnu/h-i686-mingw32/bin/../lib/gcc/nios2-elf/4.7.3/../../../../../H-i686-mingw32/nios2-elf/lib\libc.a(lib_a-fvwrite.o)
 .debug_loc     0x00007e97      0x2ae c:/altera/13.1/nios2eds/bin/gnu/h-i686-mingw32/bin/../lib/gcc/nios2-elf/4.7.3/../../../../../H-i686-mingw32/nios2-elf/lib\libc.a(lib_a-fwalk.o)
 .debug_loc     0x00008145      0x13e c:/altera/13.1/nios2eds/bin/gnu/h-i686-mingw32/bin/../lib/gcc/nios2-elf/4.7.3/../../../../../H-i686-mingw32/nios2-elf/lib\libc.a(lib_a-locale.o)
 .debug_loc     0x00008283      0x16a c:/altera/13.1/nios2eds/bin/gnu/h-i686-mingw32/bin/../lib/gcc/nios2-elf/4.7.3/../../../../../H-i686-mingw32/nios2-elf/lib\libc.a(lib_a-makebuf.o)
 .debug_loc     0x000083ed      0xb50 c:/altera/13.1/nios2eds/bin/gnu/h-i686-mingw32/bin/../lib/gcc/nios2-elf/4.7.3/../../../../../H-i686-mingw32/nios2-elf/lib\libc.a(lib_a-mallocr.o)
 .debug_loc     0x00008f3d      0x239 c:/altera/13.1/nios2eds/bin/gnu/h-i686-mingw32/bin/../lib/gcc/nios2-elf/4.7.3/../../../../../H-i686-mingw32/nios2-elf/lib\libc.a(lib_a-memchr.o)
 .debug_loc     0x00009176      0x240 c:/altera/13.1/nios2eds/bin/gnu/h-i686-mingw32/bin/../lib/gcc/nios2-elf/4.7.3/../../../../../H-i686-mingw32/nios2-elf/lib\libc.a(lib_a-memmove.o)
 .debug_loc     0x000093b6     0x1b23 c:/altera/13.1/nios2eds/bin/gnu/h-i686-mingw32/bin/../lib/gcc/nios2-elf/4.7.3/../../../../../H-i686-mingw32/nios2-elf/lib\libc.a(lib_a-mprec.o)
 .debug_loc     0x0000aed9      0x257 c:/altera/13.1/nios2eds/bin/gnu/h-i686-mingw32/bin/../lib/gcc/nios2-elf/4.7.3/../../../../../H-i686-mingw32/nios2-elf/lib\libc.a(lib_a-putc.o)
 .debug_loc     0x0000b130     0x1136 c:/altera/13.1/nios2eds/bin/gnu/h-i686-mingw32/bin/../lib/gcc/nios2-elf/4.7.3/../../../../../H-i686-mingw32/nios2-elf/lib\libc.a(lib_a-reallocr.o)
 .debug_loc     0x0000c266       0x88 c:/altera/13.1/nios2eds/bin/gnu/h-i686-mingw32/bin/../lib/gcc/nios2-elf/4.7.3/../../../../../H-i686-mingw32/nios2-elf/lib\libc.a(lib_a-s_isinfd.o)
 .debug_loc     0x0000c2ee       0xa5 c:/altera/13.1/nios2eds/bin/gnu/h-i686-mingw32/bin/../lib/gcc/nios2-elf/4.7.3/../../../../../H-i686-mingw32/nios2-elf/lib\libc.a(lib_a-s_isnand.o)
 .debug_loc     0x0000c393       0x86 c:/altera/13.1/nios2eds/bin/gnu/h-i686-mingw32/bin/../lib/gcc/nios2-elf/4.7.3/../../../../../H-i686-mingw32/nios2-elf/lib\libc.a(lib_a-sbrkr.o)
 .debug_loc     0x0000c419      0x379 c:/altera/13.1/nios2eds/bin/gnu/h-i686-mingw32/bin/../lib/gcc/nios2-elf/4.7.3/../../../../../H-i686-mingw32/nios2-elf/lib\libc.a(lib_a-stdio.o)
 .debug_loc     0x0000c792       0xb0 c:/altera/13.1/nios2eds/bin/gnu/h-i686-mingw32/bin/../lib/gcc/nios2-elf/4.7.3/../../../../../H-i686-mingw32/nios2-elf/lib\libc.a(lib_a-strcmp.o)
 .debug_loc     0x0000c842      0x193 c:/altera/13.1/nios2eds/bin/gnu/h-i686-mingw32/bin/../lib/gcc/nios2-elf/4.7.3/../../../../../H-i686-mingw32/nios2-elf/lib\libc.a(lib_a-wbuf.o)
 .debug_loc     0x0000c9d5       0xde c:/altera/13.1/nios2eds/bin/gnu/h-i686-mingw32/bin/../lib/gcc/nios2-elf/4.7.3/../../../../../H-i686-mingw32/nios2-elf/lib\libc.a(lib_a-writer.o)
 .debug_loc     0x0000cab3      0x283 c:/altera/13.1/nios2eds/bin/gnu/h-i686-mingw32/bin/../lib/gcc/nios2-elf/4.7.3/../../../../../H-i686-mingw32/nios2-elf/lib\libc.a(lib_a-callocr.o)
 .debug_loc     0x0000cd36       0x86 c:/altera/13.1/nios2eds/bin/gnu/h-i686-mingw32/bin/../lib/gcc/nios2-elf/4.7.3/../../../../../H-i686-mingw32/nios2-elf/lib\libc.a(lib_a-closer.o)
 .debug_loc     0x0000cdbc      0x136 c:/altera/13.1/nios2eds/bin/gnu/h-i686-mingw32/bin/../lib/gcc/nios2-elf/4.7.3/../../../../../H-i686-mingw32/nios2-elf/lib\libc.a(lib_a-fclose.o)
 .debug_loc     0x0000cef2       0xb2 c:/altera/13.1/nios2eds/bin/gnu/h-i686-mingw32/bin/../lib/gcc/nios2-elf/4.7.3/../../../../../H-i686-mingw32/nios2-elf/lib\libc.a(lib_a-fstatr.o)
 .debug_loc     0x0000cfa4       0x86 c:/altera/13.1/nios2eds/bin/gnu/h-i686-mingw32/bin/../lib/gcc/nios2-elf/4.7.3/../../../../../H-i686-mingw32/nios2-elf/lib\libc.a(lib_a-isattyr.o)
 .debug_loc     0x0000d02a       0xde c:/altera/13.1/nios2eds/bin/gnu/h-i686-mingw32/bin/../lib/gcc/nios2-elf/4.7.3/../../../../../H-i686-mingw32/nios2-elf/lib\libc.a(lib_a-lseekr.o)
 .debug_loc     0x0000d108       0xde c:/altera/13.1/nios2eds/bin/gnu/h-i686-mingw32/bin/../lib/gcc/nios2-elf/4.7.3/../../../../../H-i686-mingw32/nios2-elf/lib\libc.a(lib_a-readr.o)
 .debug_loc     0x0000d1e6     0x10da c:/altera/13.1/nios2eds/bin/gnu/h-i686-mingw32/bin/../lib/gcc/nios2-elf/4.7.3\libgcc.a(_udivdi3.o)
 .debug_loc     0x0000e2c0     0x104d c:/altera/13.1/nios2eds/bin/gnu/h-i686-mingw32/bin/../lib/gcc/nios2-elf/4.7.3\libgcc.a(_umoddi3.o)
 .debug_loc     0x0000f30d      0x7a1 c:/altera/13.1/nios2eds/bin/gnu/h-i686-mingw32/bin/../lib/gcc/nios2-elf/4.7.3\libgcc.a(_addsub_df.o)
 .debug_loc     0x0000faae      0x3ba c:/altera/13.1/nios2eds/bin/gnu/h-i686-mingw32/bin/../lib/gcc/nios2-elf/4.7.3\libgcc.a(_mul_df.o)
 .debug_loc     0x0000fe68      0x25e c:/altera/13.1/nios2eds/bin/gnu/h-i686-mingw32/bin/../lib/gcc/nios2-elf/4.7.3\libgcc.a(_div_df.o)
 .debug_loc     0x000100c6       0x70 c:/altera/13.1/nios2eds/bin/gnu/h-i686-mingw32/bin/../lib/gcc/nios2-elf/4.7.3\libgcc.a(_eq_df.o)
 .debug_loc     0x00010136       0x70 c:/altera/13.1/nios2eds/bin/gnu/h-i686-mingw32/bin/../lib/gcc/nios2-elf/4.7.3\libgcc.a(_ne_df.o)
 .debug_loc     0x000101a6       0x70 c:/altera/13.1/nios2eds/bin/gnu/h-i686-mingw32/bin/../lib/gcc/nios2-elf/4.7.3\libgcc.a(_gt_df.o)
 .debug_loc     0x00010216       0x70 c:/altera/13.1/nios2eds/bin/gnu/h-i686-mingw32/bin/../lib/gcc/nios2-elf/4.7.3\libgcc.a(_ge_df.o)
 .debug_loc     0x00010286       0x70 c:/altera/13.1/nios2eds/bin/gnu/h-i686-mingw32/bin/../lib/gcc/nios2-elf/4.7.3\libgcc.a(_lt_df.o)
 .debug_loc     0x000102f6       0xd3 c:/altera/13.1/nios2eds/bin/gnu/h-i686-mingw32/bin/../lib/gcc/nios2-elf/4.7.3\libgcc.a(_si_to_df.o)
 .debug_loc     0x000103c9       0xce c:/altera/13.1/nios2eds/bin/gnu/h-i686-mingw32/bin/../lib/gcc/nios2-elf/4.7.3\libgcc.a(_df_to_si.o)
 .debug_loc     0x00010497      0x168 c:/altera/13.1/nios2eds/bin/gnu/h-i686-mingw32/bin/../lib/gcc/nios2-elf/4.7.3\libgcc.a(_usi_to_df.o)
 .debug_loc     0x000105ff      0x338 c:/altera/13.1/nios2eds/bin/gnu/h-i686-mingw32/bin/../lib/gcc/nios2-elf/4.7.3\libgcc.a(lib2-divmod.o)
 .debug_loc     0x00010937      0x15d c:/altera/13.1/nios2eds/bin/gnu/h-i686-mingw32/bin/../lib/gcc/nios2-elf/4.7.3\libgcc.a(_muldi3.o)
 .debug_loc     0x00010a94      0x19a c:/altera/13.1/nios2eds/bin/gnu/h-i686-mingw32/bin/../lib/gcc/nios2-elf/4.7.3\libgcc.a(_clzsi2.o)
 .debug_loc     0x00010c2e      0x2ae c:/altera/13.1/nios2eds/bin/gnu/h-i686-mingw32/bin/../lib/gcc/nios2-elf/4.7.3\libgcc.a(_pack_df.o)
 .debug_loc     0x00010edc      0x179 c:/altera/13.1/nios2eds/bin/gnu/h-i686-mingw32/bin/../lib/gcc/nios2-elf/4.7.3\libgcc.a(_unpack_df.o)
 .debug_loc     0x00011055       0x7c c:/altera/13.1/nios2eds/bin/gnu/h-i686-mingw32/bin/../lib/gcc/nios2-elf/4.7.3\libgcc.a(_fpcmp_parts_df.o)
 .debug_loc     0x000110d1       0xc4 c:/altera/13.1/nios2eds/bin/gnu/h-i686-mingw32/bin/../lib/gcc/nios2-elf/4.7.3\libgcc.a(_lshrdi3.o)
 .debug_loc     0x00011195       0xc4 c:/altera/13.1/nios2eds/bin/gnu/h-i686-mingw32/bin/../lib/gcc/nios2-elf/4.7.3\libgcc.a(_ashldi3.o)
 .debug_loc     0x00011259       0x84 ../FreeLwIP_bsp/\libfreertos_bsp.a(alt_main.o)
 .debug_loc     0x000112dd       0x58 ../FreeLwIP_bsp/\libfreertos_bsp.a(alt_malloc_lock.o)
 .debug_loc     0x00011335       0x58 ../FreeLwIP_bsp/\libfreertos_bsp.a(heap_3.o)
 .debug_loc     0x0001138d      0x420 ../FreeLwIP_bsp/\libfreertos_bsp.a(queue.o)
 .debug_loc     0x000117ad      0x790 ../FreeLwIP_bsp/\libfreertos_bsp.a(tasks.o)
 .debug_loc     0x00011f3d      0x268 ../FreeLwIP_bsp/\libfreertos_bsp.a(timers.o)
 .debug_loc     0x000121a5       0x2c ../FreeLwIP_bsp/\libfreertos_bsp.a(alt_dev.o)
 .debug_loc     0x000121d1       0x2c ../FreeLwIP_bsp/\libfreertos_bsp.a(alt_do_ctors.o)
 .debug_loc     0x000121fd       0x2c ../FreeLwIP_bsp/\libfreertos_bsp.a(alt_do_dtors.o)
 .debug_loc     0x00012229       0x58 ../FreeLwIP_bsp/\libfreertos_bsp.a(alt_fstat.o)
 .debug_loc     0x00012281       0x58 ../FreeLwIP_bsp/\libfreertos_bsp.a(alt_io_redirect.o)
 .debug_loc     0x000122d9       0x59 ../FreeLwIP_bsp/\libfreertos_bsp.a(alt_isatty.o)
 .debug_loc     0x00012332       0x58 ../FreeLwIP_bsp/\libfreertos_bsp.a(alt_load.o)
 .debug_loc     0x0001238a       0x58 ../FreeLwIP_bsp/\libfreertos_bsp.a(alt_lseek.o)
 .debug_loc     0x000123e2       0x84 ../FreeLwIP_bsp/\libfreertos_bsp.a(alt_open.o)
 .debug_loc     0x00012466       0x2c ../FreeLwIP_bsp/\libfreertos_bsp.a(alt_release_fd.o)
 .debug_loc     0x00012492       0x2c ../FreeLwIP_bsp/\libfreertos_bsp.a(alt_sbrk.o)
 .debug_loc     0x000124be       0x2c ../FreeLwIP_bsp/\libfreertos_bsp.a(alt_usleep.o)
 .debug_loc     0x000124ea      0x318 ../FreeLwIP_bsp/\libfreertos_bsp.a(api_lib.o)
 .debug_loc     0x00012802      0x478 ../FreeLwIP_bsp/\libfreertos_bsp.a(api_msg.o)
 .debug_loc     0x00012c7a      0x18c ../FreeLwIP_bsp/\libfreertos_bsp.a(netbuf.o)
 .debug_loc     0x00012e06      0x52d ../FreeLwIP_bsp/\libfreertos_bsp.a(sockets.o)
 .debug_loc     0x00013333      0x23c ../FreeLwIP_bsp/\libfreertos_bsp.a(tcpip.o)
 .debug_loc     0x0001356f       0x2c ../FreeLwIP_bsp/\libfreertos_bsp.a(alt_lwip_close.o)
 .debug_loc     0x0001359b       0x2c ../FreeLwIP_bsp/\libfreertos_bsp.a(alt_lwip_read.o)
 .debug_loc     0x000135c7       0x2c ../FreeLwIP_bsp/\libfreertos_bsp.a(alt_lwip_write.o)
 .debug_loc     0x000135f3      0x26a ../FreeLwIP_bsp/\libfreertos_bsp.a(lwip_main.o)
 .debug_loc     0x0001385d       0xde ../FreeLwIP_bsp/\libfreertos_bsp.a(lwip_tse_mac.o)
 .debug_loc     0x0001393b      0x2ec ../FreeLwIP_bsp/\libfreertos_bsp.a(sys_arch.o)
 .debug_loc     0x00013c27      0x632 ../FreeLwIP_bsp/\libfreertos_bsp.a(dhcp.o)
 .debug_loc     0x00014259       0x2c ../FreeLwIP_bsp/\libfreertos_bsp.a(init.o)
 .debug_loc     0x00014285       0xdc ../FreeLwIP_bsp/\libfreertos_bsp.a(ip.o)
 .debug_loc     0x00014361      0x108 ../FreeLwIP_bsp/\libfreertos_bsp.a(ip_addr.o)
 .debug_loc     0x00014469      0x1e5 ../FreeLwIP_bsp/\libfreertos_bsp.a(ip_frag.o)
 .debug_loc     0x0001464e      0x108 ../FreeLwIP_bsp/\libfreertos_bsp.a(mem.o)
 .debug_loc     0x00014756       0x84 ../FreeLwIP_bsp/\libfreertos_bsp.a(memp.o)
 .debug_loc     0x000147da      0x294 ../FreeLwIP_bsp/\libfreertos_bsp.a(netif.o)
 .debug_loc     0x00014a6e      0x3c8 ../FreeLwIP_bsp/\libfreertos_bsp.a(pbuf.o)
 .debug_loc     0x00014e36      0x160 ../FreeLwIP_bsp/\libfreertos_bsp.a(raw.o)
 .debug_loc     0x00014f96       0x2c ../FreeLwIP_bsp/\libfreertos_bsp.a(stats.o)
 .debug_loc     0x00014fc2      0x65c ../FreeLwIP_bsp/\libfreertos_bsp.a(tcp.o)
 .debug_loc     0x0001561e      0x134 ../FreeLwIP_bsp/\libfreertos_bsp.a(tcp_in.o)
 .debug_loc     0x00015752      0x2ed ../FreeLwIP_bsp/\libfreertos_bsp.a(tcp_out.o)
 .debug_loc     0x00015a3f      0x1b8 ../FreeLwIP_bsp/\libfreertos_bsp.a(timers.o)
 .debug_loc     0x00015bf7      0x295 ../FreeLwIP_bsp/\libfreertos_bsp.a(udp.o)
 .debug_loc     0x00015e8c      0x2c0 ../FreeLwIP_bsp/\libfreertos_bsp.a(etharp.o)
 .debug_loc     0x0001614c       0x84 ../FreeLwIP_bsp/\libfreertos_bsp.a(alt_sys_init.o)
 .debug_loc     0x000161d0      0x134 ../FreeLwIP_bsp/\libfreertos_bsp.a(altera_avalon_cfi_flash.o)
 .debug_loc     0x00016304      0x318 ../FreeLwIP_bsp/\libfreertos_bsp.a(altera_avalon_cfi_flash_table.o)
 .debug_loc     0x0001661c       0xb0 ../FreeLwIP_bsp/\libfreertos_bsp.a(altera_avalon_jtag_uart_fd.o)
 .debug_loc     0x000166cc       0xb0 ../FreeLwIP_bsp/\libfreertos_bsp.a(altera_avalon_jtag_uart_init.o)
 .debug_loc     0x0001677c       0x2c ../FreeLwIP_bsp/\libfreertos_bsp.a(altera_avalon_jtag_uart_ioctl.o)
 .debug_loc     0x000167a8       0x2d ../FreeLwIP_bsp/\libfreertos_bsp.a(altera_avalon_jtag_uart_read.o)
 .debug_loc     0x000167d5       0x2d ../FreeLwIP_bsp/\libfreertos_bsp.a(altera_avalon_jtag_uart_write.o)
 .debug_loc     0x00016802      0x18c ../FreeLwIP_bsp/\libfreertos_bsp.a(altera_avalon_lcd_16207.o)
 .debug_loc     0x0001698e       0x2c ../FreeLwIP_bsp/\libfreertos_bsp.a(altera_avalon_lcd_16207_fd.o)
 .debug_loc     0x000169ba      0x370 ../FreeLwIP_bsp/\libfreertos_bsp.a(altera_avalon_sgdma.o)
 .debug_loc     0x00016d2a       0x58 ../FreeLwIP_bsp/\libfreertos_bsp.a(altera_avalon_timer_sc.o)
 .debug_loc     0x00016d82      0x767 ../FreeLwIP_bsp/\libfreertos_bsp.a(altera_avalon_tse.o)
 .debug_loc     0x000174e9       0x84 ../FreeLwIP_bsp/\libfreertos_bsp.a(altera_avalon_uart_fd.o)
 .debug_loc     0x0001756d       0xdc ../FreeLwIP_bsp/\libfreertos_bsp.a(altera_avalon_uart_init.o)
 .debug_loc     0x00017649       0x59 ../FreeLwIP_bsp/\libfreertos_bsp.a(altera_avalon_uart_read.o)
 .debug_loc     0x000176a2       0x59 ../FreeLwIP_bsp/\libfreertos_bsp.a(altera_avalon_uart_write.o)
 .debug_loc     0x000176fb       0x2c ../FreeLwIP_bsp/\libfreertos_bsp.a(altera_vic_irq_init.o)
 .debug_loc     0x00017727       0x2c ../FreeLwIP_bsp/\libfreertos_bsp.a(altera_vic_isr_register.o)
 .debug_loc     0x00017753       0x58 ../FreeLwIP_bsp/\libfreertos_bsp.a(alt_env_lock.o)
 .debug_loc     0x000177ab       0xdc ../FreeLwIP_bsp/\libfreertos_bsp.a(list.o)
 .debug_loc     0x00017887      0x134 ../FreeLwIP_bsp/\libfreertos_bsp.a(port.o)
 .debug_loc     0x000179bb       0x2c ../FreeLwIP_bsp/\libfreertos_bsp.a(alt_alarm_start.o)
 .debug_loc     0x000179e7       0x2c ../FreeLwIP_bsp/\libfreertos_bsp.a(alt_busy_sleep.o)
 .debug_loc     0x00017a13       0x58 ../FreeLwIP_bsp/\libfreertos_bsp.a(alt_close.o)
 .debug_loc     0x00017a6b       0x2c ../FreeLwIP_bsp/\libfreertos_bsp.a(alt_dcache_flush.o)
 .debug_loc     0x00017a97       0x2c ../FreeLwIP_bsp/\libfreertos_bsp.a(alt_dcache_flush_all.o)
 .debug_loc     0x00017ac3       0x58 ../FreeLwIP_bsp/\libfreertos_bsp.a(alt_dev_llist_insert.o)
 .debug_loc     0x00017b1b       0x2c ../FreeLwIP_bsp/\libfreertos_bsp.a(alt_find_dev.o)
 .debug_loc     0x00017b47       0x2c ../FreeLwIP_bsp/\libfreertos_bsp.a(alt_find_file.o)
 .debug_loc     0x00017b73       0x58 ../FreeLwIP_bsp/\libfreertos_bsp.a(alt_flash_dev.o)
 .debug_loc     0x00017bcb       0x2c ../FreeLwIP_bsp/\libfreertos_bsp.a(alt_get_fd.o)
 .debug_loc     0x00017bf7       0x2c ../FreeLwIP_bsp/\libfreertos_bsp.a(alt_gettod.o)
 .debug_loc     0x00017c23       0x2c ../FreeLwIP_bsp/\libfreertos_bsp.a(alt_icache_flush_all.o)
 .debug_loc     0x00017c4f       0x58 ../FreeLwIP_bsp/\libfreertos_bsp.a(alt_instruction_exception_entry.o)
 .debug_loc     0x00017ca7       0x58 ../FreeLwIP_bsp/\libfreertos_bsp.a(alt_read.o)
 .debug_loc     0x00017cff       0x2c ../FreeLwIP_bsp/\libfreertos_bsp.a(alt_remap_uncached.o)
 .debug_loc     0x00017d2b       0x58 ../FreeLwIP_bsp/\libfreertos_bsp.a(alt_tick.o)
 .debug_loc     0x00017d83       0x2c ../FreeLwIP_bsp/\libfreertos_bsp.a(alt_uncached_malloc.o)
 .debug_loc     0x00017daf       0x58 ../FreeLwIP_bsp/\libfreertos_bsp.a(alt_write.o)
 .debug_loc     0x00017e07       0xb0 ../FreeLwIP_bsp/\libfreertos_bsp.a(altera_tse_ethernetif.o)
 .debug_loc     0x00017eb7       0xb0 ../FreeLwIP_bsp/\libfreertos_bsp.a(icmp.o)
 .debug_loc     0x00017f67      0x108 ../FreeLwIP_bsp/\libfreertos_bsp.a(inet_chksum.o)
 .debug_loc     0x0001806f       0xb0 ../FreeLwIP_bsp/\libfreertos_bsp.a(altera_avalon_cfi_flash_amd.o)
 .debug_loc     0x0001811f       0xb0 ../FreeLwIP_bsp/\libfreertos_bsp.a(altera_avalon_cfi_flash_intel.o)
 .debug_loc     0x000181cf       0x2c ../FreeLwIP_bsp/\libfreertos_bsp.a(alt_icache_flush.o)
 .debug_loc     0x000181fb       0x2c c:/altera/13.1/nios2eds/bin/gnu/h-i686-mingw32/bin/../lib/gcc/nios2-elf/4.7.3/../../../../../H-i686-mingw32/nios2-elf/lib\libc.a(lib_a-atexit.o)
 .debug_loc     0x00018227       0x3e c:/altera/13.1/nios2eds/bin/gnu/h-i686-mingw32/bin/../lib/gcc/nios2-elf/4.7.3/../../../../../H-i686-mingw32/nios2-elf/lib\libc.a(lib_a-exit.o)
 .debug_loc     0x00018265       0x58 c:/altera/13.1/nios2eds/bin/gnu/h-i686-mingw32/bin/../lib/gcc/nios2-elf/4.7.3/../../../../../H-i686-mingw32/nios2-elf/lib\libc.a(lib_a-malloc.o)
 .debug_loc     0x000182bd      0x103 c:/altera/13.1/nios2eds/bin/gnu/h-i686-mingw32/bin/../lib/gcc/nios2-elf/4.7.3/../../../../../H-i686-mingw32/nios2-elf/lib\libc.a(lib_a-memcmp.o)
 .debug_loc     0x000183c0      0x314 c:/altera/13.1/nios2eds/bin/gnu/h-i686-mingw32/bin/../lib/gcc/nios2-elf/4.7.3/../../../../../H-i686-mingw32/nios2-elf/lib\libc.a(lib_a-snprintf.o)
 .debug_loc     0x000186d4      0x15a c:/altera/13.1/nios2eds/bin/gnu/h-i686-mingw32/bin/../lib/gcc/nios2-elf/4.7.3/../../../../../H-i686-mingw32/nios2-elf/lib\libc.a(lib_a-strncpy.o)
 .debug_loc     0x0001882e      0x194 c:/altera/13.1/nios2eds/bin/gnu/h-i686-mingw32/bin/../lib/gcc/nios2-elf/4.7.3/../../../../../H-i686-mingw32/nios2-elf/lib\libc.a(lib_a-__atexit.o)
 .debug_loc     0x000189c2      0x1e1 c:/altera/13.1/nios2eds/bin/gnu/h-i686-mingw32/bin/../lib/gcc/nios2-elf/4.7.3/../../../../../H-i686-mingw32/nios2-elf/lib\libc.a(lib_a-__call_atexit.o)
 .debug_loc     0x00018ba3       0x2c ../FreeLwIP_bsp/\libfreertos_bsp.a(alt_exit.o)

.debug_macinfo
 *(.debug_macinfo)

.debug_weaknames
 *(.debug_weaknames)

.debug_funcnames
 *(.debug_funcnames)

.debug_typenames
 *(.debug_typenames)

.debug_varnames
 *(.debug_varnames)

.debug_alt_sim_info
                0x00000000       0x50
 *(.debug_alt_sim_info)
 .debug_alt_sim_info
                0x00000000       0x20 ../FreeLwIP_bsp//obj/HAL/src/crt0.o
 .debug_alt_sim_info
                0x00000020       0x30 ../FreeLwIP_bsp/\libfreertos_bsp.a(alt_busy_sleep.o)
                0x02000000                __alt_data_end = 0x2000000
                0x02000000                PROVIDE (__alt_stack_pointer, __alt_data_end)
                0x0006b5fc                PROVIDE (__alt_stack_limit, __alt_stack_base)
                0x0006b5fc                PROVIDE (__alt_heap_start, end)
                0x02000000                PROVIDE (__alt_heap_limit, 0x2000000)
OUTPUT(FreeLwIP.elf elf32-littlenios2)

.debug_ranges   0x00000000      0xb18
 .debug_ranges  0x00000000       0x20 ../FreeLwIP_bsp//obj/HAL/src/crt0.o
 .debug_ranges  0x00000020       0x18 obj/default/echo_server.o
 .debug_ranges  0x00000038      0x150 c:/altera/13.1/nios2eds/bin/gnu/h-i686-mingw32/bin/../lib/gcc/nios2-elf/4.7.3/../../../../../H-i686-mingw32/nios2-elf/lib\libc.a(lib_a-vfprintf.o)
 .debug_ranges  0x00000188       0x20 c:/altera/13.1/nios2eds/bin/gnu/h-i686-mingw32/bin/../lib/gcc/nios2-elf/4.7.3/../../../../../H-i686-mingw32/nios2-elf/lib\libc.a(lib_a-fflush.o)
 .debug_ranges  0x000001a8       0x18 c:/altera/13.1/nios2eds/bin/gnu/h-i686-mingw32/bin/../lib/gcc/nios2-elf/4.7.3/../../../../../H-i686-mingw32/nios2-elf/lib\libc.a(lib_a-fvwrite.o)
 .debug_ranges  0x000001c0       0x80 c:/altera/13.1/nios2eds/bin/gnu/h-i686-mingw32/bin/../lib/gcc/nios2-elf/4.7.3/../../../../../H-i686-mingw32/nios2-elf/lib\libc.a(lib_a-fwalk.o)
 .debug_ranges  0x00000240       0x70 c:/altera/13.1/nios2eds/bin/gnu/h-i686-mingw32/bin/../lib/gcc/nios2-elf/4.7.3/../../../../../H-i686-mingw32/nios2-elf/lib\libc.a(lib_a-mallocr.o)
 .debug_ranges  0x000002b0       0x40 c:/altera/13.1/nios2eds/bin/gnu/h-i686-mingw32/bin/../lib/gcc/nios2-elf/4.7.3/../../../../../H-i686-mingw32/nios2-elf/lib\libc.a(lib_a-mprec.o)
 .debug_ranges  0x000002f0      0x158 c:/altera/13.1/nios2eds/bin/gnu/h-i686-mingw32/bin/../lib/gcc/nios2-elf/4.7.3/../../../../../H-i686-mingw32/nios2-elf/lib\libc.a(lib_a-reallocr.o)
 .debug_ranges  0x00000448       0x48 c:/altera/13.1/nios2eds/bin/gnu/h-i686-mingw32/bin/../lib/gcc/nios2-elf/4.7.3/../../../../../H-i686-mingw32/nios2-elf/lib\libc.a(lib_a-callocr.o)
 .debug_ranges  0x00000490      0x1a0 c:/altera/13.1/nios2eds/bin/gnu/h-i686-mingw32/bin/../lib/gcc/nios2-elf/4.7.3\libgcc.a(_udivdi3.o)
 .debug_ranges  0x00000630      0x160 c:/altera/13.1/nios2eds/bin/gnu/h-i686-mingw32/bin/../lib/gcc/nios2-elf/4.7.3\libgcc.a(_umoddi3.o)
 .debug_ranges  0x00000790       0x38 c:/altera/13.1/nios2eds/bin/gnu/h-i686-mingw32/bin/../lib/gcc/nios2-elf/4.7.3\libgcc.a(_addsub_df.o)
 .debug_ranges  0x000007c8       0x78 c:/altera/13.1/nios2eds/bin/gnu/h-i686-mingw32/bin/../lib/gcc/nios2-elf/4.7.3\libgcc.a(_mul_df.o)
 .debug_ranges  0x00000840       0x50 c:/altera/13.1/nios2eds/bin/gnu/h-i686-mingw32/bin/../lib/gcc/nios2-elf/4.7.3\libgcc.a(_div_df.o)
 .debug_ranges  0x00000890       0x30 c:/altera/13.1/nios2eds/bin/gnu/h-i686-mingw32/bin/../lib/gcc/nios2-elf/4.7.3\libgcc.a(_si_to_df.o)
 .debug_ranges  0x000008c0       0x48 c:/altera/13.1/nios2eds/bin/gnu/h-i686-mingw32/bin/../lib/gcc/nios2-elf/4.7.3\libgcc.a(_usi_to_df.o)
 .debug_ranges  0x00000908       0x30 c:/altera/13.1/nios2eds/bin/gnu/h-i686-mingw32/bin/../lib/gcc/nios2-elf/4.7.3\libgcc.a(_muldi3.o)
 .debug_ranges  0x00000938       0x28 c:/altera/13.1/nios2eds/bin/gnu/h-i686-mingw32/bin/../lib/gcc/nios2-elf/4.7.3\libgcc.a(_clzsi2.o)
 .debug_ranges  0x00000960       0x18 c:/altera/13.1/nios2eds/bin/gnu/h-i686-mingw32/bin/../lib/gcc/nios2-elf/4.7.3\libgcc.a(_pack_df.o)
 .debug_ranges  0x00000978       0x18 ../FreeLwIP_bsp/\libfreertos_bsp.a(api_msg.o)
 .debug_ranges  0x00000990       0x30 ../FreeLwIP_bsp/\libfreertos_bsp.a(lwip_main.o)
 .debug_ranges  0x000009c0       0x18 ../FreeLwIP_bsp/\libfreertos_bsp.a(netif.o)
 .debug_ranges  0x000009d8       0x18 ../FreeLwIP_bsp/\libfreertos_bsp.a(tcp.o)
 .debug_ranges  0x000009f0       0x30 ../FreeLwIP_bsp/\libfreertos_bsp.a(tcp_out.o)
 .debug_ranges  0x00000a20       0x30 ../FreeLwIP_bsp/\libfreertos_bsp.a(altera_avalon_jtag_uart_init.o)
 .debug_ranges  0x00000a50       0x18 ../FreeLwIP_bsp/\libfreertos_bsp.a(altera_avalon_jtag_uart_read.o)
 .debug_ranges  0x00000a68       0x30 ../FreeLwIP_bsp/\libfreertos_bsp.a(altera_avalon_lcd_16207.o)
 .debug_ranges  0x00000a98       0x38 ../FreeLwIP_bsp/\libfreertos_bsp.a(port_asm.o)
 .debug_ranges  0x00000ad0       0x18 ../FreeLwIP_bsp/\libfreertos_bsp.a(alt_instruction_exception_entry.o)
 .debug_ranges  0x00000ae8       0x18 ../FreeLwIP_bsp/\libfreertos_bsp.a(icmp.o)
 .debug_ranges  0x00000b00       0x18 c:/altera/13.1/nios2eds/bin/gnu/h-i686-mingw32/bin/../lib/gcc/nios2-elf/4.7.3/../../../../../H-i686-mingw32/nios2-elf/lib\libc.a(lib_a-__call_atexit.o)
