
hello_world.elf:     file format elf32-littlenios2
hello_world.elf
architecture: nios2, flags 0x00000112:
EXEC_P, HAS_SYMS, D_PAGED
start address 0x00000020

Program Header:
    LOAD off    0x00001020 vaddr 0x00000020 paddr 0x00000020 align 2**12
         filesz 0x0000a76c memsz 0x0000a76c flags r-x
    LOAD off    0x0000b78c vaddr 0x0000a78c paddr 0x0000c728 align 2**12
         filesz 0x00001f9c memsz 0x00001f9c flags rw-
    LOAD off    0x0000e6c4 vaddr 0x0000e6c4 paddr 0x0000e6c4 align 2**12
         filesz 0x00000000 memsz 0x000001e0 flags rw-
    LOAD off    0x0000e000 vaddr 0x05000000 paddr 0x05000000 align 2**12
         filesz 0x00000020 memsz 0x00000020 flags r-x

Sections:
Idx Name          Size      VMA       LMA       File off  Algn
  0 .entry        00000020  05000000  05000000  0000e000  2**5
                  CONTENTS, ALLOC, LOAD, READONLY, CODE
  1 .text         0000a420  00000020  00000020  00001020  2**2
                  CONTENTS, ALLOC, LOAD, READONLY, CODE
  2 .rodata       0000034c  0000a440  0000a440  0000b440  2**2
                  CONTENTS, ALLOC, LOAD, READONLY, DATA
  3 .rwdata       00001f9c  0000a78c  0000c728  0000b78c  2**2
                  CONTENTS, ALLOC, LOAD, DATA, SMALL_DATA
  4 .bss          000001e0  0000e6c4  0000e6c4  0000e6c4  2**2
                  ALLOC, SMALL_DATA
  5 .comment      00000023  00000000  00000000  0000e020  2**0
                  CONTENTS, READONLY
  6 .debug_aranges 00000ae8  00000000  00000000  0000e048  2**3
                  CONTENTS, READONLY, DEBUGGING
  7 .debug_info   0001ca23  00000000  00000000  0000eb30  2**0
                  CONTENTS, READONLY, DEBUGGING
  8 .debug_abbrev 00006c9a  00000000  00000000  0002b553  2**0
                  CONTENTS, READONLY, DEBUGGING
  9 .debug_line   00008495  00000000  00000000  000321ed  2**0
                  CONTENTS, READONLY, DEBUGGING
 10 .debug_frame  000018ec  00000000  00000000  0003a684  2**2
                  CONTENTS, READONLY, DEBUGGING
 11 .debug_str    000032bf  00000000  00000000  0003bf70  2**0
                  CONTENTS, READONLY, DEBUGGING
 12 .debug_loc    00006164  00000000  00000000  0003f22f  2**0
                  CONTENTS, READONLY, DEBUGGING
 13 .debug_alt_sim_info 00000050  00000000  00000000  00045394  2**2
                  CONTENTS, READONLY, DEBUGGING
 14 .debug_ranges 00000330  00000000  00000000  000453e8  2**3
                  CONTENTS, READONLY, DEBUGGING
 15 .thread_model 00000003  00000000  00000000  00048c3b  2**0
                  CONTENTS, READONLY
 16 .cpu          00000003  00000000  00000000  00048c3e  2**0
                  CONTENTS, READONLY
 17 .qsys         00000001  00000000  00000000  00048c41  2**0
                  CONTENTS, READONLY
 18 .simulation_enabled 00000001  00000000  00000000  00048c42  2**0
                  CONTENTS, READONLY
 19 .sysid_hash   00000004  00000000  00000000  00048c43  2**0
                  CONTENTS, READONLY
 20 .sysid_base   00000004  00000000  00000000  00048c47  2**0
                  CONTENTS, READONLY
 21 .sysid_time   00000004  00000000  00000000  00048c4b  2**0
                  CONTENTS, READONLY
 22 .stderr_dev   00000009  00000000  00000000  00048c4f  2**0
                  CONTENTS, READONLY
 23 .stdin_dev    00000009  00000000  00000000  00048c58  2**0
                  CONTENTS, READONLY
 24 .stdout_dev   00000009  00000000  00000000  00048c61  2**0
                  CONTENTS, READONLY
 25 .sopc_system_name 0000000c  00000000  00000000  00048c6a  2**0
                  CONTENTS, READONLY
 26 .quartus_project_dir 0000002e  00000000  00000000  00048c76  2**0
                  CONTENTS, READONLY
 27 .jdi          00005066  00000000  00000000  00048ca4  2**0
                  CONTENTS, READONLY
 28 .sopcinfo     001a200d  00000000  00000000  0004dd0a  2**0
                  CONTENTS, READONLY
SYMBOL TABLE:
05000000 l    d  .entry	00000000 .entry
00000020 l    d  .text	00000000 .text
0000a440 l    d  .rodata	00000000 .rodata
0000a78c l    d  .rwdata	00000000 .rwdata
0000e6c4 l    d  .bss	00000000 .bss
00000000 l    d  .comment	00000000 .comment
00000000 l    d  .debug_aranges	00000000 .debug_aranges
00000000 l    d  .debug_info	00000000 .debug_info
00000000 l    d  .debug_abbrev	00000000 .debug_abbrev
00000000 l    d  .debug_line	00000000 .debug_line
00000000 l    d  .debug_frame	00000000 .debug_frame
00000000 l    d  .debug_str	00000000 .debug_str
00000000 l    d  .debug_loc	00000000 .debug_loc
00000000 l    d  .debug_alt_sim_info	00000000 .debug_alt_sim_info
00000000 l    d  .debug_ranges	00000000 .debug_ranges
00000000 l    df *ABS*	00000000 ../hello_world_bsp//obj/HAL/src/crt0.o
00000098 l       .text	00000000 alt_after_alt_main
00000000 l    df *ABS*	00000000 hello_world.c
00000000 l    df *ABS*	00000000 puts.c
00000000 l    df *ABS*	00000000 strlen.c
00000000 l    df *ABS*	00000000 fvwrite.c
00000000 l    df *ABS*	00000000 impure.c
0000a78c l     O .rwdata	00000400 impure_data
00000000 l    df *ABS*	00000000 mallocr.c
00000000 l    df *ABS*	00000000 memchr.c
00000000 l    df *ABS*	00000000 memcpy.c
00000000 l    df *ABS*	00000000 memmove.c
00000000 l    df *ABS*	00000000 mallocr.c
00000000 l    df *ABS*	00000000 sbrkr.c
00000000 l    df *ABS*	00000000 wsetup.c
00000000 l    df *ABS*	00000000 fflush.c
00000000 l    df *ABS*	00000000 findfp.c
00001b60 l     F .text	00000008 __fp_lock
00001b68 l     F .text	00000008 __fp_unlock
00000000 l    df *ABS*	00000000 mallocr.c
00000000 l    df *ABS*	00000000 fwalk.c
00000000 l    df *ABS*	00000000 int_errno.c
00000000 l    df *ABS*	00000000 makebuf.c
00000000 l    df *ABS*	00000000 memset.c
00000000 l    df *ABS*	00000000 stdio.c
00000000 l    df *ABS*	00000000 writer.c
00000000 l    df *ABS*	00000000 closer.c
00000000 l    df *ABS*	00000000 fclose.c
00000000 l    df *ABS*	00000000 fstatr.c
00000000 l    df *ABS*	00000000 isattyr.c
00000000 l    df *ABS*	00000000 lseekr.c
00000000 l    df *ABS*	00000000 readr.c
00000000 l    df *ABS*	00000000 alt_close.c
00002b2c l     F .text	00000050 alt_get_errno
00000000 l    df *ABS*	00000000 alt_dev.c
00002c44 l     F .text	0000002c alt_dev_null_write
00000000 l    df *ABS*	00000000 alt_errno.c
00000000 l    df *ABS*	00000000 alt_fstat.c
00002c70 l     F .text	00000050 alt_get_errno
00000000 l    df *ABS*	00000000 alt_isatty.c
00002d6c l     F .text	00000050 alt_get_errno
00000000 l    df *ABS*	00000000 alt_load.c
00002e5c l     F .text	0000006c alt_load_section
00000000 l    df *ABS*	00000000 alt_lseek.c
00002f48 l     F .text	00000050 alt_get_errno
00000000 l    df *ABS*	00000000 alt_main.c
00000000 l    df *ABS*	00000000 alt_malloc_lock.c
00000000 l    df *ABS*	00000000 alt_read.c
00003120 l     F .text	00000050 alt_get_errno
00000000 l    df *ABS*	00000000 alt_release_fd.c
00000000 l    df *ABS*	00000000 alt_sbrk.c
0000c704 l     O .rwdata	00000004 heap_end
00000000 l    df *ABS*	00000000 alt_write.c
000033c8 l     F .text	00000050 alt_get_errno
00000000 l    df *ABS*	00000000 alt_sys_init.c
00003504 l     F .text	00000038 alt_dev_reg
0000b13c l     O .rwdata	0000009c vic_0
0000b1d8 l     O .rwdata	000000d8 cfi_flash
0000b2b0 l     O .rwdata	00001060 jtag_uart
0000c310 l     O .rwdata	00000120 lcd
0000c430 l     O .rwdata	00000030 sgdma_rx
0000c460 l     O .rwdata	00000030 sgdma_tx
0000c490 l     O .rwdata	000000c4 rs232
0000c554 l     O .rwdata	000000c4 uart_0
0000c618 l     O .rwdata	000000c4 uart_1
00000000 l    df *ABS*	00000000 altera_avalon_cfi_flash.c
0000368c l     F .text	00000038 alt_flash_device_register
00000000 l    df *ABS*	00000000 altera_avalon_cfi_flash_table.c
000044c4 l     F .text	00000080 alt_read_16bit_query_entry
00000000 l    df *ABS*	00000000 altera_avalon_jtag_uart_fd.c
00000000 l    df *ABS*	00000000 altera_avalon_jtag_uart_init.c
00005574 l     F .text	00000204 altera_avalon_jtag_uart_irq
00005778 l     F .text	000000a4 altera_avalon_jtag_uart_timeout
00000000 l    df *ABS*	00000000 altera_avalon_jtag_uart_ioctl.c
00000000 l    df *ABS*	00000000 altera_avalon_jtag_uart_read.c
00000000 l    df *ABS*	00000000 altera_avalon_jtag_uart_write.c
00000000 l    df *ABS*	00000000 altera_avalon_lcd_16207.c
0000c708 l     O .rwdata	00000004 colstart
00005e0c l     F .text	000000b4 lcd_write_command
00005ec0 l     F .text	000000d0 lcd_write_data
00005f90 l     F .text	000000cc lcd_clear_screen
0000605c l     F .text	000001ec lcd_repaint_screen
00006248 l     F .text	000000cc lcd_scroll_up
00006314 l     F .text	000002bc lcd_handle_escape
00006ab4 l     F .text	000000ac alt_lcd_16207_timeout
00000000 l    df *ABS*	00000000 altera_avalon_lcd_16207_fd.c
00000000 l    df *ABS*	00000000 altera_avalon_sgdma.c
00006cf8 l     F .text	00000050 alt_get_errno
0000789c l     F .text	000000e4 alt_avalon_sgdma_irq
00000000 l    df *ABS*	00000000 altera_avalon_timer_sc.c
00007a24 l     F .text	000000a0 alt_avalon_timer_sc_irq
00000000 l    df *ABS*	00000000 altera_avalon_uart_fd.c
00000000 l    df *ABS*	00000000 altera_avalon_uart_init.c
00007d04 l     F .text	00000098 altera_avalon_uart_irq
00007d9c l     F .text	000000d8 altera_avalon_uart_rxirq
00007e74 l     F .text	0000013c altera_avalon_uart_txirq
00000000 l    df *ABS*	00000000 altera_avalon_uart_read.c
00008004 l     F .text	00000050 alt_get_errno
00000000 l    df *ABS*	00000000 altera_avalon_uart_write.c
000082b0 l     F .text	00000050 alt_get_errno
00000000 l    df *ABS*	00000000 altera_vic_irq_init.c
0000a4e8 l     O .rodata	00000020 VEC_SIZE_ARRAY.1688
00000000 l    df *ABS*	00000000 altera_vic_isr_register.c
00000000 l    df *ABS*	00000000 alt_alarm_start.c
00000000 l    df *ABS*	00000000 alt_dcache_flush.c
00000000 l    df *ABS*	00000000 alt_dcache_flush_all.c
00000000 l    df *ABS*	00000000 alt_dev_llist_insert.c
00008b58 l     F .text	00000050 alt_get_errno
00000000 l    df *ABS*	00000000 alt_do_ctors.c
00000000 l    df *ABS*	00000000 alt_do_dtors.c
00000000 l    df *ABS*	00000000 alt_find_dev.c
00000000 l    df *ABS*	00000000 alt_flash_dev.c
00000000 l    df *ABS*	00000000 alt_icache_flush_all.c
00000000 l    df *ABS*	00000000 alt_io_redirect.c
00008e78 l     F .text	000000c0 alt_open_fd
00000000 l    df *ABS*	00000000 alt_open.c
00008fb0 l     F .text	00000050 alt_get_errno
00009000 l     F .text	000000cc alt_file_locked
00000000 l    df *ABS*	00000000 alt_remap_uncached.c
00000000 l    df *ABS*	00000000 alt_tick.c
00000000 l    df *ABS*	00000000 alt_usleep.c
00000000 l    df *ABS*	00000000 altera_avalon_cfi_flash_amd.c
000097ec l     F .text	000000cc alt_write_word_amd
000096d0 l     F .text	0000011c alt_wait_for_command_to_complete_amd
00000000 l    df *ABS*	00000000 altera_avalon_cfi_flash_intel.c
00009aa0 l     F .text	0000017c alt_unlock_block_intel
00009c1c l     F .text	000000d4 alt_write_word_intel
00000000 l    df *ABS*	00000000 alt_busy_sleep.c
00000000 l    df *ABS*	00000000 alt_find_file.c
00000000 l    df *ABS*	00000000 alt_get_fd.c
00000000 l    df *ABS*	00000000 alt_icache_flush.c
00000000 l    df *ABS*	00000000 atexit.c
00000000 l    df *ABS*	00000000 ctype_.c
0000a609 l     O .rodata	00000180 _ctype_b
00000000 l    df *ABS*	00000000 exit.c
00000000 l    df *ABS*	00000000 memcmp.c
00000000 l    df *ABS*	00000000 __atexit.c
00000000 l    df *ABS*	00000000 __call_atexit.c
00000000 l    df *ABS*	00000000 alt_exit.c
00000000 l    df *ABS*	00000000 
000029f0 g     F .text	00000064 _isatty_r
00003068 g     F .text	00000078 alt_main
000000d0 g     F .text	00000084 _puts_r
00003f9c g     F .text	00000040 alt_read_query_entry_32bit
00002a54 g     F .text	0000006c _lseek_r
00003754 g     F .text	000002ac alt_flash_cfi_write
0000c728 g       *ABS*	00000000 __flash_rwdata_start
0000e8a4 g       *ABS*	00000000 __alt_heap_start
00006e6c g     F .text	00000110 alt_avalon_sgdma_do_sync_transfer
05000000 g       *ABS*	00000000 __alt_mem_sram
00002704 g     F .text	0000005c __sseek
00001bf0 g     F .text	0000010c __sinit
00001b7c g     F .text	00000064 __sfmoreglue
00003100 g     F .text	00000020 __malloc_unlock
00007558 g     F .text	00000344 alt_avalon_sgdma_construct_descriptor_burst
0000104c g     F .text	00000128 memmove
00001be0 g     F .text	00000010 _cleanup
00000000  w      *UND*	00000000 __errno
00004128 g     F .text	0000004c alt_write_flash_command_32bit_device_16bit_mode
05000000 g     F .entry	0000001c __reset
000070c8 g     F .text	00000074 alt_avalon_sgdma_construct_stream_to_mem_desc_burst
00000020 g       *ABS*	00000000 __flash_exceptions_start
00002988 g     F .text	00000068 _fstat_r
00003c48 g     F .text	000002d8 alt_flash_program_block
0000e6d0 g     O .bss	00000004 errno
0000e6d8 g     O .bss	00000004 alt_argv
000146dc g       *ABS*	00000000 _gp
00009428 g     F .text	00000030 usleep
0000afbc g     O .rwdata	00000180 alt_fd_list
00008500 g       .text	00000000 VIC_0_VECTOR_TABLE
00008d00 g     F .text	00000090 alt_find_dev
00000f54 g     F .text	000000f8 memcpy
00001b70 g     F .text	0000000c _cleanup_r
00008f38 g     F .text	00000078 alt_io_redirect
0000a440 g       *ABS*	00000000 __DTOR_END__
00000154 g     F .text	00000014 puts
000071b8 g     F .text	00000088 alt_avalon_sgdma_construct_mem_to_stream_desc_burst
00005978 g     F .text	00000244 altera_avalon_jtag_uart_read
00000000  w      *UND*	00000000 malloc
00002dbc g     F .text	000000a0 isatty
00009fe0 g     F .text	0000008c alt_icache_flush
0000e6cc g     O .bss	00000004 __malloc_top_pad
000001f4 g     F .text	000004e4 __sfvwrite_r
000072e4 g     F .text	00000058 alt_avalon_sgdma_stop
00001770 g     F .text	00000064 _sbrk_r
000098b8 g     F .text	00000080 alt_program_intel
00002ac0 g     F .text	0000006c _read_r
00008b18 g     F .text	00000024 alt_dcache_flush
0000c6fc g     O .rwdata	00000004 alt_max_fd
00003f20 g     F .text	0000003c alt_read_query_entry_8bit
00002838 g     F .text	0000013c _fclose_r
00009938 g     F .text	00000168 alt_erase_block_intel
00001b30 g     F .text	00000030 fflush
0000e6c8 g     O .bss	00000004 __malloc_max_sbrked_mem
00002f98 g     F .text	000000d0 lseek
0000c6dc g     O .rwdata	00000004 _global_impure_ptr
00001174 g     F .text	000005fc _realloc_r
0000e8a4 g       *ABS*	00000000 __bss_end
00006d48 g     F .text	00000124 alt_avalon_sgdma_do_async_transfer
00009324 g     F .text	00000104 alt_tick
00007c5c g     F .text	000000a8 altera_avalon_uart_init
0000c724 g     O .rwdata	00000004 __ctype_ptr
00001e08 g     F .text	00000018 __fp_lock_all
00009260 g     F .text	000000c4 alt_alarm_stop
02001000 g       *ABS*	00000000 __alt_mem_descriptor_memory
0000af94 g     O .rwdata	00000028 alt_dev_null
00004428 g     F .text	0000009c alt_set_flash_algorithm_func
0000733c g     F .text	00000064 alt_avalon_sgdma_check_descriptor_status
00008b3c g     F .text	0000001c alt_dcache_flush_all
00008700 g       .text	00000000 alt_shadow_non_preemptive_interrupt
00003fdc g     F .text	00000044 alt_write_flash_command_8bit_device_8bit_mode
0000c728 g       *ABS*	00000000 __ram_rwdata_end
0000c6f4 g     O .rwdata	00000008 alt_dev_list
00003418 g     F .text	000000ec write
00007478 g     F .text	00000080 alt_avalon_sgdma_enable_desc_poll
0000a78c g       *ABS*	00000000 __ram_rodata_end
00002cc0 g     F .text	000000ac fstat
0000527c g     F .text	000000d4 alt_check_primary_table
00003a8c g     F .text	00000064 alt_flash_cfi_read
000041c0 g     F .text	00000038 alt_write_native_8bit
0000713c g     F .text	0000007c alt_avalon_sgdma_construct_mem_to_stream_desc
00007240 g     F .text	00000050 alt_avalon_sgdma_register_callback
0000e8a4 g       *ABS*	00000000 end
00004020 g     F .text	00000074 alt_write_flash_command_16bit_device_8bit_mode
000065d0 g     F .text	000004e4 altera_avalon_lcd_16207_write
00008300 g     F .text	00000200 altera_avalon_uart_write
00004544 g     F .text	000005c8 alt_read_cfi_table
000054b4 g     F .text	000000c0 altera_avalon_jtag_uart_init
0000a440 g       *ABS*	00000000 __CTOR_LIST__
02000000 g       *ABS*	00000000 __alt_stack_pointer
000074f8 g     F .text	00000060 alt_avalon_sgdma_disable_desc_poll
00007ac4 g     F .text	00000088 alt_avalon_timer_sc_init
00007bac g     F .text	00000060 altera_avalon_uart_write_fd
00007c0c g     F .text	00000050 altera_avalon_uart_close_fd
00005bbc g     F .text	00000250 altera_avalon_jtag_uart_write
00006f7c g     F .text	00000070 alt_avalon_sgdma_construct_mem_to_mem_desc
000036c4 g     F .text	00000090 alt_flash_cfi_init
00001df8 g     F .text	00000004 __sfp_lock_acquire
00000e5c g     F .text	000000f8 memchr
0000706c g     F .text	0000005c alt_avalon_sgdma_construct_stream_to_mem_desc
00001f74 g     F .text	000002d0 _free_r
0000a264 g     F .text	000001a0 __call_exitprocs
0000c6e4 g     O .rwdata	00000004 __malloc_sbrk_base
00000020 g     F .text	0000007c _start
0000e6e4 g     O .bss	00000004 _alt_tick_rate
000073a0 g     F .text	00000050 alt_avalon_sgdma_open
0000e6e8 g     O .bss	00000004 _alt_nticks
00003170 g     F .text	000000f0 read
0000357c g     F .text	00000110 alt_sys_init
0000a134 g     F .text	00000130 __register_exitproc
00003f5c g     F .text	00000040 alt_read_query_entry_16bit
00009220 g     F .text	00000040 alt_remap_uncached
0000581c g     F .text	00000068 altera_avalon_jtag_uart_close
0000a78c g       *ABS*	00000000 __ram_rwdata_start
0000a440 g       *ABS*	00000000 __ram_rodata_start
0000e6ec g     O .bss	00000028 __malloc_current_mallinfo
00004264 g     F .text	000001c4 alt_set_flash_width_func
00005350 g     F .text	00000060 altera_avalon_jtag_uart_read_fd
00009f2c g     F .text	000000b4 alt_get_fd
00009cf0 g     F .text	00000128 alt_busy_sleep
000027d4 g     F .text	00000064 _close_r
000094c0 g     F .text	00000210 alt_erase_block_amd
0000a0b8 g     F .text	0000007c memcmp
00005410 g     F .text	00000050 altera_avalon_jtag_uart_close_fd
0000e8a4 g       *ABS*	00000000 __alt_stack_base
00005460 g     F .text	00000054 altera_avalon_jtag_uart_ioctl_fd
000017d4 g     F .text	00000174 __swsetup_r
00004b0c g     F .text	00000770 alt_read_cfi_width
00001cfc g     F .text	000000fc __sfp
0000ab8c g     O .rwdata	00000408 __malloc_av_
00001e04 g     F .text	00000004 __sinit_lock_release
00002628 g     F .text	00000054 __sread
00009e18 g     F .text	00000114 alt_find_file
00008ba8 g     F .text	000000a0 alt_dev_llist_insert
000030e0 g     F .text	00000020 __malloc_lock
000032c0 g     F .text	00000108 sbrk
00007290 g     F .text	00000054 alt_avalon_sgdma_start
00001948 g     F .text	000001e8 _fflush_r
0000c714 g     O .rwdata	00000008 alt_flash_dev_list
000040e0 g     F .text	00000048 alt_write_flash_command_16bit_device_16bit_mode
0000e6c4 g       *ABS*	00000000 __bss_start
0000254c g     F .text	000000dc memset
0000009c g     F .text	00000034 main
0000e6dc g     O .bss	00000004 alt_envp
0000e6c4 g     O .bss	00000004 __malloc_max_total_mem
000053b0 g     F .text	00000060 altera_avalon_jtag_uart_write_fd
00006b60 g     F .text	00000138 altera_avalon_lcd_16207_init
0000c70c g     O .rwdata	00000008 alt_sgdma_list
00002760 g     F .text	00000008 __sclose
02000000 g       *ABS*	00000000 __alt_heap_limit
00002974 g     F .text	00000014 fclose
0000e714 g     O .bss	00000190 _atexit0
000006d8 g     F .text	00000784 _malloc_r
0000c700 g     O .rwdata	00000004 alt_errno
00004174 g     F .text	0000004c alt_write_flash_command_32bit_device_32bit_mode
00002244 g     F .text	000000a8 _fwalk
00003af0 g     F .text	00000158 alt_write_value_to_flash
000041f8 g     F .text	00000038 alt_write_native_16bit
04000000 g       *ABS*	00000000 __alt_mem_cfi_flash
00001e38 g     F .text	0000013c _malloc_trim_r
0000a440 g       *ABS*	00000000 __CTOR_END__
0000e6e0 g     O .bss	00000004 alt_vic_dev_list
0000a440 g       *ABS*	00000000 __flash_rodata_start
0000a440 g       *ABS*	00000000 __DTOR_LIST__
0000353c g     F .text	00000040 alt_irq_init
00003260 g     F .text	00000060 alt_release_fd
0000a06c g     F .text	00000014 atexit
00002768 g     F .text	0000006c _write_r
0000c6e0 g     O .rwdata	00000004 _impure_ptr
0000e6d4 g     O .bss	00000004 alt_argc
00008ca4 g     F .text	0000005c _do_dtors
00008718 g     F .text	0000013c alt_vic_irq_init
00001e20 g     F .text	00000018 __fp_unlock_all
00006c98 g     F .text	00000060 altera_avalon_lcd_16207_write_fd
0000c6ec g     O .rwdata	00000008 alt_fs_list
00004094 g     F .text	0000004c alt_write_flash_command_32bit_device_8bit_mode
00000020 g       *ABS*	00000000 __ram_exceptions_start
0a000000 g       *ABS*	00000000 __alt_mem_onchip_memory2
00008854 g     F .text	00000158 alt_ic_isr_register
0000c728 g       *ABS*	00000000 _edata
00007b4c g     F .text	00000060 altera_avalon_uart_read_fd
0000e8a4 g       *ABS*	00000000 _end
00008d90 g     F .text	00000068 alt_flash_open_dev
00000020 g       *ABS*	00000000 __ram_exceptions_end
00005884 g     F .text	000000f4 altera_avalon_jtag_uart_ioctl
000073f0 g     F .text	00000088 alt_avalon_sgdma_construct_descriptor
0000267c g     F .text	00000088 __swrite
0000c6e8 g     O .rwdata	00000004 __malloc_trim_threshold
0000a080 g     F .text	00000038 exit
000022ec g     F .text	000000b8 _fwalk_reent
00008df8 g     F .text	00000050 alt_flash_close_dev
02000000 g       *ABS*	00000000 __alt_data_end
00001dfc g     F .text	00000004 __sfp_lock_release
00000000 g       *ABS*	00000000 __alt_mem_sdram
0000a508 g     O .rodata	00000101 _ctype_
00007fb0 g     F .text	00000054 altera_avalon_uart_close
0000a404 g     F .text	0000003c _exit
000089ac g     F .text	0000016c alt_alarm_start
000023a4 g     F .text	000001a8 __smakebuf_r
00004230 g     F .text	00000034 alt_write_native_32bit
00000168 g     F .text	0000008c strlen
000090cc g     F .text	00000154 open
00003a00 g     F .text	0000008c alt_flash_cfi_get_info
00008e48 g     F .text	00000030 alt_icache_flush_all
00008054 g     F .text	0000025c altera_avalon_uart_read
00006fec g     F .text	00000080 alt_avalon_sgdma_construct_mem_to_mem_desc_burst
0000c71c g     O .rwdata	00000008 alt_alarm_list
00008c48 g     F .text	0000005c _do_ctors
00002b7c g     F .text	000000c8 close
00009458 g     F .text	00000068 alt_program_amd
00002ec8 g     F .text	00000080 alt_load
00007980 g     F .text	000000a4 alt_avalon_sgdma_init
00000000  w      *UND*	00000000 free
00001e00 g     F .text	00000004 __sinit_lock_acquire



Disassembly of section .entry:

05000000 <__reset>:
#if NIOS2_ICACHE_SIZE > 0 && defined(ALT_ALLOW_CODE_AT_RESET) && !defined(ALT_SIM_OPTIMIZE)
    /* Assume the instruction cache size is always a power of two. */
#if NIOS2_ICACHE_SIZE > 0x8000
    movhi r2, %hi(NIOS2_ICACHE_SIZE)
#else
    movui r2, NIOS2_ICACHE_SIZE
 5000000:	00840014 	movui	r2,4096
#endif

0:
    initi r2
 5000004:	1001483a 	initi	r2
    addi r2, r2, -NIOS2_ICACHE_LINE_SIZE
 5000008:	10bff804 	addi	r2,r2,-32
    bgt r2, zero, 0b
 500000c:	00bffd16 	blt	zero,r2,5000004 <__reset+0x4>
 * Jump to the _start entry point in the .text section if reset code
 * is allowed or if optimizing for RTL simulation.
 */
#if defined(ALT_ALLOW_CODE_AT_RESET) || defined(ALT_SIM_OPTIMIZE)
    /* Jump to the _start entry point in the .text section. */
    movhi r1, %hi(_start)
 5000010:	00400034 	movhi	at,0
    ori r1, r1, %lo(_start)
 5000014:	08400814 	ori	at,at,32
    jmp r1
 5000018:	0800683a 	jmp	at
 500001c:	00000000 	call	0 <__alt_mem_sdram>

Disassembly of section .text:

00000020 <_start>:
     * writing zero to SSTATUS register and executing an ERET instruction
     * to set STATUS.CRS to 0.
     */
    
    /* Get the current register set number (STATUS.CRS). */
    rdctl r2, status
      20:	0005303a 	rdctl	r2,status
    andi r2, r2, NIOS2_STATUS_CRS_MSK
      24:	10bf000c 	andi	r2,r2,64512
    
    /* Skip switching register set if STATUS.CRS is 0.  */
    beq r2, zero, 0f
      28:	10000426 	beq	r2,zero,3c <_start+0x1c>

    /* Set SSTATUS to 0 to get to set SSTATUS.PRS to 0. */
    .set nobreak
    movui sstatus, 0
      2c:	07800014 	movui	ba,0
    .set break

    /* Switch to register set 0 and jump to label. */
    movhi ea, %hi(0f)
      30:	07400034 	movhi	ea,0
    ori ea, ea, %lo(0f)
      34:	ef400f14 	ori	ea,ea,60
    eret
      38:	ef80083a 	eret

    /*
     * Now that the caches are initialized, set up the stack pointer and global pointer.
     * The values provided by the linker are assumed to be correctly aligned.
     */
    movhi sp, %hi(__alt_stack_pointer)
      3c:	06c08034 	movhi	sp,512
    ori sp, sp, %lo(__alt_stack_pointer)
      40:	dec00014 	ori	sp,sp,0
    movhi gp, %hi(_gp)
      44:	06800074 	movhi	gp,1
    ori gp, gp, %lo(_gp)
      48:	d691b714 	ori	gp,gp,18140
    /* 
     * Setup registers in shadow register sets
     * from 1 to NIOS2_NUM_OF_SHADOW_REG_SETS.
     */

    movui r2, 0     /* Contains value written into STATUS */
      4c:	00800014 	movui	r2,0
    movui r3, NIOS2_NUM_OF_SHADOW_REG_SETS  /* counter */
      50:	00c00054 	movui	r3,1
    movhi r4, 1     /* Constant to increment STATUS.PRS */
      54:	01000074 	movhi	r4,1
    
.Linitialize_shadow_registers:
    /* Increment STATUS.PRS */
    add r2, r2, r4
      58:	1105883a 	add	r2,r2,r4
    wrctl status, r2
      5c:	1001703a 	wrctl	status,r2

    /* Clear r0 in the shadow register set (not done by hardware) */
    wrprs r0, r0
      60:	0000a03a 	wrprs	zero,zero

    /* Write the GP in previous register set */
    wrprs gp, gp
      64:	d034a03a 	wrprs	gp,gp
    wrprs r30, r0    /* ba */
    wrprs r31, r0    /* ra */
#endif /* NIOS2_ECC_PRESENT */

    /* Decrement shadow register set counter */
    addi r3, r3, -1
      68:	18ffffc4 	addi	r3,r3,-1

    /* Done if index is 0. */
    bne r3, zero, .Linitialize_shadow_registers
      6c:	183ffa1e 	bne	r3,zero,58 <_start+0x38>
 */
#ifndef ALT_SIM_OPTIMIZE
    /* Log that the BSS is about to be cleared. */
    ALT_LOG_PUTS(alt_log_msg_bss)

    movhi r2, %hi(__bss_start)
      70:	00800034 	movhi	r2,0
    ori r2, r2, %lo(__bss_start)
      74:	10b9b114 	ori	r2,r2,59076

    movhi r3, %hi(__bss_end)
      78:	00c00034 	movhi	r3,0
    ori r3, r3, %lo(__bss_end)
      7c:	18fa2914 	ori	r3,r3,59556

    beq r2, r3, 1f
      80:	10c00326 	beq	r2,r3,90 <_start+0x70>

0:
    stw zero, (r2)
      84:	10000015 	stw	zero,0(r2)
    addi r2, r2, 4
      88:	10800104 	addi	r2,r2,4
    bltu r2, r3, 0b
      8c:	10fffd36 	bltu	r2,r3,84 <_start+0x64>
     * section aren't defined until alt_load() has been called).
     */
    mov   et, zero
#endif

    call alt_load
      90:	0002ec80 	call	2ec8 <alt_load>

    /* Log that alt_main is about to be called. */
    ALT_LOG_PUTS(alt_log_msg_alt_main)

    /* Call the C entry point. It should never return. */
    call alt_main
      94:	00030680 	call	3068 <alt_main>

00000098 <alt_after_alt_main>:

    /* Wait in infinite loop in case alt_main does return. */
alt_after_alt_main:
    br alt_after_alt_main
      98:	003fff06 	br	98 <alt_after_alt_main>

0000009c <main>:
 */

#include <stdio.h>

int main()
{
      9c:	defffe04 	addi	sp,sp,-8
      a0:	dfc00115 	stw	ra,4(sp)
      a4:	df000015 	stw	fp,0(sp)
      a8:	d839883a 	mov	fp,sp
  printf("Hello from Nios II!\n");
      ac:	01000074 	movhi	r4,1
      b0:	21291004 	addi	r4,r4,-23488
      b4:	00001540 	call	154 <puts>

  return 0;
      b8:	0005883a 	mov	r2,zero
}
      bc:	e037883a 	mov	sp,fp
      c0:	dfc00117 	ldw	ra,4(sp)
      c4:	df000017 	ldw	fp,0(sp)
      c8:	dec00204 	addi	sp,sp,8
      cc:	f800283a 	ret

000000d0 <_puts_r>:
      d0:	defff604 	addi	sp,sp,-40
      d4:	dc400815 	stw	r17,32(sp)
      d8:	2023883a 	mov	r17,r4
      dc:	2809883a 	mov	r4,r5
      e0:	dc000715 	stw	r16,28(sp)
      e4:	dfc00915 	stw	ra,36(sp)
      e8:	2821883a 	mov	r16,r5
      ec:	00001680 	call	168 <strlen>
      f0:	10c00044 	addi	r3,r2,1
      f4:	d8800115 	stw	r2,4(sp)
      f8:	89400217 	ldw	r5,8(r17)
      fc:	00800074 	movhi	r2,1
     100:	10a91504 	addi	r2,r2,-23468
     104:	d8800215 	stw	r2,8(sp)
     108:	00800044 	movi	r2,1
     10c:	d8800315 	stw	r2,12(sp)
     110:	8809883a 	mov	r4,r17
     114:	00800084 	movi	r2,2
     118:	d9800404 	addi	r6,sp,16
     11c:	dc000015 	stw	r16,0(sp)
     120:	d8c00615 	stw	r3,24(sp)
     124:	dec00415 	stw	sp,16(sp)
     128:	d8800515 	stw	r2,20(sp)
     12c:	00001f40 	call	1f4 <__sfvwrite_r>
     130:	1000061e 	bne	r2,zero,14c <_puts_r+0x7c>
     134:	00800284 	movi	r2,10
     138:	dfc00917 	ldw	ra,36(sp)
     13c:	dc400817 	ldw	r17,32(sp)
     140:	dc000717 	ldw	r16,28(sp)
     144:	dec00a04 	addi	sp,sp,40
     148:	f800283a 	ret
     14c:	00bfffc4 	movi	r2,-1
     150:	003ff906 	br	138 <_puts_r+0x68>

00000154 <puts>:
     154:	00800074 	movhi	r2,1
     158:	10b1b804 	addi	r2,r2,-14624
     15c:	200b883a 	mov	r5,r4
     160:	11000017 	ldw	r4,0(r2)
     164:	00000d01 	jmpi	d0 <_puts_r>

00000168 <strlen>:
     168:	208000cc 	andi	r2,r4,3
     16c:	10001f1e 	bne	r2,zero,1ec <strlen+0x84>
     170:	20800017 	ldw	r2,0(r4)
     174:	01ffbff4 	movhi	r7,65279
     178:	39ffbfc4 	addi	r7,r7,-257
     17c:	01a02074 	movhi	r6,32897
     180:	31a02004 	addi	r6,r6,-32640
     184:	11c7883a 	add	r3,r2,r7
     188:	0084303a 	nor	r2,zero,r2
     18c:	1886703a 	and	r3,r3,r2
     190:	1986703a 	and	r3,r3,r6
     194:	2005883a 	mov	r2,r4
     198:	1800101e 	bne	r3,zero,1dc <strlen+0x74>
     19c:	10800104 	addi	r2,r2,4
     1a0:	10c00017 	ldw	r3,0(r2)
     1a4:	19cb883a 	add	r5,r3,r7
     1a8:	00c6303a 	nor	r3,zero,r3
     1ac:	28c6703a 	and	r3,r5,r3
     1b0:	1986703a 	and	r3,r3,r6
     1b4:	1800091e 	bne	r3,zero,1dc <strlen+0x74>
     1b8:	10800104 	addi	r2,r2,4
     1bc:	10c00017 	ldw	r3,0(r2)
     1c0:	19cb883a 	add	r5,r3,r7
     1c4:	00c6303a 	nor	r3,zero,r3
     1c8:	28c6703a 	and	r3,r5,r3
     1cc:	1986703a 	and	r3,r3,r6
     1d0:	183ff226 	beq	r3,zero,19c <strlen+0x34>
     1d4:	00000106 	br	1dc <strlen+0x74>
     1d8:	10800044 	addi	r2,r2,1
     1dc:	10c00007 	ldb	r3,0(r2)
     1e0:	183ffd1e 	bne	r3,zero,1d8 <strlen+0x70>
     1e4:	1105c83a 	sub	r2,r2,r4
     1e8:	f800283a 	ret
     1ec:	2005883a 	mov	r2,r4
     1f0:	003ffa06 	br	1dc <strlen+0x74>

000001f4 <__sfvwrite_r>:
     1f4:	30800217 	ldw	r2,8(r6)
     1f8:	defff504 	addi	sp,sp,-44
     1fc:	dd400615 	stw	r21,24(sp)
     200:	dd000515 	stw	r20,20(sp)
     204:	dc000115 	stw	r16,4(sp)
     208:	dfc00a15 	stw	ra,40(sp)
     20c:	df000915 	stw	fp,36(sp)
     210:	ddc00815 	stw	r23,32(sp)
     214:	dd800715 	stw	r22,28(sp)
     218:	dcc00415 	stw	r19,16(sp)
     21c:	dc800315 	stw	r18,12(sp)
     220:	dc400215 	stw	r17,8(sp)
     224:	3029883a 	mov	r20,r6
     228:	202b883a 	mov	r21,r4
     22c:	2821883a 	mov	r16,r5
     230:	10002126 	beq	r2,zero,2b8 <__sfvwrite_r+0xc4>
     234:	2880030b 	ldhu	r2,12(r5)
     238:	10c0020c 	andi	r3,r2,8
     23c:	18ffffcc 	andi	r3,r3,65535
     240:	18e0001c 	xori	r3,r3,32768
     244:	18e00004 	addi	r3,r3,-32768
     248:	18002826 	beq	r3,zero,2ec <__sfvwrite_r+0xf8>
     24c:	28c00417 	ldw	r3,16(r5)
     250:	18002626 	beq	r3,zero,2ec <__sfvwrite_r+0xf8>
     254:	10c0008c 	andi	r3,r2,2
     258:	18ffffcc 	andi	r3,r3,65535
     25c:	18e0001c 	xori	r3,r3,32768
     260:	18e00004 	addi	r3,r3,-32768
     264:	a4400017 	ldw	r17,0(r20)
     268:	18002b26 	beq	r3,zero,318 <__sfvwrite_r+0x124>
     26c:	0027883a 	mov	r19,zero
     270:	0025883a 	mov	r18,zero
     274:	05810004 	movi	r22,1024
     278:	980d883a 	mov	r6,r19
     27c:	a809883a 	mov	r4,r21
     280:	90004f26 	beq	r18,zero,3c0 <__sfvwrite_r+0x1cc>
     284:	900f883a 	mov	r7,r18
     288:	81400717 	ldw	r5,28(r16)
     28c:	b480012e 	bgeu	r22,r18,294 <__sfvwrite_r+0xa0>
     290:	01c10004 	movi	r7,1024
     294:	80800917 	ldw	r2,36(r16)
     298:	103ee83a 	callr	r2
     29c:	0080540e 	bge	zero,r2,3f0 <__sfvwrite_r+0x1fc>
     2a0:	a0c00217 	ldw	r3,8(r20)
     2a4:	98a7883a 	add	r19,r19,r2
     2a8:	90a5c83a 	sub	r18,r18,r2
     2ac:	1885c83a 	sub	r2,r3,r2
     2b0:	a0800215 	stw	r2,8(r20)
     2b4:	103ff01e 	bne	r2,zero,278 <__sfvwrite_r+0x84>
     2b8:	0005883a 	mov	r2,zero
     2bc:	dfc00a17 	ldw	ra,40(sp)
     2c0:	df000917 	ldw	fp,36(sp)
     2c4:	ddc00817 	ldw	r23,32(sp)
     2c8:	dd800717 	ldw	r22,28(sp)
     2cc:	dd400617 	ldw	r21,24(sp)
     2d0:	dd000517 	ldw	r20,20(sp)
     2d4:	dcc00417 	ldw	r19,16(sp)
     2d8:	dc800317 	ldw	r18,12(sp)
     2dc:	dc400217 	ldw	r17,8(sp)
     2e0:	dc000117 	ldw	r16,4(sp)
     2e4:	dec00b04 	addi	sp,sp,44
     2e8:	f800283a 	ret
     2ec:	a809883a 	mov	r4,r21
     2f0:	800b883a 	mov	r5,r16
     2f4:	00017d40 	call	17d4 <__swsetup_r>
     2f8:	1000f01e 	bne	r2,zero,6bc <__sfvwrite_r+0x4c8>
     2fc:	8080030b 	ldhu	r2,12(r16)
     300:	a4400017 	ldw	r17,0(r20)
     304:	10c0008c 	andi	r3,r2,2
     308:	18ffffcc 	andi	r3,r3,65535
     30c:	18e0001c 	xori	r3,r3,32768
     310:	18e00004 	addi	r3,r3,-32768
     314:	183fd51e 	bne	r3,zero,26c <__sfvwrite_r+0x78>
     318:	10c0004c 	andi	r3,r2,1
     31c:	002d883a 	mov	r22,zero
     320:	1800381e 	bne	r3,zero,404 <__sfvwrite_r+0x210>
     324:	0025883a 	mov	r18,zero
     328:	90002126 	beq	r18,zero,3b0 <__sfvwrite_r+0x1bc>
     32c:	10c0800c 	andi	r3,r2,512
     330:	18ffffcc 	andi	r3,r3,65535
     334:	18e0001c 	xori	r3,r3,32768
     338:	18e00004 	addi	r3,r3,-32768
     33c:	84c00217 	ldw	r19,8(r16)
     340:	18006b26 	beq	r3,zero,4f0 <__sfvwrite_r+0x2fc>
     344:	980f883a 	mov	r7,r19
     348:	94c08636 	bltu	r18,r19,564 <__sfvwrite_r+0x370>
     34c:	10c1200c 	andi	r3,r2,1152
     350:	18009f1e 	bne	r3,zero,5d0 <__sfvwrite_r+0x3dc>
     354:	81000017 	ldw	r4,0(r16)
     358:	982f883a 	mov	r23,r19
     35c:	9039883a 	mov	fp,r18
     360:	9027883a 	mov	r19,r18
     364:	380d883a 	mov	r6,r7
     368:	b00b883a 	mov	r5,r22
     36c:	d9c00015 	stw	r7,0(sp)
     370:	000104c0 	call	104c <memmove>
     374:	d9c00017 	ldw	r7,0(sp)
     378:	81000217 	ldw	r4,8(r16)
     37c:	80800017 	ldw	r2,0(r16)
     380:	25efc83a 	sub	r23,r4,r23
     384:	11cf883a 	add	r7,r2,r7
     388:	85c00215 	stw	r23,8(r16)
     38c:	81c00015 	stw	r7,0(r16)
     390:	a0800217 	ldw	r2,8(r20)
     394:	b72d883a 	add	r22,r22,fp
     398:	9725c83a 	sub	r18,r18,fp
     39c:	14e7c83a 	sub	r19,r2,r19
     3a0:	a4c00215 	stw	r19,8(r20)
     3a4:	983fc426 	beq	r19,zero,2b8 <__sfvwrite_r+0xc4>
     3a8:	8080030b 	ldhu	r2,12(r16)
     3ac:	903fdf1e 	bne	r18,zero,32c <__sfvwrite_r+0x138>
     3b0:	8d800017 	ldw	r22,0(r17)
     3b4:	8c800117 	ldw	r18,4(r17)
     3b8:	8c400204 	addi	r17,r17,8
     3bc:	003fda06 	br	328 <__sfvwrite_r+0x134>
     3c0:	8cc00017 	ldw	r19,0(r17)
     3c4:	8c800117 	ldw	r18,4(r17)
     3c8:	8c400204 	addi	r17,r17,8
     3cc:	003faa06 	br	278 <__sfvwrite_r+0x84>
     3d0:	00011740 	call	1174 <_realloc_r>
     3d4:	102f883a 	mov	r23,r2
     3d8:	10009f1e 	bne	r2,zero,658 <__sfvwrite_r+0x464>
     3dc:	81400417 	ldw	r5,16(r16)
     3e0:	a809883a 	mov	r4,r21
     3e4:	0001f740 	call	1f74 <_free_r>
     3e8:	00800304 	movi	r2,12
     3ec:	a8800015 	stw	r2,0(r21)
     3f0:	80c0030b 	ldhu	r3,12(r16)
     3f4:	00bfffc4 	movi	r2,-1
     3f8:	18c01014 	ori	r3,r3,64
     3fc:	80c0030d 	sth	r3,12(r16)
     400:	003fae06 	br	2bc <__sfvwrite_r+0xc8>
     404:	0007883a 	mov	r3,zero
     408:	0039883a 	mov	fp,zero
     40c:	0025883a 	mov	r18,zero
     410:	90001e26 	beq	r18,zero,48c <__sfvwrite_r+0x298>
     414:	18006526 	beq	r3,zero,5ac <__sfvwrite_r+0x3b8>
     418:	b02f883a 	mov	r23,r22
     41c:	9580012e 	bgeu	r18,r22,424 <__sfvwrite_r+0x230>
     420:	902f883a 	mov	r23,r18
     424:	81000017 	ldw	r4,0(r16)
     428:	80800417 	ldw	r2,16(r16)
     42c:	84c00217 	ldw	r19,8(r16)
     430:	81c00517 	ldw	r7,20(r16)
     434:	1100022e 	bgeu	r2,r4,440 <__sfvwrite_r+0x24c>
     438:	99e7883a 	add	r19,r19,r7
     43c:	9dc01816 	blt	r19,r23,4a0 <__sfvwrite_r+0x2ac>
     440:	b9c03b16 	blt	r23,r7,530 <__sfvwrite_r+0x33c>
     444:	80800917 	ldw	r2,36(r16)
     448:	81400717 	ldw	r5,28(r16)
     44c:	a809883a 	mov	r4,r21
     450:	d8c00015 	stw	r3,0(sp)
     454:	e00d883a 	mov	r6,fp
     458:	103ee83a 	callr	r2
     45c:	1027883a 	mov	r19,r2
     460:	d8c00017 	ldw	r3,0(sp)
     464:	00bfe20e 	bge	zero,r2,3f0 <__sfvwrite_r+0x1fc>
     468:	b4edc83a 	sub	r22,r22,r19
     46c:	b0001a26 	beq	r22,zero,4d8 <__sfvwrite_r+0x2e4>
     470:	a0800217 	ldw	r2,8(r20)
     474:	e4f9883a 	add	fp,fp,r19
     478:	94e5c83a 	sub	r18,r18,r19
     47c:	14e7c83a 	sub	r19,r2,r19
     480:	a4c00215 	stw	r19,8(r20)
     484:	983f8c26 	beq	r19,zero,2b8 <__sfvwrite_r+0xc4>
     488:	903fe21e 	bne	r18,zero,414 <__sfvwrite_r+0x220>
     48c:	8f000017 	ldw	fp,0(r17)
     490:	8c800117 	ldw	r18,4(r17)
     494:	0007883a 	mov	r3,zero
     498:	8c400204 	addi	r17,r17,8
     49c:	003fdc06 	br	410 <__sfvwrite_r+0x21c>
     4a0:	e00b883a 	mov	r5,fp
     4a4:	980d883a 	mov	r6,r19
     4a8:	d8c00015 	stw	r3,0(sp)
     4ac:	000104c0 	call	104c <memmove>
     4b0:	80800017 	ldw	r2,0(r16)
     4b4:	a809883a 	mov	r4,r21
     4b8:	800b883a 	mov	r5,r16
     4bc:	14c5883a 	add	r2,r2,r19
     4c0:	80800015 	stw	r2,0(r16)
     4c4:	00019480 	call	1948 <_fflush_r>
     4c8:	d8c00017 	ldw	r3,0(sp)
     4cc:	103fc81e 	bne	r2,zero,3f0 <__sfvwrite_r+0x1fc>
     4d0:	b4edc83a 	sub	r22,r22,r19
     4d4:	b03fe61e 	bne	r22,zero,470 <__sfvwrite_r+0x27c>
     4d8:	a809883a 	mov	r4,r21
     4dc:	800b883a 	mov	r5,r16
     4e0:	00019480 	call	1948 <_fflush_r>
     4e4:	103fc21e 	bne	r2,zero,3f0 <__sfvwrite_r+0x1fc>
     4e8:	0007883a 	mov	r3,zero
     4ec:	003fe006 	br	470 <__sfvwrite_r+0x27c>
     4f0:	81000017 	ldw	r4,0(r16)
     4f4:	80800417 	ldw	r2,16(r16)
     4f8:	1100022e 	bgeu	r2,r4,504 <__sfvwrite_r+0x310>
     4fc:	9839883a 	mov	fp,r19
     500:	9c806036 	bltu	r19,r18,684 <__sfvwrite_r+0x490>
     504:	81c00517 	ldw	r7,20(r16)
     508:	91c01c36 	bltu	r18,r7,57c <__sfvwrite_r+0x388>
     50c:	80800917 	ldw	r2,36(r16)
     510:	81400717 	ldw	r5,28(r16)
     514:	a809883a 	mov	r4,r21
     518:	b00d883a 	mov	r6,r22
     51c:	103ee83a 	callr	r2
     520:	1027883a 	mov	r19,r2
     524:	00bfb20e 	bge	zero,r2,3f0 <__sfvwrite_r+0x1fc>
     528:	1039883a 	mov	fp,r2
     52c:	003f9806 	br	390 <__sfvwrite_r+0x19c>
     530:	b80d883a 	mov	r6,r23
     534:	e00b883a 	mov	r5,fp
     538:	d8c00015 	stw	r3,0(sp)
     53c:	000104c0 	call	104c <memmove>
     540:	80800217 	ldw	r2,8(r16)
     544:	81000017 	ldw	r4,0(r16)
     548:	b827883a 	mov	r19,r23
     54c:	15c5c83a 	sub	r2,r2,r23
     550:	25ef883a 	add	r23,r4,r23
     554:	80800215 	stw	r2,8(r16)
     558:	85c00015 	stw	r23,0(r16)
     55c:	d8c00017 	ldw	r3,0(sp)
     560:	003fc106 	br	468 <__sfvwrite_r+0x274>
     564:	81000017 	ldw	r4,0(r16)
     568:	902f883a 	mov	r23,r18
     56c:	9039883a 	mov	fp,r18
     570:	9027883a 	mov	r19,r18
     574:	900f883a 	mov	r7,r18
     578:	003f7a06 	br	364 <__sfvwrite_r+0x170>
     57c:	b00b883a 	mov	r5,r22
     580:	900d883a 	mov	r6,r18
     584:	000104c0 	call	104c <memmove>
     588:	80c00217 	ldw	r3,8(r16)
     58c:	80800017 	ldw	r2,0(r16)
     590:	9027883a 	mov	r19,r18
     594:	1c87c83a 	sub	r3,r3,r18
     598:	1485883a 	add	r2,r2,r18
     59c:	80c00215 	stw	r3,8(r16)
     5a0:	80800015 	stw	r2,0(r16)
     5a4:	9039883a 	mov	fp,r18
     5a8:	003f7906 	br	390 <__sfvwrite_r+0x19c>
     5ac:	e009883a 	mov	r4,fp
     5b0:	01400284 	movi	r5,10
     5b4:	900d883a 	mov	r6,r18
     5b8:	0000e5c0 	call	e5c <memchr>
     5bc:	10003c26 	beq	r2,zero,6b0 <__sfvwrite_r+0x4bc>
     5c0:	15800044 	addi	r22,r2,1
     5c4:	b72dc83a 	sub	r22,r22,fp
     5c8:	00c00044 	movi	r3,1
     5cc:	003f9206 	br	418 <__sfvwrite_r+0x224>
     5d0:	81000517 	ldw	r4,20(r16)
     5d4:	81400417 	ldw	r5,16(r16)
     5d8:	80c00017 	ldw	r3,0(r16)
     5dc:	210d883a 	add	r6,r4,r4
     5e0:	3109883a 	add	r4,r6,r4
     5e4:	2026d7fa 	srli	r19,r4,31
     5e8:	1979c83a 	sub	fp,r3,r5
     5ec:	e1800044 	addi	r6,fp,1
     5f0:	9909883a 	add	r4,r19,r4
     5f4:	2027d07a 	srai	r19,r4,1
     5f8:	3489883a 	add	r4,r6,r18
     5fc:	980d883a 	mov	r6,r19
     600:	9900022e 	bgeu	r19,r4,60c <__sfvwrite_r+0x418>
     604:	2027883a 	mov	r19,r4
     608:	200d883a 	mov	r6,r4
     60c:	1081000c 	andi	r2,r2,1024
     610:	10bfffcc 	andi	r2,r2,65535
     614:	10a0001c 	xori	r2,r2,32768
     618:	10a00004 	addi	r2,r2,-32768
     61c:	a809883a 	mov	r4,r21
     620:	103f6b26 	beq	r2,zero,3d0 <__sfvwrite_r+0x1dc>
     624:	300b883a 	mov	r5,r6
     628:	00006d80 	call	6d8 <_malloc_r>
     62c:	102f883a 	mov	r23,r2
     630:	103f6d26 	beq	r2,zero,3e8 <__sfvwrite_r+0x1f4>
     634:	81400417 	ldw	r5,16(r16)
     638:	1009883a 	mov	r4,r2
     63c:	e00d883a 	mov	r6,fp
     640:	0000f540 	call	f54 <memcpy>
     644:	8080030b 	ldhu	r2,12(r16)
     648:	00fedfc4 	movi	r3,-1153
     64c:	10c4703a 	and	r2,r2,r3
     650:	10802014 	ori	r2,r2,128
     654:	8080030d 	sth	r2,12(r16)
     658:	bf09883a 	add	r4,r23,fp
     65c:	9f07c83a 	sub	r3,r19,fp
     660:	85c00415 	stw	r23,16(r16)
     664:	84c00515 	stw	r19,20(r16)
     668:	81000015 	stw	r4,0(r16)
     66c:	902f883a 	mov	r23,r18
     670:	80c00215 	stw	r3,8(r16)
     674:	9039883a 	mov	fp,r18
     678:	9027883a 	mov	r19,r18
     67c:	900f883a 	mov	r7,r18
     680:	003f3806 	br	364 <__sfvwrite_r+0x170>
     684:	b00b883a 	mov	r5,r22
     688:	980d883a 	mov	r6,r19
     68c:	000104c0 	call	104c <memmove>
     690:	80800017 	ldw	r2,0(r16)
     694:	a809883a 	mov	r4,r21
     698:	800b883a 	mov	r5,r16
     69c:	14c5883a 	add	r2,r2,r19
     6a0:	80800015 	stw	r2,0(r16)
     6a4:	00019480 	call	1948 <_fflush_r>
     6a8:	103f3926 	beq	r2,zero,390 <__sfvwrite_r+0x19c>
     6ac:	003f5006 	br	3f0 <__sfvwrite_r+0x1fc>
     6b0:	95800044 	addi	r22,r18,1
     6b4:	00c00044 	movi	r3,1
     6b8:	003f5706 	br	418 <__sfvwrite_r+0x224>
     6bc:	80c0030b 	ldhu	r3,12(r16)
     6c0:	00bfffc4 	movi	r2,-1
     6c4:	18c01014 	ori	r3,r3,64
     6c8:	80c0030d 	sth	r3,12(r16)
     6cc:	00c00244 	movi	r3,9
     6d0:	a8c00015 	stw	r3,0(r21)
     6d4:	003ef906 	br	2bc <__sfvwrite_r+0xc8>

000006d8 <_malloc_r>:
     6d8:	defff604 	addi	sp,sp,-40
     6dc:	dc800215 	stw	r18,8(sp)
     6e0:	dfc00915 	stw	ra,36(sp)
     6e4:	df000815 	stw	fp,32(sp)
     6e8:	ddc00715 	stw	r23,28(sp)
     6ec:	dd800615 	stw	r22,24(sp)
     6f0:	dd400515 	stw	r21,20(sp)
     6f4:	dd000415 	stw	r20,16(sp)
     6f8:	dcc00315 	stw	r19,12(sp)
     6fc:	dc400115 	stw	r17,4(sp)
     700:	dc000015 	stw	r16,0(sp)
     704:	288002c4 	addi	r2,r5,11
     708:	00c00584 	movi	r3,22
     70c:	2025883a 	mov	r18,r4
     710:	18802b2e 	bgeu	r3,r2,7c0 <_malloc_r+0xe8>
     714:	047ffe04 	movi	r17,-8
     718:	1462703a 	and	r17,r2,r17
     71c:	88002a16 	blt	r17,zero,7c8 <_malloc_r+0xf0>
     720:	89402936 	bltu	r17,r5,7c8 <_malloc_r+0xf0>
     724:	9009883a 	mov	r4,r18
     728:	00030e00 	call	30e0 <__malloc_lock>
     72c:	00807dc4 	movi	r2,503
     730:	14402936 	bltu	r2,r17,7d8 <_malloc_r+0x100>
     734:	8808d0fa 	srli	r4,r17,3
     738:	04c00074 	movhi	r19,1
     73c:	9ceae304 	addi	r19,r19,-21620
     740:	2105883a 	add	r2,r4,r4
     744:	1085883a 	add	r2,r2,r2
     748:	1085883a 	add	r2,r2,r2
     74c:	9885883a 	add	r2,r19,r2
     750:	14000317 	ldw	r16,12(r2)
     754:	80815526 	beq	r16,r2,cac <_malloc_r+0x5d4>
     758:	81000117 	ldw	r4,4(r16)
     75c:	00bfff04 	movi	r2,-4
     760:	80c00317 	ldw	r3,12(r16)
     764:	2084703a 	and	r2,r4,r2
     768:	8085883a 	add	r2,r16,r2
     76c:	11800117 	ldw	r6,4(r2)
     770:	81400217 	ldw	r5,8(r16)
     774:	9009883a 	mov	r4,r18
     778:	31800054 	ori	r6,r6,1
     77c:	11800115 	stw	r6,4(r2)
     780:	28c00315 	stw	r3,12(r5)
     784:	19400215 	stw	r5,8(r3)
     788:	00031000 	call	3100 <__malloc_unlock>
     78c:	80800204 	addi	r2,r16,8
     790:	dfc00917 	ldw	ra,36(sp)
     794:	df000817 	ldw	fp,32(sp)
     798:	ddc00717 	ldw	r23,28(sp)
     79c:	dd800617 	ldw	r22,24(sp)
     7a0:	dd400517 	ldw	r21,20(sp)
     7a4:	dd000417 	ldw	r20,16(sp)
     7a8:	dcc00317 	ldw	r19,12(sp)
     7ac:	dc800217 	ldw	r18,8(sp)
     7b0:	dc400117 	ldw	r17,4(sp)
     7b4:	dc000017 	ldw	r16,0(sp)
     7b8:	dec00a04 	addi	sp,sp,40
     7bc:	f800283a 	ret
     7c0:	04400404 	movi	r17,16
     7c4:	897fd72e 	bgeu	r17,r5,724 <_malloc_r+0x4c>
     7c8:	00800304 	movi	r2,12
     7cc:	90800015 	stw	r2,0(r18)
     7d0:	0005883a 	mov	r2,zero
     7d4:	003fee06 	br	790 <_malloc_r+0xb8>
     7d8:	8808d27a 	srli	r4,r17,9
     7dc:	20007126 	beq	r4,zero,9a4 <_malloc_r+0x2cc>
     7e0:	00800104 	movi	r2,4
     7e4:	1100eb36 	bltu	r2,r4,b94 <_malloc_r+0x4bc>
     7e8:	8808d1ba 	srli	r4,r17,6
     7ec:	21000e04 	addi	r4,r4,56
     7f0:	210b883a 	add	r5,r4,r4
     7f4:	294b883a 	add	r5,r5,r5
     7f8:	294b883a 	add	r5,r5,r5
     7fc:	04c00074 	movhi	r19,1
     800:	9ceae304 	addi	r19,r19,-21620
     804:	994b883a 	add	r5,r19,r5
     808:	2c000317 	ldw	r16,12(r5)
     80c:	2c000e26 	beq	r5,r16,848 <_malloc_r+0x170>
     810:	80c00117 	ldw	r3,4(r16)
     814:	01ffff04 	movi	r7,-4
     818:	018003c4 	movi	r6,15
     81c:	19c6703a 	and	r3,r3,r7
     820:	1c45c83a 	sub	r2,r3,r17
     824:	30800716 	blt	r6,r2,844 <_malloc_r+0x16c>
     828:	1000610e 	bge	r2,zero,9b0 <_malloc_r+0x2d8>
     82c:	84000317 	ldw	r16,12(r16)
     830:	2c000526 	beq	r5,r16,848 <_malloc_r+0x170>
     834:	80c00117 	ldw	r3,4(r16)
     838:	19c6703a 	and	r3,r3,r7
     83c:	1c45c83a 	sub	r2,r3,r17
     840:	30bff90e 	bge	r6,r2,828 <_malloc_r+0x150>
     844:	213fffc4 	addi	r4,r4,-1
     848:	21000044 	addi	r4,r4,1
     84c:	9c000417 	ldw	r16,16(r19)
     850:	00c00074 	movhi	r3,1
     854:	18eae304 	addi	r3,r3,-21620
     858:	1a400204 	addi	r9,r3,8
     85c:	8240ff26 	beq	r16,r9,c5c <_malloc_r+0x584>
     860:	81400117 	ldw	r5,4(r16)
     864:	00bfff04 	movi	r2,-4
     868:	018003c4 	movi	r6,15
     86c:	2884703a 	and	r2,r5,r2
     870:	144bc83a 	sub	r5,r2,r17
     874:	3140ea16 	blt	r6,r5,c20 <_malloc_r+0x548>
     878:	1a400515 	stw	r9,20(r3)
     87c:	1a400415 	stw	r9,16(r3)
     880:	2800570e 	bge	r5,zero,9e0 <_malloc_r+0x308>
     884:	01407fc4 	movi	r5,511
     888:	2880ca36 	bltu	r5,r2,bb4 <_malloc_r+0x4dc>
     88c:	1004d0fa 	srli	r2,r2,3
     890:	02000044 	movi	r8,1
     894:	19c00117 	ldw	r7,4(r3)
     898:	108b883a 	add	r5,r2,r2
     89c:	294b883a 	add	r5,r5,r5
     8a0:	1005d0ba 	srai	r2,r2,2
     8a4:	294b883a 	add	r5,r5,r5
     8a8:	28cb883a 	add	r5,r5,r3
     8ac:	29800217 	ldw	r6,8(r5)
     8b0:	4084983a 	sll	r2,r8,r2
     8b4:	81400315 	stw	r5,12(r16)
     8b8:	81800215 	stw	r6,8(r16)
     8bc:	11c4b03a 	or	r2,r2,r7
     8c0:	18800115 	stw	r2,4(r3)
     8c4:	2c000215 	stw	r16,8(r5)
     8c8:	34000315 	stw	r16,12(r6)
     8cc:	200bd0ba 	srai	r5,r4,2
     8d0:	00c00044 	movi	r3,1
     8d4:	194a983a 	sll	r5,r3,r5
     8d8:	11404936 	bltu	r2,r5,a00 <_malloc_r+0x328>
     8dc:	1146703a 	and	r3,r2,r5
     8e0:	18000a1e 	bne	r3,zero,90c <_malloc_r+0x234>
     8e4:	00ffff04 	movi	r3,-4
     8e8:	294b883a 	add	r5,r5,r5
     8ec:	20c8703a 	and	r4,r4,r3
     8f0:	1146703a 	and	r3,r2,r5
     8f4:	21000104 	addi	r4,r4,4
     8f8:	1800041e 	bne	r3,zero,90c <_malloc_r+0x234>
     8fc:	294b883a 	add	r5,r5,r5
     900:	1146703a 	and	r3,r2,r5
     904:	21000104 	addi	r4,r4,4
     908:	183ffc26 	beq	r3,zero,8fc <_malloc_r+0x224>
     90c:	023fff04 	movi	r8,-4
     910:	01c003c4 	movi	r7,15
     914:	2105883a 	add	r2,r4,r4
     918:	1085883a 	add	r2,r2,r2
     91c:	1085883a 	add	r2,r2,r2
     920:	9899883a 	add	r12,r19,r2
     924:	62800304 	addi	r10,r12,12
     928:	2017883a 	mov	r11,r4
     92c:	54000017 	ldw	r16,0(r10)
     930:	51bffd04 	addi	r6,r10,-12
     934:	8180041e 	bne	r16,r6,948 <_malloc_r+0x270>
     938:	0000ca06 	br	c64 <_malloc_r+0x58c>
     93c:	10001c0e 	bge	r2,zero,9b0 <_malloc_r+0x2d8>
     940:	84000317 	ldw	r16,12(r16)
     944:	8180c726 	beq	r16,r6,c64 <_malloc_r+0x58c>
     948:	80c00117 	ldw	r3,4(r16)
     94c:	1a06703a 	and	r3,r3,r8
     950:	1c45c83a 	sub	r2,r3,r17
     954:	38bff90e 	bge	r7,r2,93c <_malloc_r+0x264>
     958:	81000317 	ldw	r4,12(r16)
     95c:	81400217 	ldw	r5,8(r16)
     960:	8447883a 	add	r3,r16,r17
     964:	8c400054 	ori	r17,r17,1
     968:	29000315 	stw	r4,12(r5)
     96c:	21400215 	stw	r5,8(r4)
     970:	84400115 	stw	r17,4(r16)
     974:	1889883a 	add	r4,r3,r2
     978:	11400054 	ori	r5,r2,1
     97c:	98c00515 	stw	r3,20(r19)
     980:	98c00415 	stw	r3,16(r19)
     984:	20800015 	stw	r2,0(r4)
     988:	1a400315 	stw	r9,12(r3)
     98c:	1a400215 	stw	r9,8(r3)
     990:	19400115 	stw	r5,4(r3)
     994:	9009883a 	mov	r4,r18
     998:	00031000 	call	3100 <__malloc_unlock>
     99c:	80800204 	addi	r2,r16,8
     9a0:	003f7b06 	br	790 <_malloc_r+0xb8>
     9a4:	8808d0fa 	srli	r4,r17,3
     9a8:	210b883a 	add	r5,r4,r4
     9ac:	003f9106 	br	7f4 <_malloc_r+0x11c>
     9b0:	80c7883a 	add	r3,r16,r3
     9b4:	19400117 	ldw	r5,4(r3)
     9b8:	80800317 	ldw	r2,12(r16)
     9bc:	81000217 	ldw	r4,8(r16)
     9c0:	29400054 	ori	r5,r5,1
     9c4:	19400115 	stw	r5,4(r3)
     9c8:	20800315 	stw	r2,12(r4)
     9cc:	11000215 	stw	r4,8(r2)
     9d0:	9009883a 	mov	r4,r18
     9d4:	00031000 	call	3100 <__malloc_unlock>
     9d8:	80800204 	addi	r2,r16,8
     9dc:	003f6c06 	br	790 <_malloc_r+0xb8>
     9e0:	8085883a 	add	r2,r16,r2
     9e4:	10c00117 	ldw	r3,4(r2)
     9e8:	9009883a 	mov	r4,r18
     9ec:	18c00054 	ori	r3,r3,1
     9f0:	10c00115 	stw	r3,4(r2)
     9f4:	00031000 	call	3100 <__malloc_unlock>
     9f8:	80800204 	addi	r2,r16,8
     9fc:	003f6406 	br	790 <_malloc_r+0xb8>
     a00:	9c000217 	ldw	r16,8(r19)
     a04:	00bfff04 	movi	r2,-4
     a08:	85400117 	ldw	r21,4(r16)
     a0c:	a8aa703a 	and	r21,r21,r2
     a10:	ac400336 	bltu	r21,r17,a20 <_malloc_r+0x348>
     a14:	ac45c83a 	sub	r2,r21,r17
     a18:	00c003c4 	movi	r3,15
     a1c:	18805316 	blt	r3,r2,b6c <_malloc_r+0x494>
     a20:	d5e7fc17 	ldw	r23,-24592(gp)
     a24:	d0e00217 	ldw	r3,-32760(gp)
     a28:	00bfffc4 	movi	r2,-1
     a2c:	8579883a 	add	fp,r16,r21
     a30:	8def883a 	add	r23,r17,r23
     a34:	1880d226 	beq	r3,r2,d80 <_malloc_r+0x6a8>
     a38:	bdc403c4 	addi	r23,r23,4111
     a3c:	00bc0004 	movi	r2,-4096
     a40:	b8ae703a 	and	r23,r23,r2
     a44:	9009883a 	mov	r4,r18
     a48:	b80b883a 	mov	r5,r23
     a4c:	00017700 	call	1770 <_sbrk_r>
     a50:	1029883a 	mov	r20,r2
     a54:	00bfffc4 	movi	r2,-1
     a58:	a080d126 	beq	r20,r2,da0 <_malloc_r+0x6c8>
     a5c:	a7009f36 	bltu	r20,fp,cdc <_malloc_r+0x604>
     a60:	05800074 	movhi	r22,1
     a64:	b5b9bb04 	addi	r22,r22,-6420
     a68:	b0800017 	ldw	r2,0(r22)
     a6c:	b885883a 	add	r2,r23,r2
     a70:	b0800015 	stw	r2,0(r22)
     a74:	e500cf26 	beq	fp,r20,db4 <_malloc_r+0x6dc>
     a78:	d1200217 	ldw	r4,-32760(gp)
     a7c:	00ffffc4 	movi	r3,-1
     a80:	20c0e026 	beq	r4,r3,e04 <_malloc_r+0x72c>
     a84:	a739c83a 	sub	fp,r20,fp
     a88:	1705883a 	add	r2,r2,fp
     a8c:	b0800015 	stw	r2,0(r22)
     a90:	a08001cc 	andi	r2,r20,7
     a94:	1000a526 	beq	r2,zero,d2c <_malloc_r+0x654>
     a98:	a0a9c83a 	sub	r20,r20,r2
     a9c:	00c40204 	movi	r3,4104
     aa0:	a5000204 	addi	r20,r20,8
     aa4:	1885c83a 	sub	r2,r3,r2
     aa8:	a5c7883a 	add	r3,r20,r23
     aac:	18c3ffcc 	andi	r3,r3,4095
     ab0:	10efc83a 	sub	r23,r2,r3
     ab4:	9009883a 	mov	r4,r18
     ab8:	b80b883a 	mov	r5,r23
     abc:	00017700 	call	1770 <_sbrk_r>
     ac0:	00ffffc4 	movi	r3,-1
     ac4:	10c0cc26 	beq	r2,r3,df8 <_malloc_r+0x720>
     ac8:	1505c83a 	sub	r2,r2,r20
     acc:	b887883a 	add	r3,r23,r2
     ad0:	18c00054 	ori	r3,r3,1
     ad4:	b0800017 	ldw	r2,0(r22)
     ad8:	9d000215 	stw	r20,8(r19)
     adc:	a0c00115 	stw	r3,4(r20)
     ae0:	b885883a 	add	r2,r23,r2
     ae4:	b0800015 	stw	r2,0(r22)
     ae8:	84c00e26 	beq	r16,r19,b24 <_malloc_r+0x44c>
     aec:	00c003c4 	movi	r3,15
     af0:	1d40902e 	bgeu	r3,r21,d34 <_malloc_r+0x65c>
     af4:	ad7ffd04 	addi	r21,r21,-12
     af8:	013ffe04 	movi	r4,-8
     afc:	a908703a 	and	r4,r21,r4
     b00:	810b883a 	add	r5,r16,r4
     b04:	01800144 	movi	r6,5
     b08:	29800115 	stw	r6,4(r5)
     b0c:	29800215 	stw	r6,8(r5)
     b10:	81400117 	ldw	r5,4(r16)
     b14:	2940004c 	andi	r5,r5,1
     b18:	214ab03a 	or	r5,r4,r5
     b1c:	81400115 	stw	r5,4(r16)
     b20:	1900ae36 	bltu	r3,r4,ddc <_malloc_r+0x704>
     b24:	d0e7fb17 	ldw	r3,-24596(gp)
     b28:	1880012e 	bgeu	r3,r2,b30 <_malloc_r+0x458>
     b2c:	d0a7fb15 	stw	r2,-24596(gp)
     b30:	d0e7fa17 	ldw	r3,-24600(gp)
     b34:	9c000217 	ldw	r16,8(r19)
     b38:	1880012e 	bgeu	r3,r2,b40 <_malloc_r+0x468>
     b3c:	d0a7fa15 	stw	r2,-24600(gp)
     b40:	80c00117 	ldw	r3,4(r16)
     b44:	00bfff04 	movi	r2,-4
     b48:	1886703a 	and	r3,r3,r2
     b4c:	1c45c83a 	sub	r2,r3,r17
     b50:	1c400236 	bltu	r3,r17,b5c <_malloc_r+0x484>
     b54:	00c003c4 	movi	r3,15
     b58:	18800416 	blt	r3,r2,b6c <_malloc_r+0x494>
     b5c:	9009883a 	mov	r4,r18
     b60:	00031000 	call	3100 <__malloc_unlock>
     b64:	0005883a 	mov	r2,zero
     b68:	003f0906 	br	790 <_malloc_r+0xb8>
     b6c:	88c00054 	ori	r3,r17,1
     b70:	10800054 	ori	r2,r2,1
     b74:	80c00115 	stw	r3,4(r16)
     b78:	8463883a 	add	r17,r16,r17
     b7c:	88800115 	stw	r2,4(r17)
     b80:	9009883a 	mov	r4,r18
     b84:	9c400215 	stw	r17,8(r19)
     b88:	00031000 	call	3100 <__malloc_unlock>
     b8c:	80800204 	addi	r2,r16,8
     b90:	003eff06 	br	790 <_malloc_r+0xb8>
     b94:	00800504 	movi	r2,20
     b98:	1100492e 	bgeu	r2,r4,cc0 <_malloc_r+0x5e8>
     b9c:	00801504 	movi	r2,84
     ba0:	11005c36 	bltu	r2,r4,d14 <_malloc_r+0x63c>
     ba4:	8808d33a 	srli	r4,r17,12
     ba8:	21001b84 	addi	r4,r4,110
     bac:	210b883a 	add	r5,r4,r4
     bb0:	003f1006 	br	7f4 <_malloc_r+0x11c>
     bb4:	1006d27a 	srli	r3,r2,9
     bb8:	01400104 	movi	r5,4
     bbc:	28c0432e 	bgeu	r5,r3,ccc <_malloc_r+0x5f4>
     bc0:	01400504 	movi	r5,20
     bc4:	28c07036 	bltu	r5,r3,d88 <_malloc_r+0x6b0>
     bc8:	194016c4 	addi	r5,r3,91
     bcc:	294d883a 	add	r6,r5,r5
     bd0:	318d883a 	add	r6,r6,r6
     bd4:	318d883a 	add	r6,r6,r6
     bd8:	998d883a 	add	r6,r19,r6
     bdc:	30c00217 	ldw	r3,8(r6)
     be0:	01c00074 	movhi	r7,1
     be4:	39eae304 	addi	r7,r7,-21620
     be8:	19805726 	beq	r3,r6,d48 <_malloc_r+0x670>
     bec:	01ffff04 	movi	r7,-4
     bf0:	19400117 	ldw	r5,4(r3)
     bf4:	29ca703a 	and	r5,r5,r7
     bf8:	1140022e 	bgeu	r2,r5,c04 <_malloc_r+0x52c>
     bfc:	18c00217 	ldw	r3,8(r3)
     c00:	30fffb1e 	bne	r6,r3,bf0 <_malloc_r+0x518>
     c04:	19400317 	ldw	r5,12(r3)
     c08:	98800117 	ldw	r2,4(r19)
     c0c:	81400315 	stw	r5,12(r16)
     c10:	80c00215 	stw	r3,8(r16)
     c14:	2c000215 	stw	r16,8(r5)
     c18:	1c000315 	stw	r16,12(r3)
     c1c:	003f2b06 	br	8cc <_malloc_r+0x1f4>
     c20:	8445883a 	add	r2,r16,r17
     c24:	8c400054 	ori	r17,r17,1
     c28:	18800515 	stw	r2,20(r3)
     c2c:	18800415 	stw	r2,16(r3)
     c30:	29000054 	ori	r4,r5,1
     c34:	1147883a 	add	r3,r2,r5
     c38:	84400115 	stw	r17,4(r16)
     c3c:	11000115 	stw	r4,4(r2)
     c40:	12400315 	stw	r9,12(r2)
     c44:	12400215 	stw	r9,8(r2)
     c48:	19400015 	stw	r5,0(r3)
     c4c:	9009883a 	mov	r4,r18
     c50:	00031000 	call	3100 <__malloc_unlock>
     c54:	80800204 	addi	r2,r16,8
     c58:	003ecd06 	br	790 <_malloc_r+0xb8>
     c5c:	18800117 	ldw	r2,4(r3)
     c60:	003f1a06 	br	8cc <_malloc_r+0x1f4>
     c64:	5ac00044 	addi	r11,r11,1
     c68:	588000cc 	andi	r2,r11,3
     c6c:	52800204 	addi	r10,r10,8
     c70:	103f2e1e 	bne	r2,zero,92c <_malloc_r+0x254>
     c74:	20c000cc 	andi	r3,r4,3
     c78:	60bffe04 	addi	r2,r12,-8
     c7c:	18006f26 	beq	r3,zero,e3c <_malloc_r+0x764>
     c80:	63000017 	ldw	r12,0(r12)
     c84:	213fffc4 	addi	r4,r4,-1
     c88:	60bffa26 	beq	r12,r2,c74 <_malloc_r+0x59c>
     c8c:	98800117 	ldw	r2,4(r19)
     c90:	294b883a 	add	r5,r5,r5
     c94:	117f5a36 	bltu	r2,r5,a00 <_malloc_r+0x328>
     c98:	283f5926 	beq	r5,zero,a00 <_malloc_r+0x328>
     c9c:	1146703a 	and	r3,r2,r5
     ca0:	18001626 	beq	r3,zero,cfc <_malloc_r+0x624>
     ca4:	5809883a 	mov	r4,r11
     ca8:	003f1a06 	br	914 <_malloc_r+0x23c>
     cac:	80800204 	addi	r2,r16,8
     cb0:	84000517 	ldw	r16,20(r16)
     cb4:	143ea81e 	bne	r2,r16,758 <_malloc_r+0x80>
     cb8:	21000084 	addi	r4,r4,2
     cbc:	003ee306 	br	84c <_malloc_r+0x174>
     cc0:	210016c4 	addi	r4,r4,91
     cc4:	210b883a 	add	r5,r4,r4
     cc8:	003eca06 	br	7f4 <_malloc_r+0x11c>
     ccc:	100ad1ba 	srli	r5,r2,6
     cd0:	29400e04 	addi	r5,r5,56
     cd4:	294d883a 	add	r6,r5,r5
     cd8:	003fbd06 	br	bd0 <_malloc_r+0x4f8>
     cdc:	84ff6026 	beq	r16,r19,a60 <_malloc_r+0x388>
     ce0:	00800074 	movhi	r2,1
     ce4:	10aae304 	addi	r2,r2,-21620
     ce8:	14000217 	ldw	r16,8(r2)
     cec:	00bfff04 	movi	r2,-4
     cf0:	80c00117 	ldw	r3,4(r16)
     cf4:	1886703a 	and	r3,r3,r2
     cf8:	003f9406 	br	b4c <_malloc_r+0x474>
     cfc:	294b883a 	add	r5,r5,r5
     d00:	1146703a 	and	r3,r2,r5
     d04:	5ac00104 	addi	r11,r11,4
     d08:	183ffc26 	beq	r3,zero,cfc <_malloc_r+0x624>
     d0c:	5809883a 	mov	r4,r11
     d10:	003f0006 	br	914 <_malloc_r+0x23c>
     d14:	00805504 	movi	r2,340
     d18:	11001336 	bltu	r2,r4,d68 <_malloc_r+0x690>
     d1c:	8808d3fa 	srli	r4,r17,15
     d20:	21001dc4 	addi	r4,r4,119
     d24:	210b883a 	add	r5,r4,r4
     d28:	003eb206 	br	7f4 <_malloc_r+0x11c>
     d2c:	00840004 	movi	r2,4096
     d30:	003f5d06 	br	aa8 <_malloc_r+0x3d0>
     d34:	00800044 	movi	r2,1
     d38:	a0800115 	stw	r2,4(r20)
     d3c:	a021883a 	mov	r16,r20
     d40:	0007883a 	mov	r3,zero
     d44:	003f8106 	br	b4c <_malloc_r+0x474>
     d48:	280bd0ba 	srai	r5,r5,2
     d4c:	01800044 	movi	r6,1
     d50:	38800117 	ldw	r2,4(r7)
     d54:	314c983a 	sll	r6,r6,r5
     d58:	180b883a 	mov	r5,r3
     d5c:	3084b03a 	or	r2,r6,r2
     d60:	38800115 	stw	r2,4(r7)
     d64:	003fa906 	br	c0c <_malloc_r+0x534>
     d68:	00815504 	movi	r2,1364
     d6c:	11001836 	bltu	r2,r4,dd0 <_malloc_r+0x6f8>
     d70:	8808d4ba 	srli	r4,r17,18
     d74:	21001f04 	addi	r4,r4,124
     d78:	210b883a 	add	r5,r4,r4
     d7c:	003e9d06 	br	7f4 <_malloc_r+0x11c>
     d80:	bdc00404 	addi	r23,r23,16
     d84:	003f2f06 	br	a44 <_malloc_r+0x36c>
     d88:	01401504 	movi	r5,84
     d8c:	28c01f36 	bltu	r5,r3,e0c <_malloc_r+0x734>
     d90:	100ad33a 	srli	r5,r2,12
     d94:	29401b84 	addi	r5,r5,110
     d98:	294d883a 	add	r6,r5,r5
     d9c:	003f8c06 	br	bd0 <_malloc_r+0x4f8>
     da0:	9c000217 	ldw	r16,8(r19)
     da4:	00bfff04 	movi	r2,-4
     da8:	80c00117 	ldw	r3,4(r16)
     dac:	1886703a 	and	r3,r3,r2
     db0:	003f6606 	br	b4c <_malloc_r+0x474>
     db4:	e0c3ffcc 	andi	r3,fp,4095
     db8:	183f2f1e 	bne	r3,zero,a78 <_malloc_r+0x3a0>
     dbc:	98c00217 	ldw	r3,8(r19)
     dc0:	bd49883a 	add	r4,r23,r21
     dc4:	21000054 	ori	r4,r4,1
     dc8:	19000115 	stw	r4,4(r3)
     dcc:	003f5506 	br	b24 <_malloc_r+0x44c>
     dd0:	01403f04 	movi	r5,252
     dd4:	01001f84 	movi	r4,126
     dd8:	003e8606 	br	7f4 <_malloc_r+0x11c>
     ddc:	9009883a 	mov	r4,r18
     de0:	81400204 	addi	r5,r16,8
     de4:	0001f740 	call	1f74 <_free_r>
     de8:	00800074 	movhi	r2,1
     dec:	10b9bb04 	addi	r2,r2,-6420
     df0:	10800017 	ldw	r2,0(r2)
     df4:	003f4b06 	br	b24 <_malloc_r+0x44c>
     df8:	00c00044 	movi	r3,1
     dfc:	002f883a 	mov	r23,zero
     e00:	003f3406 	br	ad4 <_malloc_r+0x3fc>
     e04:	d5200215 	stw	r20,-32760(gp)
     e08:	003f2106 	br	a90 <_malloc_r+0x3b8>
     e0c:	01405504 	movi	r5,340
     e10:	28c00436 	bltu	r5,r3,e24 <_malloc_r+0x74c>
     e14:	100ad3fa 	srli	r5,r2,15
     e18:	29401dc4 	addi	r5,r5,119
     e1c:	294d883a 	add	r6,r5,r5
     e20:	003f6b06 	br	bd0 <_malloc_r+0x4f8>
     e24:	01415504 	movi	r5,1364
     e28:	28c00936 	bltu	r5,r3,e50 <_malloc_r+0x778>
     e2c:	100ad4ba 	srli	r5,r2,18
     e30:	29401f04 	addi	r5,r5,124
     e34:	294d883a 	add	r6,r5,r5
     e38:	003f6506 	br	bd0 <_malloc_r+0x4f8>
     e3c:	98800117 	ldw	r2,4(r19)
     e40:	0146303a 	nor	r3,zero,r5
     e44:	1884703a 	and	r2,r3,r2
     e48:	98800115 	stw	r2,4(r19)
     e4c:	003f9006 	br	c90 <_malloc_r+0x5b8>
     e50:	01803f04 	movi	r6,252
     e54:	01401f84 	movi	r5,126
     e58:	003f5d06 	br	bd0 <_malloc_r+0x4f8>

00000e5c <memchr>:
     e5c:	008000c4 	movi	r2,3
     e60:	29403fcc 	andi	r5,r5,255
     e64:	1180282e 	bgeu	r2,r6,f08 <memchr+0xac>
     e68:	2086703a 	and	r3,r4,r2
     e6c:	1800351e 	bne	r3,zero,f44 <memchr+0xe8>
     e70:	2816923a 	slli	r11,r5,8
     e74:	2093883a 	add	r9,r4,r2
     e78:	22000084 	addi	r8,r4,2
     e7c:	5957883a 	add	r11,r11,r5
     e80:	5816923a 	slli	r11,r11,8
     e84:	20c00044 	addi	r3,r4,1
     e88:	037fbff4 	movhi	r13,65279
     e8c:	6b7fbfc4 	addi	r13,r13,-257
     e90:	5957883a 	add	r11,r11,r5
     e94:	5816923a 	slli	r11,r11,8
     e98:	03202074 	movhi	r12,32897
     e9c:	63202004 	addi	r12,r12,-32640
     ea0:	101d883a 	mov	r14,r2
     ea4:	5957883a 	add	r11,r11,r5
     ea8:	21c00017 	ldw	r7,0(r4)
     eac:	31bfff04 	addi	r6,r6,-4
     eb0:	1805883a 	mov	r2,r3
     eb4:	3acef03a 	xor	r7,r7,r11
     eb8:	3b55883a 	add	r10,r7,r13
     ebc:	01ce303a 	nor	r7,zero,r7
     ec0:	51ce703a 	and	r7,r10,r7
     ec4:	3b0e703a 	and	r7,r7,r12
     ec8:	38000a26 	beq	r7,zero,ef4 <memchr+0x98>
     ecc:	21c00003 	ldbu	r7,0(r4)
     ed0:	39401e26 	beq	r7,r5,f4c <memchr+0xf0>
     ed4:	19c00003 	ldbu	r7,0(r3)
     ed8:	39401926 	beq	r7,r5,f40 <memchr+0xe4>
     edc:	41c00003 	ldbu	r7,0(r8)
     ee0:	4005883a 	mov	r2,r8
     ee4:	39401626 	beq	r7,r5,f40 <memchr+0xe4>
     ee8:	49c00003 	ldbu	r7,0(r9)
     eec:	4805883a 	mov	r2,r9
     ef0:	39401326 	beq	r7,r5,f40 <memchr+0xe4>
     ef4:	21000104 	addi	r4,r4,4
     ef8:	4a400104 	addi	r9,r9,4
     efc:	42000104 	addi	r8,r8,4
     f00:	18c00104 	addi	r3,r3,4
     f04:	71bfe836 	bltu	r14,r6,ea8 <memchr+0x4c>
     f08:	2005883a 	mov	r2,r4
     f0c:	30000a26 	beq	r6,zero,f38 <memchr+0xdc>
     f10:	10c00003 	ldbu	r3,0(r2)
     f14:	19400a26 	beq	r3,r5,f40 <memchr+0xe4>
     f18:	10c00044 	addi	r3,r2,1
     f1c:	118d883a 	add	r6,r2,r6
     f20:	00000306 	br	f30 <memchr+0xd4>
     f24:	11000003 	ldbu	r4,0(r2)
     f28:	18c00044 	addi	r3,r3,1
     f2c:	21400426 	beq	r4,r5,f40 <memchr+0xe4>
     f30:	1805883a 	mov	r2,r3
     f34:	19bffb1e 	bne	r3,r6,f24 <memchr+0xc8>
     f38:	0005883a 	mov	r2,zero
     f3c:	f800283a 	ret
     f40:	f800283a 	ret
     f44:	2005883a 	mov	r2,r4
     f48:	003ff106 	br	f10 <memchr+0xb4>
     f4c:	2005883a 	mov	r2,r4
     f50:	f800283a 	ret

00000f54 <memcpy>:
     f54:	00c003c4 	movi	r3,15
     f58:	2005883a 	mov	r2,r4
     f5c:	3009883a 	mov	r4,r6
     f60:	1980032e 	bgeu	r3,r6,f70 <memcpy+0x1c>
     f64:	2886b03a 	or	r3,r5,r2
     f68:	18c000cc 	andi	r3,r3,3
     f6c:	18000926 	beq	r3,zero,f94 <memcpy+0x40>
     f70:	1007883a 	mov	r3,r2
     f74:	290f883a 	add	r7,r5,r4
     f78:	20000526 	beq	r4,zero,f90 <memcpy+0x3c>
     f7c:	29800003 	ldbu	r6,0(r5)
     f80:	18c00044 	addi	r3,r3,1
     f84:	29400044 	addi	r5,r5,1
     f88:	19bfffc5 	stb	r6,-1(r3)
     f8c:	29fffb1e 	bne	r5,r7,f7c <memcpy+0x28>
     f90:	f800283a 	ret
     f94:	327ffc04 	addi	r9,r6,-16
     f98:	4812d13a 	srli	r9,r9,4
     f9c:	11000404 	addi	r4,r2,16
     fa0:	1007883a 	mov	r3,r2
     fa4:	4810913a 	slli	r8,r9,4
     fa8:	280f883a 	mov	r7,r5
     fac:	2209883a 	add	r4,r4,r8
     fb0:	3a000017 	ldw	r8,0(r7)
     fb4:	18c00404 	addi	r3,r3,16
     fb8:	39c00404 	addi	r7,r7,16
     fbc:	1a3ffc15 	stw	r8,-16(r3)
     fc0:	3a3ffd17 	ldw	r8,-12(r7)
     fc4:	1a3ffd15 	stw	r8,-12(r3)
     fc8:	3a3ffe17 	ldw	r8,-8(r7)
     fcc:	1a3ffe15 	stw	r8,-8(r3)
     fd0:	3a3fff17 	ldw	r8,-4(r7)
     fd4:	1a3fff15 	stw	r8,-4(r3)
     fd8:	193ff51e 	bne	r3,r4,fb0 <memcpy+0x5c>
     fdc:	49c00044 	addi	r7,r9,1
     fe0:	380e913a 	slli	r7,r7,4
     fe4:	310003cc 	andi	r4,r6,15
     fe8:	018000c4 	movi	r6,3
     fec:	11c7883a 	add	r3,r2,r7
     ff0:	29cb883a 	add	r5,r5,r7
     ff4:	313fdf2e 	bgeu	r6,r4,f74 <memcpy+0x20>
     ff8:	213fff04 	addi	r4,r4,-4
     ffc:	2014d0ba 	srli	r10,r4,2
    1000:	1a400104 	addi	r9,r3,4
    1004:	180d883a 	mov	r6,r3
    1008:	528f883a 	add	r7,r10,r10
    100c:	39cf883a 	add	r7,r7,r7
    1010:	49d3883a 	add	r9,r9,r7
    1014:	280f883a 	mov	r7,r5
    1018:	3a000017 	ldw	r8,0(r7)
    101c:	31800104 	addi	r6,r6,4
    1020:	39c00104 	addi	r7,r7,4
    1024:	323fff15 	stw	r8,-4(r6)
    1028:	327ffb1e 	bne	r6,r9,1018 <memcpy+0xc4>
    102c:	51800044 	addi	r6,r10,1
    1030:	52bfff24 	muli	r10,r10,-4
    1034:	318d883a 	add	r6,r6,r6
    1038:	318d883a 	add	r6,r6,r6
    103c:	5109883a 	add	r4,r10,r4
    1040:	298b883a 	add	r5,r5,r6
    1044:	1987883a 	add	r3,r3,r6
    1048:	003fca06 	br	f74 <memcpy+0x20>

0000104c <memmove>:
    104c:	2005883a 	mov	r2,r4
    1050:	300f883a 	mov	r7,r6
    1054:	29000b2e 	bgeu	r5,r4,1084 <memmove+0x38>
    1058:	2987883a 	add	r3,r5,r6
    105c:	20c0092e 	bgeu	r4,r3,1084 <memmove+0x38>
    1060:	218b883a 	add	r5,r4,r6
    1064:	198fc83a 	sub	r7,r3,r6
    1068:	30003f26 	beq	r6,zero,1168 <memmove+0x11c>
    106c:	18ffffc4 	addi	r3,r3,-1
    1070:	19000003 	ldbu	r4,0(r3)
    1074:	297fffc4 	addi	r5,r5,-1
    1078:	29000005 	stb	r4,0(r5)
    107c:	19fffb1e 	bne	r3,r7,106c <memmove+0x20>
    1080:	f800283a 	ret
    1084:	00c003c4 	movi	r3,15
    1088:	1980382e 	bgeu	r3,r6,116c <memmove+0x120>
    108c:	2886b03a 	or	r3,r5,r2
    1090:	18c000cc 	andi	r3,r3,3
    1094:	1800351e 	bne	r3,zero,116c <memmove+0x120>
    1098:	327ffc04 	addi	r9,r6,-16
    109c:	4812d13a 	srli	r9,r9,4
    10a0:	12000404 	addi	r8,r2,16
    10a4:	1007883a 	mov	r3,r2
    10a8:	4808913a 	slli	r4,r9,4
    10ac:	280f883a 	mov	r7,r5
    10b0:	4111883a 	add	r8,r8,r4
    10b4:	39000017 	ldw	r4,0(r7)
    10b8:	18c00404 	addi	r3,r3,16
    10bc:	39c00404 	addi	r7,r7,16
    10c0:	193ffc15 	stw	r4,-16(r3)
    10c4:	393ffd17 	ldw	r4,-12(r7)
    10c8:	193ffd15 	stw	r4,-12(r3)
    10cc:	393ffe17 	ldw	r4,-8(r7)
    10d0:	193ffe15 	stw	r4,-8(r3)
    10d4:	393fff17 	ldw	r4,-4(r7)
    10d8:	193fff15 	stw	r4,-4(r3)
    10dc:	1a3ff51e 	bne	r3,r8,10b4 <memmove+0x68>
    10e0:	49000044 	addi	r4,r9,1
    10e4:	2008913a 	slli	r4,r4,4
    10e8:	31c003cc 	andi	r7,r6,15
    10ec:	1107883a 	add	r3,r2,r4
    10f0:	290b883a 	add	r5,r5,r4
    10f4:	010000c4 	movi	r4,3
    10f8:	21c0142e 	bgeu	r4,r7,114c <memmove+0x100>
    10fc:	39ffff04 	addi	r7,r7,-4
    1100:	3814d0ba 	srli	r10,r7,2
    1104:	1a400104 	addi	r9,r3,4
    1108:	180d883a 	mov	r6,r3
    110c:	5289883a 	add	r4,r10,r10
    1110:	2109883a 	add	r4,r4,r4
    1114:	4913883a 	add	r9,r9,r4
    1118:	2809883a 	mov	r4,r5
    111c:	22000017 	ldw	r8,0(r4)
    1120:	31800104 	addi	r6,r6,4
    1124:	21000104 	addi	r4,r4,4
    1128:	323fff15 	stw	r8,-4(r6)
    112c:	327ffb1e 	bne	r6,r9,111c <memmove+0xd0>
    1130:	51000044 	addi	r4,r10,1
    1134:	52bfff24 	muli	r10,r10,-4
    1138:	2109883a 	add	r4,r4,r4
    113c:	2109883a 	add	r4,r4,r4
    1140:	51cf883a 	add	r7,r10,r7
    1144:	290b883a 	add	r5,r5,r4
    1148:	1907883a 	add	r3,r3,r4
    114c:	38000626 	beq	r7,zero,1168 <memmove+0x11c>
    1150:	19cf883a 	add	r7,r3,r7
    1154:	29800003 	ldbu	r6,0(r5)
    1158:	18c00044 	addi	r3,r3,1
    115c:	29400044 	addi	r5,r5,1
    1160:	19bfffc5 	stb	r6,-1(r3)
    1164:	19fffb1e 	bne	r3,r7,1154 <memmove+0x108>
    1168:	f800283a 	ret
    116c:	1007883a 	mov	r3,r2
    1170:	003ff606 	br	114c <memmove+0x100>

00001174 <_realloc_r>:
    1174:	defff504 	addi	sp,sp,-44
    1178:	dd400615 	stw	r21,24(sp)
    117c:	dc800315 	stw	r18,12(sp)
    1180:	dc000115 	stw	r16,4(sp)
    1184:	dfc00a15 	stw	ra,40(sp)
    1188:	df000915 	stw	fp,36(sp)
    118c:	ddc00815 	stw	r23,32(sp)
    1190:	dd800715 	stw	r22,28(sp)
    1194:	dd000515 	stw	r20,20(sp)
    1198:	dcc00415 	stw	r19,16(sp)
    119c:	dc400215 	stw	r17,8(sp)
    11a0:	2821883a 	mov	r16,r5
    11a4:	202b883a 	mov	r21,r4
    11a8:	3025883a 	mov	r18,r6
    11ac:	28009626 	beq	r5,zero,1408 <_realloc_r+0x294>
    11b0:	00030e00 	call	30e0 <__malloc_lock>
    11b4:	80bfff17 	ldw	r2,-4(r16)
    11b8:	04ffff04 	movi	r19,-4
    11bc:	90c002c4 	addi	r3,r18,11
    11c0:	01000584 	movi	r4,22
    11c4:	85bffe04 	addi	r22,r16,-8
    11c8:	14e6703a 	and	r19,r2,r19
    11cc:	20c0372e 	bgeu	r4,r3,12ac <_realloc_r+0x138>
    11d0:	047ffe04 	movi	r17,-8
    11d4:	1c62703a 	and	r17,r3,r17
    11d8:	8807883a 	mov	r3,r17
    11dc:	88005a16 	blt	r17,zero,1348 <_realloc_r+0x1d4>
    11e0:	8c805936 	bltu	r17,r18,1348 <_realloc_r+0x1d4>
    11e4:	98c0340e 	bge	r19,r3,12b8 <_realloc_r+0x144>
    11e8:	07000074 	movhi	fp,1
    11ec:	e72ae304 	addi	fp,fp,-21620
    11f0:	e1400217 	ldw	r5,8(fp)
    11f4:	b4c9883a 	add	r4,r22,r19
    11f8:	29009026 	beq	r5,r4,143c <_realloc_r+0x2c8>
    11fc:	21800117 	ldw	r6,4(r4)
    1200:	01ffff84 	movi	r7,-2
    1204:	31ce703a 	and	r7,r6,r7
    1208:	21cf883a 	add	r7,r4,r7
    120c:	39c00117 	ldw	r7,4(r7)
    1210:	39c0004c 	andi	r7,r7,1
    1214:	38004326 	beq	r7,zero,1324 <_realloc_r+0x1b0>
    1218:	000d883a 	mov	r6,zero
    121c:	0009883a 	mov	r4,zero
    1220:	1080004c 	andi	r2,r2,1
    1224:	10005a1e 	bne	r2,zero,1390 <_realloc_r+0x21c>
    1228:	85fffe17 	ldw	r23,-8(r16)
    122c:	00bfff04 	movi	r2,-4
    1230:	b5efc83a 	sub	r23,r22,r23
    1234:	b9c00117 	ldw	r7,4(r23)
    1238:	388e703a 	and	r7,r7,r2
    123c:	3ccf883a 	add	r7,r7,r19
    1240:	20005226 	beq	r4,zero,138c <_realloc_r+0x218>
    1244:	31e9883a 	add	r20,r6,r7
    1248:	2140c726 	beq	r4,r5,1568 <_realloc_r+0x3f4>
    124c:	a0c04f16 	blt	r20,r3,138c <_realloc_r+0x218>
    1250:	20800317 	ldw	r2,12(r4)
    1254:	20c00217 	ldw	r3,8(r4)
    1258:	99bfff04 	addi	r6,r19,-4
    125c:	01000904 	movi	r4,36
    1260:	18800315 	stw	r2,12(r3)
    1264:	10c00215 	stw	r3,8(r2)
    1268:	b8c00217 	ldw	r3,8(r23)
    126c:	b8800317 	ldw	r2,12(r23)
    1270:	bc800204 	addi	r18,r23,8
    1274:	18800315 	stw	r2,12(r3)
    1278:	10c00215 	stw	r3,8(r2)
    127c:	2180ed36 	bltu	r4,r6,1634 <_realloc_r+0x4c0>
    1280:	008004c4 	movi	r2,19
    1284:	11809b2e 	bgeu	r2,r6,14f4 <_realloc_r+0x380>
    1288:	80800017 	ldw	r2,0(r16)
    128c:	b8800215 	stw	r2,8(r23)
    1290:	80800117 	ldw	r2,4(r16)
    1294:	b8800315 	stw	r2,12(r23)
    1298:	008006c4 	movi	r2,27
    129c:	1180f936 	bltu	r2,r6,1684 <_realloc_r+0x510>
    12a0:	b8800404 	addi	r2,r23,16
    12a4:	80c00204 	addi	r3,r16,8
    12a8:	00009406 	br	14fc <_realloc_r+0x388>
    12ac:	00c00404 	movi	r3,16
    12b0:	1823883a 	mov	r17,r3
    12b4:	003fca06 	br	11e0 <_realloc_r+0x6c>
    12b8:	9829883a 	mov	r20,r19
    12bc:	a447c83a 	sub	r3,r20,r17
    12c0:	010003c4 	movi	r4,15
    12c4:	1080004c 	andi	r2,r2,1
    12c8:	20c02336 	bltu	r4,r3,1358 <_realloc_r+0x1e4>
    12cc:	1504b03a 	or	r2,r2,r20
    12d0:	b0800115 	stw	r2,4(r22)
    12d4:	b52d883a 	add	r22,r22,r20
    12d8:	b0800117 	ldw	r2,4(r22)
    12dc:	10800054 	ori	r2,r2,1
    12e0:	b0800115 	stw	r2,4(r22)
    12e4:	a809883a 	mov	r4,r21
    12e8:	00031000 	call	3100 <__malloc_unlock>
    12ec:	8025883a 	mov	r18,r16
    12f0:	9005883a 	mov	r2,r18
    12f4:	dfc00a17 	ldw	ra,40(sp)
    12f8:	df000917 	ldw	fp,36(sp)
    12fc:	ddc00817 	ldw	r23,32(sp)
    1300:	dd800717 	ldw	r22,28(sp)
    1304:	dd400617 	ldw	r21,24(sp)
    1308:	dd000517 	ldw	r20,20(sp)
    130c:	dcc00417 	ldw	r19,16(sp)
    1310:	dc800317 	ldw	r18,12(sp)
    1314:	dc400217 	ldw	r17,8(sp)
    1318:	dc000117 	ldw	r16,4(sp)
    131c:	dec00b04 	addi	sp,sp,44
    1320:	f800283a 	ret
    1324:	01ffff04 	movi	r7,-4
    1328:	31cc703a 	and	r6,r6,r7
    132c:	34e9883a 	add	r20,r6,r19
    1330:	a0ffbb16 	blt	r20,r3,1220 <_realloc_r+0xac>
    1334:	20c00317 	ldw	r3,12(r4)
    1338:	21000217 	ldw	r4,8(r4)
    133c:	20c00315 	stw	r3,12(r4)
    1340:	19000215 	stw	r4,8(r3)
    1344:	003fdd06 	br	12bc <_realloc_r+0x148>
    1348:	00800304 	movi	r2,12
    134c:	a8800015 	stw	r2,0(r21)
    1350:	0025883a 	mov	r18,zero
    1354:	003fe606 	br	12f0 <_realloc_r+0x17c>
    1358:	1444b03a 	or	r2,r2,r17
    135c:	b0800115 	stw	r2,4(r22)
    1360:	b44b883a 	add	r5,r22,r17
    1364:	18800054 	ori	r2,r3,1
    1368:	28800115 	stw	r2,4(r5)
    136c:	28c7883a 	add	r3,r5,r3
    1370:	18800117 	ldw	r2,4(r3)
    1374:	a809883a 	mov	r4,r21
    1378:	29400204 	addi	r5,r5,8
    137c:	10800054 	ori	r2,r2,1
    1380:	18800115 	stw	r2,4(r3)
    1384:	0001f740 	call	1f74 <_free_r>
    1388:	003fd606 	br	12e4 <_realloc_r+0x170>
    138c:	38c0330e 	bge	r7,r3,145c <_realloc_r+0x2e8>
    1390:	900b883a 	mov	r5,r18
    1394:	a809883a 	mov	r4,r21
    1398:	00006d80 	call	6d8 <_malloc_r>
    139c:	1025883a 	mov	r18,r2
    13a0:	10001626 	beq	r2,zero,13fc <_realloc_r+0x288>
    13a4:	80bfff17 	ldw	r2,-4(r16)
    13a8:	00ffff84 	movi	r3,-2
    13ac:	913ffe04 	addi	r4,r18,-8
    13b0:	10c6703a 	and	r3,r2,r3
    13b4:	b0c7883a 	add	r3,r22,r3
    13b8:	20c09926 	beq	r4,r3,1620 <_realloc_r+0x4ac>
    13bc:	99bfff04 	addi	r6,r19,-4
    13c0:	00800904 	movi	r2,36
    13c4:	11806436 	bltu	r2,r6,1558 <_realloc_r+0x3e4>
    13c8:	00c004c4 	movi	r3,19
    13cc:	19804036 	bltu	r3,r6,14d0 <_realloc_r+0x35c>
    13d0:	9005883a 	mov	r2,r18
    13d4:	8007883a 	mov	r3,r16
    13d8:	19000017 	ldw	r4,0(r3)
    13dc:	11000015 	stw	r4,0(r2)
    13e0:	19000117 	ldw	r4,4(r3)
    13e4:	11000115 	stw	r4,4(r2)
    13e8:	18c00217 	ldw	r3,8(r3)
    13ec:	10c00215 	stw	r3,8(r2)
    13f0:	a809883a 	mov	r4,r21
    13f4:	800b883a 	mov	r5,r16
    13f8:	0001f740 	call	1f74 <_free_r>
    13fc:	a809883a 	mov	r4,r21
    1400:	00031000 	call	3100 <__malloc_unlock>
    1404:	003fba06 	br	12f0 <_realloc_r+0x17c>
    1408:	300b883a 	mov	r5,r6
    140c:	dfc00a17 	ldw	ra,40(sp)
    1410:	df000917 	ldw	fp,36(sp)
    1414:	ddc00817 	ldw	r23,32(sp)
    1418:	dd800717 	ldw	r22,28(sp)
    141c:	dd400617 	ldw	r21,24(sp)
    1420:	dd000517 	ldw	r20,20(sp)
    1424:	dcc00417 	ldw	r19,16(sp)
    1428:	dc800317 	ldw	r18,12(sp)
    142c:	dc400217 	ldw	r17,8(sp)
    1430:	dc000117 	ldw	r16,4(sp)
    1434:	dec00b04 	addi	sp,sp,44
    1438:	00006d81 	jmpi	6d8 <_malloc_r>
    143c:	29800117 	ldw	r6,4(r5)
    1440:	013fff04 	movi	r4,-4
    1444:	89c00404 	addi	r7,r17,16
    1448:	310c703a 	and	r6,r6,r4
    144c:	34c9883a 	add	r4,r6,r19
    1450:	21c0340e 	bge	r4,r7,1524 <_realloc_r+0x3b0>
    1454:	2809883a 	mov	r4,r5
    1458:	003f7106 	br	1220 <_realloc_r+0xac>
    145c:	b8800317 	ldw	r2,12(r23)
    1460:	b8c00217 	ldw	r3,8(r23)
    1464:	99bfff04 	addi	r6,r19,-4
    1468:	01000904 	movi	r4,36
    146c:	18800315 	stw	r2,12(r3)
    1470:	10c00215 	stw	r3,8(r2)
    1474:	bc800204 	addi	r18,r23,8
    1478:	21807836 	bltu	r4,r6,165c <_realloc_r+0x4e8>
    147c:	008004c4 	movi	r2,19
    1480:	1180732e 	bgeu	r2,r6,1650 <_realloc_r+0x4dc>
    1484:	80800017 	ldw	r2,0(r16)
    1488:	b8800215 	stw	r2,8(r23)
    148c:	80800117 	ldw	r2,4(r16)
    1490:	b8800315 	stw	r2,12(r23)
    1494:	008006c4 	movi	r2,27
    1498:	11808936 	bltu	r2,r6,16c0 <_realloc_r+0x54c>
    149c:	b8800404 	addi	r2,r23,16
    14a0:	80c00204 	addi	r3,r16,8
    14a4:	19000017 	ldw	r4,0(r3)
    14a8:	9021883a 	mov	r16,r18
    14ac:	3829883a 	mov	r20,r7
    14b0:	11000015 	stw	r4,0(r2)
    14b4:	19000117 	ldw	r4,4(r3)
    14b8:	b82d883a 	mov	r22,r23
    14bc:	11000115 	stw	r4,4(r2)
    14c0:	18c00217 	ldw	r3,8(r3)
    14c4:	10c00215 	stw	r3,8(r2)
    14c8:	b8800117 	ldw	r2,4(r23)
    14cc:	003f7b06 	br	12bc <_realloc_r+0x148>
    14d0:	80c00017 	ldw	r3,0(r16)
    14d4:	90c00015 	stw	r3,0(r18)
    14d8:	80c00117 	ldw	r3,4(r16)
    14dc:	90c00115 	stw	r3,4(r18)
    14e0:	00c006c4 	movi	r3,27
    14e4:	19804636 	bltu	r3,r6,1600 <_realloc_r+0x48c>
    14e8:	90800204 	addi	r2,r18,8
    14ec:	80c00204 	addi	r3,r16,8
    14f0:	003fb906 	br	13d8 <_realloc_r+0x264>
    14f4:	9005883a 	mov	r2,r18
    14f8:	8007883a 	mov	r3,r16
    14fc:	19000017 	ldw	r4,0(r3)
    1500:	9021883a 	mov	r16,r18
    1504:	b82d883a 	mov	r22,r23
    1508:	11000015 	stw	r4,0(r2)
    150c:	19000117 	ldw	r4,4(r3)
    1510:	11000115 	stw	r4,4(r2)
    1514:	18c00217 	ldw	r3,8(r3)
    1518:	10c00215 	stw	r3,8(r2)
    151c:	b8800117 	ldw	r2,4(r23)
    1520:	003f6606 	br	12bc <_realloc_r+0x148>
    1524:	2445c83a 	sub	r2,r4,r17
    1528:	b46d883a 	add	r22,r22,r17
    152c:	10800054 	ori	r2,r2,1
    1530:	b0800115 	stw	r2,4(r22)
    1534:	80bfff17 	ldw	r2,-4(r16)
    1538:	a809883a 	mov	r4,r21
    153c:	e5800215 	stw	r22,8(fp)
    1540:	1080004c 	andi	r2,r2,1
    1544:	88a2b03a 	or	r17,r17,r2
    1548:	847fff15 	stw	r17,-4(r16)
    154c:	00031000 	call	3100 <__malloc_unlock>
    1550:	8025883a 	mov	r18,r16
    1554:	003f6606 	br	12f0 <_realloc_r+0x17c>
    1558:	9009883a 	mov	r4,r18
    155c:	800b883a 	mov	r5,r16
    1560:	000104c0 	call	104c <memmove>
    1564:	003fa206 	br	13f0 <_realloc_r+0x27c>
    1568:	88800404 	addi	r2,r17,16
    156c:	a0bf8716 	blt	r20,r2,138c <_realloc_r+0x218>
    1570:	b8800317 	ldw	r2,12(r23)
    1574:	b8c00217 	ldw	r3,8(r23)
    1578:	99bfff04 	addi	r6,r19,-4
    157c:	01000904 	movi	r4,36
    1580:	18800315 	stw	r2,12(r3)
    1584:	10c00215 	stw	r3,8(r2)
    1588:	bc800204 	addi	r18,r23,8
    158c:	21806536 	bltu	r4,r6,1724 <_realloc_r+0x5b0>
    1590:	008004c4 	movi	r2,19
    1594:	1180592e 	bgeu	r2,r6,16fc <_realloc_r+0x588>
    1598:	80800017 	ldw	r2,0(r16)
    159c:	b8800215 	stw	r2,8(r23)
    15a0:	80800117 	ldw	r2,4(r16)
    15a4:	b8800315 	stw	r2,12(r23)
    15a8:	008006c4 	movi	r2,27
    15ac:	11806136 	bltu	r2,r6,1734 <_realloc_r+0x5c0>
    15b0:	b8800404 	addi	r2,r23,16
    15b4:	80c00204 	addi	r3,r16,8
    15b8:	19000017 	ldw	r4,0(r3)
    15bc:	11000015 	stw	r4,0(r2)
    15c0:	19000117 	ldw	r4,4(r3)
    15c4:	11000115 	stw	r4,4(r2)
    15c8:	18c00217 	ldw	r3,8(r3)
    15cc:	10c00215 	stw	r3,8(r2)
    15d0:	a447c83a 	sub	r3,r20,r17
    15d4:	bc45883a 	add	r2,r23,r17
    15d8:	18c00054 	ori	r3,r3,1
    15dc:	10c00115 	stw	r3,4(r2)
    15e0:	b8c00117 	ldw	r3,4(r23)
    15e4:	e0800215 	stw	r2,8(fp)
    15e8:	a809883a 	mov	r4,r21
    15ec:	1880004c 	andi	r2,r3,1
    15f0:	88a2b03a 	or	r17,r17,r2
    15f4:	bc400115 	stw	r17,4(r23)
    15f8:	00031000 	call	3100 <__malloc_unlock>
    15fc:	003f3c06 	br	12f0 <_realloc_r+0x17c>
    1600:	80c00217 	ldw	r3,8(r16)
    1604:	90c00215 	stw	r3,8(r18)
    1608:	80c00317 	ldw	r3,12(r16)
    160c:	90c00315 	stw	r3,12(r18)
    1610:	30802426 	beq	r6,r2,16a4 <_realloc_r+0x530>
    1614:	90800404 	addi	r2,r18,16
    1618:	80c00404 	addi	r3,r16,16
    161c:	003f6e06 	br	13d8 <_realloc_r+0x264>
    1620:	953fff17 	ldw	r20,-4(r18)
    1624:	00ffff04 	movi	r3,-4
    1628:	a0e8703a 	and	r20,r20,r3
    162c:	a4e9883a 	add	r20,r20,r19
    1630:	003f2206 	br	12bc <_realloc_r+0x148>
    1634:	800b883a 	mov	r5,r16
    1638:	9009883a 	mov	r4,r18
    163c:	000104c0 	call	104c <memmove>
    1640:	9021883a 	mov	r16,r18
    1644:	b8800117 	ldw	r2,4(r23)
    1648:	b82d883a 	mov	r22,r23
    164c:	003f1b06 	br	12bc <_realloc_r+0x148>
    1650:	9005883a 	mov	r2,r18
    1654:	8007883a 	mov	r3,r16
    1658:	003f9206 	br	14a4 <_realloc_r+0x330>
    165c:	800b883a 	mov	r5,r16
    1660:	9009883a 	mov	r4,r18
    1664:	d9c00015 	stw	r7,0(sp)
    1668:	000104c0 	call	104c <memmove>
    166c:	d9c00017 	ldw	r7,0(sp)
    1670:	9021883a 	mov	r16,r18
    1674:	b8800117 	ldw	r2,4(r23)
    1678:	3829883a 	mov	r20,r7
    167c:	b82d883a 	mov	r22,r23
    1680:	003f0e06 	br	12bc <_realloc_r+0x148>
    1684:	80800217 	ldw	r2,8(r16)
    1688:	b8800415 	stw	r2,16(r23)
    168c:	80800317 	ldw	r2,12(r16)
    1690:	b8800515 	stw	r2,20(r23)
    1694:	31001226 	beq	r6,r4,16e0 <_realloc_r+0x56c>
    1698:	b8800604 	addi	r2,r23,24
    169c:	80c00404 	addi	r3,r16,16
    16a0:	003f9606 	br	14fc <_realloc_r+0x388>
    16a4:	81000417 	ldw	r4,16(r16)
    16a8:	90800604 	addi	r2,r18,24
    16ac:	80c00604 	addi	r3,r16,24
    16b0:	91000415 	stw	r4,16(r18)
    16b4:	81000517 	ldw	r4,20(r16)
    16b8:	91000515 	stw	r4,20(r18)
    16bc:	003f4606 	br	13d8 <_realloc_r+0x264>
    16c0:	80800217 	ldw	r2,8(r16)
    16c4:	b8800415 	stw	r2,16(r23)
    16c8:	80800317 	ldw	r2,12(r16)
    16cc:	b8800515 	stw	r2,20(r23)
    16d0:	31000d26 	beq	r6,r4,1708 <_realloc_r+0x594>
    16d4:	b8800604 	addi	r2,r23,24
    16d8:	80c00404 	addi	r3,r16,16
    16dc:	003f7106 	br	14a4 <_realloc_r+0x330>
    16e0:	81000417 	ldw	r4,16(r16)
    16e4:	b8800804 	addi	r2,r23,32
    16e8:	80c00604 	addi	r3,r16,24
    16ec:	b9000615 	stw	r4,24(r23)
    16f0:	81000517 	ldw	r4,20(r16)
    16f4:	b9000715 	stw	r4,28(r23)
    16f8:	003f8006 	br	14fc <_realloc_r+0x388>
    16fc:	9005883a 	mov	r2,r18
    1700:	8007883a 	mov	r3,r16
    1704:	003fac06 	br	15b8 <_realloc_r+0x444>
    1708:	81000417 	ldw	r4,16(r16)
    170c:	b8800804 	addi	r2,r23,32
    1710:	80c00604 	addi	r3,r16,24
    1714:	b9000615 	stw	r4,24(r23)
    1718:	81000517 	ldw	r4,20(r16)
    171c:	b9000715 	stw	r4,28(r23)
    1720:	003f6006 	br	14a4 <_realloc_r+0x330>
    1724:	9009883a 	mov	r4,r18
    1728:	800b883a 	mov	r5,r16
    172c:	000104c0 	call	104c <memmove>
    1730:	003fa706 	br	15d0 <_realloc_r+0x45c>
    1734:	80800217 	ldw	r2,8(r16)
    1738:	b8800415 	stw	r2,16(r23)
    173c:	80800317 	ldw	r2,12(r16)
    1740:	b8800515 	stw	r2,20(r23)
    1744:	31000326 	beq	r6,r4,1754 <_realloc_r+0x5e0>
    1748:	b8800604 	addi	r2,r23,24
    174c:	80c00404 	addi	r3,r16,16
    1750:	003f9906 	br	15b8 <_realloc_r+0x444>
    1754:	81000417 	ldw	r4,16(r16)
    1758:	b8800804 	addi	r2,r23,32
    175c:	80c00604 	addi	r3,r16,24
    1760:	b9000615 	stw	r4,24(r23)
    1764:	81000517 	ldw	r4,20(r16)
    1768:	b9000715 	stw	r4,28(r23)
    176c:	003f9206 	br	15b8 <_realloc_r+0x444>

00001770 <_sbrk_r>:
    1770:	defffd04 	addi	sp,sp,-12
    1774:	dc400115 	stw	r17,4(sp)
    1778:	dc000015 	stw	r16,0(sp)
    177c:	2023883a 	mov	r17,r4
    1780:	04000074 	movhi	r16,1
    1784:	8439b404 	addi	r16,r16,-6448
    1788:	2809883a 	mov	r4,r5
    178c:	dfc00215 	stw	ra,8(sp)
    1790:	80000015 	stw	zero,0(r16)
    1794:	00032c00 	call	32c0 <sbrk>
    1798:	00ffffc4 	movi	r3,-1
    179c:	10c00526 	beq	r2,r3,17b4 <_sbrk_r+0x44>
    17a0:	dfc00217 	ldw	ra,8(sp)
    17a4:	dc400117 	ldw	r17,4(sp)
    17a8:	dc000017 	ldw	r16,0(sp)
    17ac:	dec00304 	addi	sp,sp,12
    17b0:	f800283a 	ret
    17b4:	80c00017 	ldw	r3,0(r16)
    17b8:	183ff926 	beq	r3,zero,17a0 <_sbrk_r+0x30>
    17bc:	88c00015 	stw	r3,0(r17)
    17c0:	dfc00217 	ldw	ra,8(sp)
    17c4:	dc400117 	ldw	r17,4(sp)
    17c8:	dc000017 	ldw	r16,0(sp)
    17cc:	dec00304 	addi	sp,sp,12
    17d0:	f800283a 	ret

000017d4 <__swsetup_r>:
    17d4:	00800074 	movhi	r2,1
    17d8:	10b1b804 	addi	r2,r2,-14624
    17dc:	10800017 	ldw	r2,0(r2)
    17e0:	defffd04 	addi	sp,sp,-12
    17e4:	dc400115 	stw	r17,4(sp)
    17e8:	dc000015 	stw	r16,0(sp)
    17ec:	dfc00215 	stw	ra,8(sp)
    17f0:	2023883a 	mov	r17,r4
    17f4:	2821883a 	mov	r16,r5
    17f8:	10000226 	beq	r2,zero,1804 <__swsetup_r+0x30>
    17fc:	10c00e17 	ldw	r3,56(r2)
    1800:	18003d26 	beq	r3,zero,18f8 <__swsetup_r+0x124>
    1804:	8080030b 	ldhu	r2,12(r16)
    1808:	10c0020c 	andi	r3,r2,8
    180c:	18ffffcc 	andi	r3,r3,65535
    1810:	18e0001c 	xori	r3,r3,32768
    1814:	18e00004 	addi	r3,r3,-32768
    1818:	18001226 	beq	r3,zero,1864 <__swsetup_r+0x90>
    181c:	80c00417 	ldw	r3,16(r16)
    1820:	18001f26 	beq	r3,zero,18a0 <__swsetup_r+0xcc>
    1824:	1100004c 	andi	r4,r2,1
    1828:	2000261e 	bne	r4,zero,18c4 <__swsetup_r+0xf0>
    182c:	1080008c 	andi	r2,r2,2
    1830:	10bfffcc 	andi	r2,r2,65535
    1834:	10a0001c 	xori	r2,r2,32768
    1838:	10a00004 	addi	r2,r2,-32768
    183c:	1000311e 	bne	r2,zero,1904 <__swsetup_r+0x130>
    1840:	80800517 	ldw	r2,20(r16)
    1844:	80800215 	stw	r2,8(r16)
    1848:	18002326 	beq	r3,zero,18d8 <__swsetup_r+0x104>
    184c:	0005883a 	mov	r2,zero
    1850:	dfc00217 	ldw	ra,8(sp)
    1854:	dc400117 	ldw	r17,4(sp)
    1858:	dc000017 	ldw	r16,0(sp)
    185c:	dec00304 	addi	sp,sp,12
    1860:	f800283a 	ret
    1864:	10c0040c 	andi	r3,r2,16
    1868:	18ffffcc 	andi	r3,r3,65535
    186c:	18e0001c 	xori	r3,r3,32768
    1870:	18e00004 	addi	r3,r3,-32768
    1874:	18001e26 	beq	r3,zero,18f0 <__swsetup_r+0x11c>
    1878:	10c0010c 	andi	r3,r2,4
    187c:	18ffffcc 	andi	r3,r3,65535
    1880:	18e0001c 	xori	r3,r3,32768
    1884:	18e00004 	addi	r3,r3,-32768
    1888:	1800211e 	bne	r3,zero,1910 <__swsetup_r+0x13c>
    188c:	80c00417 	ldw	r3,16(r16)
    1890:	11400214 	ori	r5,r2,8
    1894:	8140030d 	sth	r5,12(r16)
    1898:	2805883a 	mov	r2,r5
    189c:	183fe11e 	bne	r3,zero,1824 <__swsetup_r+0x50>
    18a0:	1140a00c 	andi	r5,r2,640
    18a4:	01008004 	movi	r4,512
    18a8:	293fde26 	beq	r5,r4,1824 <__swsetup_r+0x50>
    18ac:	8809883a 	mov	r4,r17
    18b0:	800b883a 	mov	r5,r16
    18b4:	00023a40 	call	23a4 <__smakebuf_r>
    18b8:	8080030b 	ldhu	r2,12(r16)
    18bc:	80c00417 	ldw	r3,16(r16)
    18c0:	003fd806 	br	1824 <__swsetup_r+0x50>
    18c4:	80800517 	ldw	r2,20(r16)
    18c8:	80000215 	stw	zero,8(r16)
    18cc:	0085c83a 	sub	r2,zero,r2
    18d0:	80800615 	stw	r2,24(r16)
    18d4:	183fdd1e 	bne	r3,zero,184c <__swsetup_r+0x78>
    18d8:	8080030b 	ldhu	r2,12(r16)
    18dc:	1080200c 	andi	r2,r2,128
    18e0:	10bfffcc 	andi	r2,r2,65535
    18e4:	10a0001c 	xori	r2,r2,32768
    18e8:	10a00004 	addi	r2,r2,-32768
    18ec:	103fd826 	beq	r2,zero,1850 <__swsetup_r+0x7c>
    18f0:	00bfffc4 	movi	r2,-1
    18f4:	003fd606 	br	1850 <__swsetup_r+0x7c>
    18f8:	1009883a 	mov	r4,r2
    18fc:	0001bf00 	call	1bf0 <__sinit>
    1900:	003fc006 	br	1804 <__swsetup_r+0x30>
    1904:	0005883a 	mov	r2,zero
    1908:	80800215 	stw	r2,8(r16)
    190c:	003fce06 	br	1848 <__swsetup_r+0x74>
    1910:	81400c17 	ldw	r5,48(r16)
    1914:	28000626 	beq	r5,zero,1930 <__swsetup_r+0x15c>
    1918:	80c01004 	addi	r3,r16,64
    191c:	28c00326 	beq	r5,r3,192c <__swsetup_r+0x158>
    1920:	8809883a 	mov	r4,r17
    1924:	0001f740 	call	1f74 <_free_r>
    1928:	8080030b 	ldhu	r2,12(r16)
    192c:	80000c15 	stw	zero,48(r16)
    1930:	80c00417 	ldw	r3,16(r16)
    1934:	013ff6c4 	movi	r4,-37
    1938:	2084703a 	and	r2,r4,r2
    193c:	80000115 	stw	zero,4(r16)
    1940:	80c00015 	stw	r3,0(r16)
    1944:	003fd206 	br	1890 <__swsetup_r+0xbc>

00001948 <_fflush_r>:
    1948:	defffb04 	addi	sp,sp,-20
    194c:	dcc00315 	stw	r19,12(sp)
    1950:	dc400115 	stw	r17,4(sp)
    1954:	dfc00415 	stw	ra,16(sp)
    1958:	dc800215 	stw	r18,8(sp)
    195c:	dc000015 	stw	r16,0(sp)
    1960:	2027883a 	mov	r19,r4
    1964:	2823883a 	mov	r17,r5
    1968:	20000226 	beq	r4,zero,1974 <_fflush_r+0x2c>
    196c:	20800e17 	ldw	r2,56(r4)
    1970:	10005726 	beq	r2,zero,1ad0 <_fflush_r+0x188>
    1974:	8880030b 	ldhu	r2,12(r17)
    1978:	10c0020c 	andi	r3,r2,8
    197c:	18ffffcc 	andi	r3,r3,65535
    1980:	18e0001c 	xori	r3,r3,32768
    1984:	18e00004 	addi	r3,r3,-32768
    1988:	1800311e 	bne	r3,zero,1a50 <_fflush_r+0x108>
    198c:	89000117 	ldw	r4,4(r17)
    1990:	10c20014 	ori	r3,r2,2048
    1994:	88c0030d 	sth	r3,12(r17)
    1998:	180b883a 	mov	r5,r3
    199c:	0100520e 	bge	zero,r4,1ae8 <_fflush_r+0x1a0>
    19a0:	88c00a17 	ldw	r3,40(r17)
    19a4:	18002226 	beq	r3,zero,1a30 <_fflush_r+0xe8>
    19a8:	1084000c 	andi	r2,r2,4096
    19ac:	10bfffcc 	andi	r2,r2,65535
    19b0:	10a0001c 	xori	r2,r2,32768
    19b4:	10a00004 	addi	r2,r2,-32768
    19b8:	10004e26 	beq	r2,zero,1af4 <_fflush_r+0x1ac>
    19bc:	8c001417 	ldw	r16,80(r17)
    19c0:	2940010c 	andi	r5,r5,4
    19c4:	297fffcc 	andi	r5,r5,65535
    19c8:	2960001c 	xori	r5,r5,32768
    19cc:	29600004 	addi	r5,r5,-32768
    19d0:	28000626 	beq	r5,zero,19ec <_fflush_r+0xa4>
    19d4:	89000117 	ldw	r4,4(r17)
    19d8:	88800c17 	ldw	r2,48(r17)
    19dc:	8121c83a 	sub	r16,r16,r4
    19e0:	10000226 	beq	r2,zero,19ec <_fflush_r+0xa4>
    19e4:	88800f17 	ldw	r2,60(r17)
    19e8:	80a1c83a 	sub	r16,r16,r2
    19ec:	89400717 	ldw	r5,28(r17)
    19f0:	9809883a 	mov	r4,r19
    19f4:	800d883a 	mov	r6,r16
    19f8:	000f883a 	mov	r7,zero
    19fc:	183ee83a 	callr	r3
    1a00:	8080281e 	bne	r16,r2,1aa4 <_fflush_r+0x15c>
    1a04:	8880030b 	ldhu	r2,12(r17)
    1a08:	88c00417 	ldw	r3,16(r17)
    1a0c:	88000115 	stw	zero,4(r17)
    1a10:	113dffcc 	andi	r4,r2,63487
    1a14:	1084000c 	andi	r2,r2,4096
    1a18:	10bfffcc 	andi	r2,r2,65535
    1a1c:	10a0001c 	xori	r2,r2,32768
    1a20:	8900030d 	sth	r4,12(r17)
    1a24:	88c00015 	stw	r3,0(r17)
    1a28:	10a00004 	addi	r2,r2,-32768
    1a2c:	10002c1e 	bne	r2,zero,1ae0 <_fflush_r+0x198>
    1a30:	0005883a 	mov	r2,zero
    1a34:	dfc00417 	ldw	ra,16(sp)
    1a38:	dcc00317 	ldw	r19,12(sp)
    1a3c:	dc800217 	ldw	r18,8(sp)
    1a40:	dc400117 	ldw	r17,4(sp)
    1a44:	dc000017 	ldw	r16,0(sp)
    1a48:	dec00504 	addi	sp,sp,20
    1a4c:	f800283a 	ret
    1a50:	8c800417 	ldw	r18,16(r17)
    1a54:	903ff626 	beq	r18,zero,1a30 <_fflush_r+0xe8>
    1a58:	8c000017 	ldw	r16,0(r17)
    1a5c:	108000cc 	andi	r2,r2,3
    1a60:	8c800015 	stw	r18,0(r17)
    1a64:	84a1c83a 	sub	r16,r16,r18
    1a68:	10001b1e 	bne	r2,zero,1ad8 <_fflush_r+0x190>
    1a6c:	88800517 	ldw	r2,20(r17)
    1a70:	88800215 	stw	r2,8(r17)
    1a74:	04000316 	blt	zero,r16,1a84 <_fflush_r+0x13c>
    1a78:	003fed06 	br	1a30 <_fflush_r+0xe8>
    1a7c:	90a5883a 	add	r18,r18,r2
    1a80:	043feb0e 	bge	zero,r16,1a30 <_fflush_r+0xe8>
    1a84:	88800917 	ldw	r2,36(r17)
    1a88:	89400717 	ldw	r5,28(r17)
    1a8c:	800f883a 	mov	r7,r16
    1a90:	900d883a 	mov	r6,r18
    1a94:	9809883a 	mov	r4,r19
    1a98:	103ee83a 	callr	r2
    1a9c:	80a1c83a 	sub	r16,r16,r2
    1aa0:	00bff616 	blt	zero,r2,1a7c <_fflush_r+0x134>
    1aa4:	88c0030b 	ldhu	r3,12(r17)
    1aa8:	00bfffc4 	movi	r2,-1
    1aac:	18c01014 	ori	r3,r3,64
    1ab0:	88c0030d 	sth	r3,12(r17)
    1ab4:	dfc00417 	ldw	ra,16(sp)
    1ab8:	dcc00317 	ldw	r19,12(sp)
    1abc:	dc800217 	ldw	r18,8(sp)
    1ac0:	dc400117 	ldw	r17,4(sp)
    1ac4:	dc000017 	ldw	r16,0(sp)
    1ac8:	dec00504 	addi	sp,sp,20
    1acc:	f800283a 	ret
    1ad0:	0001bf00 	call	1bf0 <__sinit>
    1ad4:	003fa706 	br	1974 <_fflush_r+0x2c>
    1ad8:	0005883a 	mov	r2,zero
    1adc:	003fe406 	br	1a70 <_fflush_r+0x128>
    1ae0:	8c001415 	stw	r16,80(r17)
    1ae4:	003fd206 	br	1a30 <_fflush_r+0xe8>
    1ae8:	88c00f17 	ldw	r3,60(r17)
    1aec:	00ffac16 	blt	zero,r3,19a0 <_fflush_r+0x58>
    1af0:	003fcf06 	br	1a30 <_fflush_r+0xe8>
    1af4:	89400717 	ldw	r5,28(r17)
    1af8:	9809883a 	mov	r4,r19
    1afc:	000d883a 	mov	r6,zero
    1b00:	01c00044 	movi	r7,1
    1b04:	183ee83a 	callr	r3
    1b08:	1021883a 	mov	r16,r2
    1b0c:	00bfffc4 	movi	r2,-1
    1b10:	80800326 	beq	r16,r2,1b20 <_fflush_r+0x1d8>
    1b14:	8940030b 	ldhu	r5,12(r17)
    1b18:	88c00a17 	ldw	r3,40(r17)
    1b1c:	003fa806 	br	19c0 <_fflush_r+0x78>
    1b20:	98c00017 	ldw	r3,0(r19)
    1b24:	00800744 	movi	r2,29
    1b28:	18bfde1e 	bne	r3,r2,1aa4 <_fflush_r+0x15c>
    1b2c:	003fc006 	br	1a30 <_fflush_r+0xe8>

00001b30 <fflush>:
    1b30:	200b883a 	mov	r5,r4
    1b34:	20000426 	beq	r4,zero,1b48 <fflush+0x18>
    1b38:	00800074 	movhi	r2,1
    1b3c:	10b1b804 	addi	r2,r2,-14624
    1b40:	11000017 	ldw	r4,0(r2)
    1b44:	00019481 	jmpi	1948 <_fflush_r>
    1b48:	00800074 	movhi	r2,1
    1b4c:	10b1b704 	addi	r2,r2,-14628
    1b50:	11000017 	ldw	r4,0(r2)
    1b54:	01400034 	movhi	r5,0
    1b58:	29465204 	addi	r5,r5,6472
    1b5c:	00022ec1 	jmpi	22ec <_fwalk_reent>

00001b60 <__fp_lock>:
    1b60:	0005883a 	mov	r2,zero
    1b64:	f800283a 	ret

00001b68 <__fp_unlock>:
    1b68:	0005883a 	mov	r2,zero
    1b6c:	f800283a 	ret

00001b70 <_cleanup_r>:
    1b70:	01400034 	movhi	r5,0
    1b74:	294a5d04 	addi	r5,r5,10612
    1b78:	00022441 	jmpi	2244 <_fwalk>

00001b7c <__sfmoreglue>:
    1b7c:	defffc04 	addi	sp,sp,-16
    1b80:	dc400115 	stw	r17,4(sp)
    1b84:	2c401724 	muli	r17,r5,92
    1b88:	dc800215 	stw	r18,8(sp)
    1b8c:	2825883a 	mov	r18,r5
    1b90:	89400304 	addi	r5,r17,12
    1b94:	dc000015 	stw	r16,0(sp)
    1b98:	dfc00315 	stw	ra,12(sp)
    1b9c:	00006d80 	call	6d8 <_malloc_r>
    1ba0:	1021883a 	mov	r16,r2
    1ba4:	10000726 	beq	r2,zero,1bc4 <__sfmoreglue+0x48>
    1ba8:	11000304 	addi	r4,r2,12
    1bac:	10000015 	stw	zero,0(r2)
    1bb0:	14800115 	stw	r18,4(r2)
    1bb4:	11000215 	stw	r4,8(r2)
    1bb8:	000b883a 	mov	r5,zero
    1bbc:	880d883a 	mov	r6,r17
    1bc0:	000254c0 	call	254c <memset>
    1bc4:	8005883a 	mov	r2,r16
    1bc8:	dfc00317 	ldw	ra,12(sp)
    1bcc:	dc800217 	ldw	r18,8(sp)
    1bd0:	dc400117 	ldw	r17,4(sp)
    1bd4:	dc000017 	ldw	r16,0(sp)
    1bd8:	dec00404 	addi	sp,sp,16
    1bdc:	f800283a 	ret

00001be0 <_cleanup>:
    1be0:	00800074 	movhi	r2,1
    1be4:	10b1b704 	addi	r2,r2,-14628
    1be8:	11000017 	ldw	r4,0(r2)
    1bec:	0001b701 	jmpi	1b70 <_cleanup_r>

00001bf0 <__sinit>:
    1bf0:	20800e17 	ldw	r2,56(r4)
    1bf4:	1000401e 	bne	r2,zero,1cf8 <__sinit+0x108>
    1bf8:	21400117 	ldw	r5,4(r4)
    1bfc:	01800034 	movhi	r6,0
    1c00:	3186dc04 	addi	r6,r6,7024
    1c04:	20c00217 	ldw	r3,8(r4)
    1c08:	21800f15 	stw	r6,60(r4)
    1c0c:	2080bb04 	addi	r2,r4,748
    1c10:	02400044 	movi	r9,1
    1c14:	018000c4 	movi	r6,3
    1c18:	2180b915 	stw	r6,740(r4)
    1c1c:	2080ba15 	stw	r2,744(r4)
    1c20:	22400e15 	stw	r9,56(r4)
    1c24:	20800317 	ldw	r2,12(r4)
    1c28:	2000b815 	stw	zero,736(r4)
    1c2c:	02000034 	movhi	r8,0
    1c30:	42098a04 	addi	r8,r8,9768
    1c34:	01c00034 	movhi	r7,0
    1c38:	39c99f04 	addi	r7,r7,9852
    1c3c:	01800034 	movhi	r6,0
    1c40:	3189c104 	addi	r6,r6,9988
    1c44:	01000034 	movhi	r4,0
    1c48:	2109d804 	addi	r4,r4,10080
    1c4c:	02800104 	movi	r10,4
    1c50:	28000015 	stw	zero,0(r5)
    1c54:	28000115 	stw	zero,4(r5)
    1c58:	28000215 	stw	zero,8(r5)
    1c5c:	2a80030d 	sth	r10,12(r5)
    1c60:	2800038d 	sth	zero,14(r5)
    1c64:	28000415 	stw	zero,16(r5)
    1c68:	28000515 	stw	zero,20(r5)
    1c6c:	28000615 	stw	zero,24(r5)
    1c70:	29400715 	stw	r5,28(r5)
    1c74:	2a000815 	stw	r8,32(r5)
    1c78:	29c00915 	stw	r7,36(r5)
    1c7c:	29800a15 	stw	r6,40(r5)
    1c80:	29000b15 	stw	r4,44(r5)
    1c84:	01400284 	movi	r5,10
    1c88:	18000015 	stw	zero,0(r3)
    1c8c:	18000115 	stw	zero,4(r3)
    1c90:	18000215 	stw	zero,8(r3)
    1c94:	1940030d 	sth	r5,12(r3)
    1c98:	1a40038d 	sth	r9,14(r3)
    1c9c:	18000415 	stw	zero,16(r3)
    1ca0:	18000515 	stw	zero,20(r3)
    1ca4:	18000615 	stw	zero,24(r3)
    1ca8:	18c00715 	stw	r3,28(r3)
    1cac:	1a000815 	stw	r8,32(r3)
    1cb0:	19c00915 	stw	r7,36(r3)
    1cb4:	19800a15 	stw	r6,40(r3)
    1cb8:	19000b15 	stw	r4,44(r3)
    1cbc:	00c00484 	movi	r3,18
    1cc0:	10c0030d 	sth	r3,12(r2)
    1cc4:	00c00084 	movi	r3,2
    1cc8:	10000015 	stw	zero,0(r2)
    1ccc:	10000115 	stw	zero,4(r2)
    1cd0:	10000215 	stw	zero,8(r2)
    1cd4:	10c0038d 	sth	r3,14(r2)
    1cd8:	10000415 	stw	zero,16(r2)
    1cdc:	10000515 	stw	zero,20(r2)
    1ce0:	10000615 	stw	zero,24(r2)
    1ce4:	10800715 	stw	r2,28(r2)
    1ce8:	12000815 	stw	r8,32(r2)
    1cec:	11c00915 	stw	r7,36(r2)
    1cf0:	11800a15 	stw	r6,40(r2)
    1cf4:	11000b15 	stw	r4,44(r2)
    1cf8:	f800283a 	ret

00001cfc <__sfp>:
    1cfc:	defffc04 	addi	sp,sp,-16
    1d00:	00800074 	movhi	r2,1
    1d04:	10b1b704 	addi	r2,r2,-14628
    1d08:	dc400115 	stw	r17,4(sp)
    1d0c:	14400017 	ldw	r17,0(r2)
    1d10:	dc800215 	stw	r18,8(sp)
    1d14:	dfc00315 	stw	ra,12(sp)
    1d18:	88800e17 	ldw	r2,56(r17)
    1d1c:	dc000015 	stw	r16,0(sp)
    1d20:	2025883a 	mov	r18,r4
    1d24:	10002826 	beq	r2,zero,1dc8 <__sfp+0xcc>
    1d28:	8c40b804 	addi	r17,r17,736
    1d2c:	043fffc4 	movi	r16,-1
    1d30:	89400117 	ldw	r5,4(r17)
    1d34:	88800217 	ldw	r2,8(r17)
    1d38:	297fffc4 	addi	r5,r5,-1
    1d3c:	28000a16 	blt	r5,zero,1d68 <__sfp+0x6c>
    1d40:	10c0030f 	ldh	r3,12(r2)
    1d44:	18000c26 	beq	r3,zero,1d78 <__sfp+0x7c>
    1d48:	10c01a04 	addi	r3,r2,104
    1d4c:	00000206 	br	1d58 <__sfp+0x5c>
    1d50:	19bfe90f 	ldh	r6,-92(r3)
    1d54:	30000826 	beq	r6,zero,1d78 <__sfp+0x7c>
    1d58:	297fffc4 	addi	r5,r5,-1
    1d5c:	18bffd04 	addi	r2,r3,-12
    1d60:	18c01704 	addi	r3,r3,92
    1d64:	2c3ffa1e 	bne	r5,r16,1d50 <__sfp+0x54>
    1d68:	88800017 	ldw	r2,0(r17)
    1d6c:	10001926 	beq	r2,zero,1dd4 <__sfp+0xd8>
    1d70:	1023883a 	mov	r17,r2
    1d74:	003fee06 	br	1d30 <__sfp+0x34>
    1d78:	00ffffc4 	movi	r3,-1
    1d7c:	10c0038d 	sth	r3,14(r2)
    1d80:	00c00044 	movi	r3,1
    1d84:	10c0030d 	sth	r3,12(r2)
    1d88:	10000015 	stw	zero,0(r2)
    1d8c:	10000215 	stw	zero,8(r2)
    1d90:	10000115 	stw	zero,4(r2)
    1d94:	10000415 	stw	zero,16(r2)
    1d98:	10000515 	stw	zero,20(r2)
    1d9c:	10000615 	stw	zero,24(r2)
    1da0:	10000c15 	stw	zero,48(r2)
    1da4:	10000d15 	stw	zero,52(r2)
    1da8:	10001115 	stw	zero,68(r2)
    1dac:	10001215 	stw	zero,72(r2)
    1db0:	dfc00317 	ldw	ra,12(sp)
    1db4:	dc800217 	ldw	r18,8(sp)
    1db8:	dc400117 	ldw	r17,4(sp)
    1dbc:	dc000017 	ldw	r16,0(sp)
    1dc0:	dec00404 	addi	sp,sp,16
    1dc4:	f800283a 	ret
    1dc8:	8809883a 	mov	r4,r17
    1dcc:	0001bf00 	call	1bf0 <__sinit>
    1dd0:	003fd506 	br	1d28 <__sfp+0x2c>
    1dd4:	9009883a 	mov	r4,r18
    1dd8:	01400104 	movi	r5,4
    1ddc:	0001b7c0 	call	1b7c <__sfmoreglue>
    1de0:	88800015 	stw	r2,0(r17)
    1de4:	103fe21e 	bne	r2,zero,1d70 <__sfp+0x74>
    1de8:	00800304 	movi	r2,12
    1dec:	90800015 	stw	r2,0(r18)
    1df0:	0005883a 	mov	r2,zero
    1df4:	003fee06 	br	1db0 <__sfp+0xb4>

00001df8 <__sfp_lock_acquire>:
    1df8:	f800283a 	ret

00001dfc <__sfp_lock_release>:
    1dfc:	f800283a 	ret

00001e00 <__sinit_lock_acquire>:
    1e00:	f800283a 	ret

00001e04 <__sinit_lock_release>:
    1e04:	f800283a 	ret

00001e08 <__fp_lock_all>:
    1e08:	00800074 	movhi	r2,1
    1e0c:	10b1b804 	addi	r2,r2,-14624
    1e10:	11000017 	ldw	r4,0(r2)
    1e14:	01400034 	movhi	r5,0
    1e18:	2946d804 	addi	r5,r5,7008
    1e1c:	00022441 	jmpi	2244 <_fwalk>

00001e20 <__fp_unlock_all>:
    1e20:	00800074 	movhi	r2,1
    1e24:	10b1b804 	addi	r2,r2,-14624
    1e28:	11000017 	ldw	r4,0(r2)
    1e2c:	01400034 	movhi	r5,0
    1e30:	2946da04 	addi	r5,r5,7016
    1e34:	00022441 	jmpi	2244 <_fwalk>

00001e38 <_malloc_trim_r>:
    1e38:	defffb04 	addi	sp,sp,-20
    1e3c:	dcc00315 	stw	r19,12(sp)
    1e40:	dc800215 	stw	r18,8(sp)
    1e44:	dc400115 	stw	r17,4(sp)
    1e48:	dc000015 	stw	r16,0(sp)
    1e4c:	2827883a 	mov	r19,r5
    1e50:	dfc00415 	stw	ra,16(sp)
    1e54:	04400074 	movhi	r17,1
    1e58:	8c6ae304 	addi	r17,r17,-21620
    1e5c:	2021883a 	mov	r16,r4
    1e60:	00030e00 	call	30e0 <__malloc_lock>
    1e64:	88800217 	ldw	r2,8(r17)
    1e68:	14800117 	ldw	r18,4(r2)
    1e6c:	00bfff04 	movi	r2,-4
    1e70:	90a4703a 	and	r18,r18,r2
    1e74:	9083fbc4 	addi	r2,r18,4079
    1e78:	14e7c83a 	sub	r19,r2,r19
    1e7c:	9826d33a 	srli	r19,r19,12
    1e80:	0083ffc4 	movi	r2,4095
    1e84:	9cffffc4 	addi	r19,r19,-1
    1e88:	9826933a 	slli	r19,r19,12
    1e8c:	14c0060e 	bge	r2,r19,1ea8 <_malloc_trim_r+0x70>
    1e90:	8009883a 	mov	r4,r16
    1e94:	000b883a 	mov	r5,zero
    1e98:	00017700 	call	1770 <_sbrk_r>
    1e9c:	88c00217 	ldw	r3,8(r17)
    1ea0:	1c87883a 	add	r3,r3,r18
    1ea4:	10c00a26 	beq	r2,r3,1ed0 <_malloc_trim_r+0x98>
    1ea8:	8009883a 	mov	r4,r16
    1eac:	00031000 	call	3100 <__malloc_unlock>
    1eb0:	0005883a 	mov	r2,zero
    1eb4:	dfc00417 	ldw	ra,16(sp)
    1eb8:	dcc00317 	ldw	r19,12(sp)
    1ebc:	dc800217 	ldw	r18,8(sp)
    1ec0:	dc400117 	ldw	r17,4(sp)
    1ec4:	dc000017 	ldw	r16,0(sp)
    1ec8:	dec00504 	addi	sp,sp,20
    1ecc:	f800283a 	ret
    1ed0:	8009883a 	mov	r4,r16
    1ed4:	04cbc83a 	sub	r5,zero,r19
    1ed8:	00017700 	call	1770 <_sbrk_r>
    1edc:	00ffffc4 	movi	r3,-1
    1ee0:	10c01326 	beq	r2,r3,1f30 <_malloc_trim_r+0xf8>
    1ee4:	00800074 	movhi	r2,1
    1ee8:	10b9bb04 	addi	r2,r2,-6420
    1eec:	11000017 	ldw	r4,0(r2)
    1ef0:	88c00217 	ldw	r3,8(r17)
    1ef4:	94e5c83a 	sub	r18,r18,r19
    1ef8:	94800054 	ori	r18,r18,1
    1efc:	24e7c83a 	sub	r19,r4,r19
    1f00:	1c800115 	stw	r18,4(r3)
    1f04:	8009883a 	mov	r4,r16
    1f08:	14c00015 	stw	r19,0(r2)
    1f0c:	00031000 	call	3100 <__malloc_unlock>
    1f10:	00800044 	movi	r2,1
    1f14:	dfc00417 	ldw	ra,16(sp)
    1f18:	dcc00317 	ldw	r19,12(sp)
    1f1c:	dc800217 	ldw	r18,8(sp)
    1f20:	dc400117 	ldw	r17,4(sp)
    1f24:	dc000017 	ldw	r16,0(sp)
    1f28:	dec00504 	addi	sp,sp,20
    1f2c:	f800283a 	ret
    1f30:	8009883a 	mov	r4,r16
    1f34:	000b883a 	mov	r5,zero
    1f38:	00017700 	call	1770 <_sbrk_r>
    1f3c:	88c00217 	ldw	r3,8(r17)
    1f40:	014003c4 	movi	r5,15
    1f44:	10c9c83a 	sub	r4,r2,r3
    1f48:	293fd70e 	bge	r5,r4,1ea8 <_malloc_trim_r+0x70>
    1f4c:	01400074 	movhi	r5,1
    1f50:	2971b904 	addi	r5,r5,-14620
    1f54:	29400017 	ldw	r5,0(r5)
    1f58:	21000054 	ori	r4,r4,1
    1f5c:	19000115 	stw	r4,4(r3)
    1f60:	1145c83a 	sub	r2,r2,r5
    1f64:	01400074 	movhi	r5,1
    1f68:	2979bb04 	addi	r5,r5,-6420
    1f6c:	28800015 	stw	r2,0(r5)
    1f70:	003fcd06 	br	1ea8 <_malloc_trim_r+0x70>

00001f74 <_free_r>:
    1f74:	defffd04 	addi	sp,sp,-12
    1f78:	dc400115 	stw	r17,4(sp)
    1f7c:	dc000015 	stw	r16,0(sp)
    1f80:	dfc00215 	stw	ra,8(sp)
    1f84:	2821883a 	mov	r16,r5
    1f88:	2023883a 	mov	r17,r4
    1f8c:	28004b26 	beq	r5,zero,20bc <_free_r+0x148>
    1f90:	00030e00 	call	30e0 <__malloc_lock>
    1f94:	823fff17 	ldw	r8,-4(r16)
    1f98:	00bfff84 	movi	r2,-2
    1f9c:	81bffe04 	addi	r6,r16,-8
    1fa0:	4084703a 	and	r2,r8,r2
    1fa4:	3087883a 	add	r3,r6,r2
    1fa8:	01400074 	movhi	r5,1
    1fac:	296ae304 	addi	r5,r5,-21620
    1fb0:	1a400117 	ldw	r9,4(r3)
    1fb4:	29000217 	ldw	r4,8(r5)
    1fb8:	01ffff04 	movi	r7,-4
    1fbc:	49ce703a 	and	r7,r9,r7
    1fc0:	20c06526 	beq	r4,r3,2158 <_free_r+0x1e4>
    1fc4:	19c00115 	stw	r7,4(r3)
    1fc8:	4200004c 	andi	r8,r8,1
    1fcc:	40003026 	beq	r8,zero,2090 <_free_r+0x11c>
    1fd0:	0009883a 	mov	r4,zero
    1fd4:	19d1883a 	add	r8,r3,r7
    1fd8:	42000117 	ldw	r8,4(r8)
    1fdc:	4200004c 	andi	r8,r8,1
    1fe0:	4000061e 	bne	r8,zero,1ffc <_free_r+0x88>
    1fe4:	11c5883a 	add	r2,r2,r7
    1fe8:	19c00217 	ldw	r7,8(r3)
    1fec:	20004e26 	beq	r4,zero,2128 <_free_r+0x1b4>
    1ff0:	18c00317 	ldw	r3,12(r3)
    1ff4:	38c00315 	stw	r3,12(r7)
    1ff8:	19c00215 	stw	r7,8(r3)
    1ffc:	11c00054 	ori	r7,r2,1
    2000:	3087883a 	add	r3,r6,r2
    2004:	31c00115 	stw	r7,4(r6)
    2008:	18800015 	stw	r2,0(r3)
    200c:	20001a1e 	bne	r4,zero,2078 <_free_r+0x104>
    2010:	00c07fc4 	movi	r3,511
    2014:	18802e2e 	bgeu	r3,r2,20d0 <_free_r+0x15c>
    2018:	1006d27a 	srli	r3,r2,9
    201c:	01000104 	movi	r4,4
    2020:	20c06636 	bltu	r4,r3,21bc <_free_r+0x248>
    2024:	1008d1ba 	srli	r4,r2,6
    2028:	21000e04 	addi	r4,r4,56
    202c:	210f883a 	add	r7,r4,r4
    2030:	39cf883a 	add	r7,r7,r7
    2034:	39cf883a 	add	r7,r7,r7
    2038:	29cf883a 	add	r7,r5,r7
    203c:	38c00217 	ldw	r3,8(r7)
    2040:	01400074 	movhi	r5,1
    2044:	296ae304 	addi	r5,r5,-21620
    2048:	19c06126 	beq	r3,r7,21d0 <_free_r+0x25c>
    204c:	013fff04 	movi	r4,-4
    2050:	19400117 	ldw	r5,4(r3)
    2054:	290a703a 	and	r5,r5,r4
    2058:	1140022e 	bgeu	r2,r5,2064 <_free_r+0xf0>
    205c:	18c00217 	ldw	r3,8(r3)
    2060:	38fffb1e 	bne	r7,r3,2050 <_free_r+0xdc>
    2064:	18800317 	ldw	r2,12(r3)
    2068:	30800315 	stw	r2,12(r6)
    206c:	30c00215 	stw	r3,8(r6)
    2070:	11800215 	stw	r6,8(r2)
    2074:	19800315 	stw	r6,12(r3)
    2078:	8809883a 	mov	r4,r17
    207c:	dfc00217 	ldw	ra,8(sp)
    2080:	dc400117 	ldw	r17,4(sp)
    2084:	dc000017 	ldw	r16,0(sp)
    2088:	dec00304 	addi	sp,sp,12
    208c:	00031001 	jmpi	3100 <__malloc_unlock>
    2090:	813ffe17 	ldw	r4,-8(r16)
    2094:	2a400204 	addi	r9,r5,8
    2098:	310dc83a 	sub	r6,r6,r4
    209c:	32000217 	ldw	r8,8(r6)
    20a0:	1105883a 	add	r2,r2,r4
    20a4:	42404326 	beq	r8,r9,21b4 <_free_r+0x240>
    20a8:	32400317 	ldw	r9,12(r6)
    20ac:	0009883a 	mov	r4,zero
    20b0:	42400315 	stw	r9,12(r8)
    20b4:	4a000215 	stw	r8,8(r9)
    20b8:	003fc606 	br	1fd4 <_free_r+0x60>
    20bc:	dfc00217 	ldw	ra,8(sp)
    20c0:	dc400117 	ldw	r17,4(sp)
    20c4:	dc000017 	ldw	r16,0(sp)
    20c8:	dec00304 	addi	sp,sp,12
    20cc:	f800283a 	ret
    20d0:	1004d0fa 	srli	r2,r2,3
    20d4:	02000044 	movi	r8,1
    20d8:	29c00117 	ldw	r7,4(r5)
    20dc:	1087883a 	add	r3,r2,r2
    20e0:	18c7883a 	add	r3,r3,r3
    20e4:	1005d0ba 	srai	r2,r2,2
    20e8:	18c7883a 	add	r3,r3,r3
    20ec:	28c7883a 	add	r3,r5,r3
    20f0:	19000217 	ldw	r4,8(r3)
    20f4:	4084983a 	sll	r2,r8,r2
    20f8:	30c00315 	stw	r3,12(r6)
    20fc:	31000215 	stw	r4,8(r6)
    2100:	11c4b03a 	or	r2,r2,r7
    2104:	21800315 	stw	r6,12(r4)
    2108:	8809883a 	mov	r4,r17
    210c:	28800115 	stw	r2,4(r5)
    2110:	19800215 	stw	r6,8(r3)
    2114:	dfc00217 	ldw	ra,8(sp)
    2118:	dc400117 	ldw	r17,4(sp)
    211c:	dc000017 	ldw	r16,0(sp)
    2120:	dec00304 	addi	sp,sp,12
    2124:	00031001 	jmpi	3100 <__malloc_unlock>
    2128:	02000074 	movhi	r8,1
    212c:	422ae504 	addi	r8,r8,-21612
    2130:	3a3faf1e 	bne	r7,r8,1ff0 <_free_r+0x7c>
    2134:	29800515 	stw	r6,20(r5)
    2138:	29800415 	stw	r6,16(r5)
    213c:	11000054 	ori	r4,r2,1
    2140:	3087883a 	add	r3,r6,r2
    2144:	31c00315 	stw	r7,12(r6)
    2148:	31c00215 	stw	r7,8(r6)
    214c:	31000115 	stw	r4,4(r6)
    2150:	18800015 	stw	r2,0(r3)
    2154:	003fc806 	br	2078 <_free_r+0x104>
    2158:	4200004c 	andi	r8,r8,1
    215c:	3885883a 	add	r2,r7,r2
    2160:	4000071e 	bne	r8,zero,2180 <_free_r+0x20c>
    2164:	81fffe17 	ldw	r7,-8(r16)
    2168:	31cdc83a 	sub	r6,r6,r7
    216c:	30c00317 	ldw	r3,12(r6)
    2170:	31000217 	ldw	r4,8(r6)
    2174:	11c5883a 	add	r2,r2,r7
    2178:	20c00315 	stw	r3,12(r4)
    217c:	19000215 	stw	r4,8(r3)
    2180:	00c00074 	movhi	r3,1
    2184:	18f1ba04 	addi	r3,r3,-14616
    2188:	18c00017 	ldw	r3,0(r3)
    218c:	11000054 	ori	r4,r2,1
    2190:	31000115 	stw	r4,4(r6)
    2194:	29800215 	stw	r6,8(r5)
    2198:	10ffb736 	bltu	r2,r3,2078 <_free_r+0x104>
    219c:	00800074 	movhi	r2,1
    21a0:	10b9b304 	addi	r2,r2,-6452
    21a4:	11400017 	ldw	r5,0(r2)
    21a8:	8809883a 	mov	r4,r17
    21ac:	0001e380 	call	1e38 <_malloc_trim_r>
    21b0:	003fb106 	br	2078 <_free_r+0x104>
    21b4:	01000044 	movi	r4,1
    21b8:	003f8606 	br	1fd4 <_free_r+0x60>
    21bc:	01000504 	movi	r4,20
    21c0:	20c00b36 	bltu	r4,r3,21f0 <_free_r+0x27c>
    21c4:	190016c4 	addi	r4,r3,91
    21c8:	210f883a 	add	r7,r4,r4
    21cc:	003f9806 	br	2030 <_free_r+0xbc>
    21d0:	2009d0ba 	srai	r4,r4,2
    21d4:	00800044 	movi	r2,1
    21d8:	29c00117 	ldw	r7,4(r5)
    21dc:	1108983a 	sll	r4,r2,r4
    21e0:	1805883a 	mov	r2,r3
    21e4:	21c8b03a 	or	r4,r4,r7
    21e8:	29000115 	stw	r4,4(r5)
    21ec:	003f9e06 	br	2068 <_free_r+0xf4>
    21f0:	01001504 	movi	r4,84
    21f4:	20c00436 	bltu	r4,r3,2208 <_free_r+0x294>
    21f8:	1008d33a 	srli	r4,r2,12
    21fc:	21001b84 	addi	r4,r4,110
    2200:	210f883a 	add	r7,r4,r4
    2204:	003f8a06 	br	2030 <_free_r+0xbc>
    2208:	01005504 	movi	r4,340
    220c:	20c00436 	bltu	r4,r3,2220 <_free_r+0x2ac>
    2210:	1008d3fa 	srli	r4,r2,15
    2214:	21001dc4 	addi	r4,r4,119
    2218:	210f883a 	add	r7,r4,r4
    221c:	003f8406 	br	2030 <_free_r+0xbc>
    2220:	01015504 	movi	r4,1364
    2224:	20c00436 	bltu	r4,r3,2238 <_free_r+0x2c4>
    2228:	1008d4ba 	srli	r4,r2,18
    222c:	21001f04 	addi	r4,r4,124
    2230:	210f883a 	add	r7,r4,r4
    2234:	003f7e06 	br	2030 <_free_r+0xbc>
    2238:	01c03f04 	movi	r7,252
    223c:	01001f84 	movi	r4,126
    2240:	003f7b06 	br	2030 <_free_r+0xbc>

00002244 <_fwalk>:
    2244:	defff904 	addi	sp,sp,-28
    2248:	dcc00315 	stw	r19,12(sp)
    224c:	24c0b804 	addi	r19,r4,736
    2250:	dd400515 	stw	r21,20(sp)
    2254:	dd000415 	stw	r20,16(sp)
    2258:	dfc00615 	stw	ra,24(sp)
    225c:	dc800215 	stw	r18,8(sp)
    2260:	dc400115 	stw	r17,4(sp)
    2264:	dc000015 	stw	r16,0(sp)
    2268:	282b883a 	mov	r21,r5
    226c:	0029883a 	mov	r20,zero
    2270:	0001df80 	call	1df8 <__sfp_lock_acquire>
    2274:	98001226 	beq	r19,zero,22c0 <_fwalk+0x7c>
    2278:	04bfffc4 	movi	r18,-1
    227c:	9c400117 	ldw	r17,4(r19)
    2280:	9c000217 	ldw	r16,8(r19)
    2284:	8c7fffc4 	addi	r17,r17,-1
    2288:	88000b16 	blt	r17,zero,22b8 <_fwalk+0x74>
    228c:	84000304 	addi	r16,r16,12
    2290:	80c0000f 	ldh	r3,0(r16)
    2294:	8c7fffc4 	addi	r17,r17,-1
    2298:	813ffd04 	addi	r4,r16,-12
    229c:	18000426 	beq	r3,zero,22b0 <_fwalk+0x6c>
    22a0:	80c0008f 	ldh	r3,2(r16)
    22a4:	1c800226 	beq	r3,r18,22b0 <_fwalk+0x6c>
    22a8:	a83ee83a 	callr	r21
    22ac:	a0a8b03a 	or	r20,r20,r2
    22b0:	84001704 	addi	r16,r16,92
    22b4:	8cbff61e 	bne	r17,r18,2290 <_fwalk+0x4c>
    22b8:	9cc00017 	ldw	r19,0(r19)
    22bc:	983fef1e 	bne	r19,zero,227c <_fwalk+0x38>
    22c0:	0001dfc0 	call	1dfc <__sfp_lock_release>
    22c4:	a005883a 	mov	r2,r20
    22c8:	dfc00617 	ldw	ra,24(sp)
    22cc:	dd400517 	ldw	r21,20(sp)
    22d0:	dd000417 	ldw	r20,16(sp)
    22d4:	dcc00317 	ldw	r19,12(sp)
    22d8:	dc800217 	ldw	r18,8(sp)
    22dc:	dc400117 	ldw	r17,4(sp)
    22e0:	dc000017 	ldw	r16,0(sp)
    22e4:	dec00704 	addi	sp,sp,28
    22e8:	f800283a 	ret

000022ec <_fwalk_reent>:
    22ec:	defff804 	addi	sp,sp,-32
    22f0:	dcc00315 	stw	r19,12(sp)
    22f4:	24c0b804 	addi	r19,r4,736
    22f8:	dd800615 	stw	r22,24(sp)
    22fc:	dd400515 	stw	r21,20(sp)
    2300:	dd000415 	stw	r20,16(sp)
    2304:	dfc00715 	stw	ra,28(sp)
    2308:	dc800215 	stw	r18,8(sp)
    230c:	dc400115 	stw	r17,4(sp)
    2310:	dc000015 	stw	r16,0(sp)
    2314:	2029883a 	mov	r20,r4
    2318:	282b883a 	mov	r21,r5
    231c:	002d883a 	mov	r22,zero
    2320:	0001df80 	call	1df8 <__sfp_lock_acquire>
    2324:	98001326 	beq	r19,zero,2374 <_fwalk_reent+0x88>
    2328:	04bfffc4 	movi	r18,-1
    232c:	9c400117 	ldw	r17,4(r19)
    2330:	9c000217 	ldw	r16,8(r19)
    2334:	8c7fffc4 	addi	r17,r17,-1
    2338:	88000c16 	blt	r17,zero,236c <_fwalk_reent+0x80>
    233c:	84000304 	addi	r16,r16,12
    2340:	80c0000f 	ldh	r3,0(r16)
    2344:	8c7fffc4 	addi	r17,r17,-1
    2348:	817ffd04 	addi	r5,r16,-12
    234c:	18000526 	beq	r3,zero,2364 <_fwalk_reent+0x78>
    2350:	80c0008f 	ldh	r3,2(r16)
    2354:	a009883a 	mov	r4,r20
    2358:	1c800226 	beq	r3,r18,2364 <_fwalk_reent+0x78>
    235c:	a83ee83a 	callr	r21
    2360:	b0acb03a 	or	r22,r22,r2
    2364:	84001704 	addi	r16,r16,92
    2368:	8cbff51e 	bne	r17,r18,2340 <_fwalk_reent+0x54>
    236c:	9cc00017 	ldw	r19,0(r19)
    2370:	983fee1e 	bne	r19,zero,232c <_fwalk_reent+0x40>
    2374:	0001dfc0 	call	1dfc <__sfp_lock_release>
    2378:	b005883a 	mov	r2,r22
    237c:	dfc00717 	ldw	ra,28(sp)
    2380:	dd800617 	ldw	r22,24(sp)
    2384:	dd400517 	ldw	r21,20(sp)
    2388:	dd000417 	ldw	r20,16(sp)
    238c:	dcc00317 	ldw	r19,12(sp)
    2390:	dc800217 	ldw	r18,8(sp)
    2394:	dc400117 	ldw	r17,4(sp)
    2398:	dc000017 	ldw	r16,0(sp)
    239c:	dec00804 	addi	sp,sp,32
    23a0:	f800283a 	ret

000023a4 <__smakebuf_r>:
    23a4:	2880030b 	ldhu	r2,12(r5)
    23a8:	deffed04 	addi	sp,sp,-76
    23ac:	dc401015 	stw	r17,64(sp)
    23b0:	10c0008c 	andi	r3,r2,2
    23b4:	18ffffcc 	andi	r3,r3,65535
    23b8:	18e0001c 	xori	r3,r3,32768
    23bc:	dc000f15 	stw	r16,60(sp)
    23c0:	dfc01215 	stw	ra,72(sp)
    23c4:	dc801115 	stw	r18,68(sp)
    23c8:	18e00004 	addi	r3,r3,-32768
    23cc:	2821883a 	mov	r16,r5
    23d0:	2023883a 	mov	r17,r4
    23d4:	1800381e 	bne	r3,zero,24b8 <__smakebuf_r+0x114>
    23d8:	2940038f 	ldh	r5,14(r5)
    23dc:	28002d16 	blt	r5,zero,2494 <__smakebuf_r+0xf0>
    23e0:	d80d883a 	mov	r6,sp
    23e4:	00029880 	call	2988 <_fstat_r>
    23e8:	10002916 	blt	r2,zero,2490 <__smakebuf_r+0xec>
    23ec:	d8800117 	ldw	r2,4(sp)
    23f0:	00e00014 	movui	r3,32768
    23f4:	10bc000c 	andi	r2,r2,61440
    23f8:	10c03c26 	beq	r2,r3,24ec <__smakebuf_r+0x148>
    23fc:	80c0030b 	ldhu	r3,12(r16)
    2400:	18c20014 	ori	r3,r3,2048
    2404:	80c0030d 	sth	r3,12(r16)
    2408:	00c80004 	movi	r3,8192
    240c:	10c00c1e 	bne	r2,r3,2440 <__smakebuf_r+0x9c>
    2410:	8140038f 	ldh	r5,14(r16)
    2414:	8809883a 	mov	r4,r17
    2418:	00029f00 	call	29f0 <_isatty_r>
    241c:	10000826 	beq	r2,zero,2440 <__smakebuf_r+0x9c>
    2420:	80c0030b 	ldhu	r3,12(r16)
    2424:	808010c4 	addi	r2,r16,67
    2428:	80800015 	stw	r2,0(r16)
    242c:	18c00054 	ori	r3,r3,1
    2430:	80800415 	stw	r2,16(r16)
    2434:	00800044 	movi	r2,1
    2438:	80c0030d 	sth	r3,12(r16)
    243c:	80800515 	stw	r2,20(r16)
    2440:	04810004 	movi	r18,1024
    2444:	8809883a 	mov	r4,r17
    2448:	900b883a 	mov	r5,r18
    244c:	00006d80 	call	6d8 <_malloc_r>
    2450:	10003026 	beq	r2,zero,2514 <__smakebuf_r+0x170>
    2454:	80c0030b 	ldhu	r3,12(r16)
    2458:	01000034 	movhi	r4,0
    245c:	2106dc04 	addi	r4,r4,7024
    2460:	89000f15 	stw	r4,60(r17)
    2464:	18c02014 	ori	r3,r3,128
    2468:	80c0030d 	sth	r3,12(r16)
    246c:	80800015 	stw	r2,0(r16)
    2470:	80800415 	stw	r2,16(r16)
    2474:	84800515 	stw	r18,20(r16)
    2478:	dfc01217 	ldw	ra,72(sp)
    247c:	dc801117 	ldw	r18,68(sp)
    2480:	dc401017 	ldw	r17,64(sp)
    2484:	dc000f17 	ldw	r16,60(sp)
    2488:	dec01304 	addi	sp,sp,76
    248c:	f800283a 	ret
    2490:	8080030b 	ldhu	r2,12(r16)
    2494:	10c0200c 	andi	r3,r2,128
    2498:	18ffffcc 	andi	r3,r3,65535
    249c:	18e0001c 	xori	r3,r3,32768
    24a0:	18e00004 	addi	r3,r3,-32768
    24a4:	18000f1e 	bne	r3,zero,24e4 <__smakebuf_r+0x140>
    24a8:	04810004 	movi	r18,1024
    24ac:	10820014 	ori	r2,r2,2048
    24b0:	8080030d 	sth	r2,12(r16)
    24b4:	003fe306 	br	2444 <__smakebuf_r+0xa0>
    24b8:	288010c4 	addi	r2,r5,67
    24bc:	28800015 	stw	r2,0(r5)
    24c0:	28800415 	stw	r2,16(r5)
    24c4:	00800044 	movi	r2,1
    24c8:	28800515 	stw	r2,20(r5)
    24cc:	dfc01217 	ldw	ra,72(sp)
    24d0:	dc801117 	ldw	r18,68(sp)
    24d4:	dc401017 	ldw	r17,64(sp)
    24d8:	dc000f17 	ldw	r16,60(sp)
    24dc:	dec01304 	addi	sp,sp,76
    24e0:	f800283a 	ret
    24e4:	04801004 	movi	r18,64
    24e8:	003ff006 	br	24ac <__smakebuf_r+0x108>
    24ec:	81000a17 	ldw	r4,40(r16)
    24f0:	00c00034 	movhi	r3,0
    24f4:	18c9c104 	addi	r3,r3,9988
    24f8:	20ffc01e 	bne	r4,r3,23fc <__smakebuf_r+0x58>
    24fc:	8080030b 	ldhu	r2,12(r16)
    2500:	00c10004 	movi	r3,1024
    2504:	80c01315 	stw	r3,76(r16)
    2508:	10c4b03a 	or	r2,r2,r3
    250c:	8080030d 	sth	r2,12(r16)
    2510:	003fcb06 	br	2440 <__smakebuf_r+0x9c>
    2514:	8080030b 	ldhu	r2,12(r16)
    2518:	10c0800c 	andi	r3,r2,512
    251c:	18ffffcc 	andi	r3,r3,65535
    2520:	18e0001c 	xori	r3,r3,32768
    2524:	18e00004 	addi	r3,r3,-32768
    2528:	183fd31e 	bne	r3,zero,2478 <__smakebuf_r+0xd4>
    252c:	10800094 	ori	r2,r2,2
    2530:	80c010c4 	addi	r3,r16,67
    2534:	8080030d 	sth	r2,12(r16)
    2538:	00800044 	movi	r2,1
    253c:	80c00015 	stw	r3,0(r16)
    2540:	80c00415 	stw	r3,16(r16)
    2544:	80800515 	stw	r2,20(r16)
    2548:	003fcb06 	br	2478 <__smakebuf_r+0xd4>

0000254c <memset>:
    254c:	00c000c4 	movi	r3,3
    2550:	2005883a 	mov	r2,r4
    2554:	29403fcc 	andi	r5,r5,255
    2558:	19802d2e 	bgeu	r3,r6,2610 <memset+0xc4>
    255c:	20c6703a 	and	r3,r4,r3
    2560:	18002e1e 	bne	r3,zero,261c <memset+0xd0>
    2564:	2806923a 	slli	r3,r5,8
    2568:	010003c4 	movi	r4,15
    256c:	3011883a 	mov	r8,r6
    2570:	1946b03a 	or	r3,r3,r5
    2574:	180e943a 	slli	r7,r3,16
    2578:	38ceb03a 	or	r7,r7,r3
    257c:	1007883a 	mov	r3,r2
    2580:	21800f2e 	bgeu	r4,r6,25c0 <memset+0x74>
    2584:	19c00015 	stw	r7,0(r3)
    2588:	19c00115 	stw	r7,4(r3)
    258c:	19c00215 	stw	r7,8(r3)
    2590:	19c00315 	stw	r7,12(r3)
    2594:	423ffc04 	addi	r8,r8,-16
    2598:	18c00404 	addi	r3,r3,16
    259c:	223ff936 	bltu	r4,r8,2584 <memset+0x38>
    25a0:	30fffc04 	addi	r3,r6,-16
    25a4:	1806d13a 	srli	r3,r3,4
    25a8:	318003cc 	andi	r6,r6,15
    25ac:	010000c4 	movi	r4,3
    25b0:	18c00044 	addi	r3,r3,1
    25b4:	1806913a 	slli	r3,r3,4
    25b8:	10c7883a 	add	r3,r2,r3
    25bc:	21800e2e 	bgeu	r4,r6,25f8 <memset+0xac>
    25c0:	1813883a 	mov	r9,r3
    25c4:	3011883a 	mov	r8,r6
    25c8:	010000c4 	movi	r4,3
    25cc:	49c00015 	stw	r7,0(r9)
    25d0:	423fff04 	addi	r8,r8,-4
    25d4:	4a400104 	addi	r9,r9,4
    25d8:	223ffc36 	bltu	r4,r8,25cc <memset+0x80>
    25dc:	313fff04 	addi	r4,r6,-4
    25e0:	2008d0ba 	srli	r4,r4,2
    25e4:	318000cc 	andi	r6,r6,3
    25e8:	21000044 	addi	r4,r4,1
    25ec:	2109883a 	add	r4,r4,r4
    25f0:	2109883a 	add	r4,r4,r4
    25f4:	1907883a 	add	r3,r3,r4
    25f8:	30000a26 	beq	r6,zero,2624 <memset+0xd8>
    25fc:	198d883a 	add	r6,r3,r6
    2600:	19400005 	stb	r5,0(r3)
    2604:	18c00044 	addi	r3,r3,1
    2608:	19bffd1e 	bne	r3,r6,2600 <memset+0xb4>
    260c:	f800283a 	ret
    2610:	2007883a 	mov	r3,r4
    2614:	303ff91e 	bne	r6,zero,25fc <memset+0xb0>
    2618:	00000206 	br	2624 <memset+0xd8>
    261c:	2007883a 	mov	r3,r4
    2620:	003ff606 	br	25fc <memset+0xb0>
    2624:	f800283a 	ret

00002628 <__sread>:
    2628:	defffe04 	addi	sp,sp,-8
    262c:	dc000015 	stw	r16,0(sp)
    2630:	2821883a 	mov	r16,r5
    2634:	2940038f 	ldh	r5,14(r5)
    2638:	dfc00115 	stw	ra,4(sp)
    263c:	0002ac00 	call	2ac0 <_read_r>
    2640:	10000716 	blt	r2,zero,2660 <__sread+0x38>
    2644:	80c01417 	ldw	r3,80(r16)
    2648:	1887883a 	add	r3,r3,r2
    264c:	80c01415 	stw	r3,80(r16)
    2650:	dfc00117 	ldw	ra,4(sp)
    2654:	dc000017 	ldw	r16,0(sp)
    2658:	dec00204 	addi	sp,sp,8
    265c:	f800283a 	ret
    2660:	80c0030b 	ldhu	r3,12(r16)
    2664:	18fbffcc 	andi	r3,r3,61439
    2668:	80c0030d 	sth	r3,12(r16)
    266c:	dfc00117 	ldw	ra,4(sp)
    2670:	dc000017 	ldw	r16,0(sp)
    2674:	dec00204 	addi	sp,sp,8
    2678:	f800283a 	ret

0000267c <__swrite>:
    267c:	2880030b 	ldhu	r2,12(r5)
    2680:	defffb04 	addi	sp,sp,-20
    2684:	dcc00315 	stw	r19,12(sp)
    2688:	10c0400c 	andi	r3,r2,256
    268c:	18ffffcc 	andi	r3,r3,65535
    2690:	18e0001c 	xori	r3,r3,32768
    2694:	dc800215 	stw	r18,8(sp)
    2698:	dc400115 	stw	r17,4(sp)
    269c:	dc000015 	stw	r16,0(sp)
    26a0:	dfc00415 	stw	ra,16(sp)
    26a4:	18e00004 	addi	r3,r3,-32768
    26a8:	2821883a 	mov	r16,r5
    26ac:	2027883a 	mov	r19,r4
    26b0:	3025883a 	mov	r18,r6
    26b4:	3823883a 	mov	r17,r7
    26b8:	18000526 	beq	r3,zero,26d0 <__swrite+0x54>
    26bc:	2940038f 	ldh	r5,14(r5)
    26c0:	000d883a 	mov	r6,zero
    26c4:	01c00084 	movi	r7,2
    26c8:	0002a540 	call	2a54 <_lseek_r>
    26cc:	8080030b 	ldhu	r2,12(r16)
    26d0:	8140038f 	ldh	r5,14(r16)
    26d4:	10bbffcc 	andi	r2,r2,61439
    26d8:	9809883a 	mov	r4,r19
    26dc:	900d883a 	mov	r6,r18
    26e0:	880f883a 	mov	r7,r17
    26e4:	8080030d 	sth	r2,12(r16)
    26e8:	dfc00417 	ldw	ra,16(sp)
    26ec:	dcc00317 	ldw	r19,12(sp)
    26f0:	dc800217 	ldw	r18,8(sp)
    26f4:	dc400117 	ldw	r17,4(sp)
    26f8:	dc000017 	ldw	r16,0(sp)
    26fc:	dec00504 	addi	sp,sp,20
    2700:	00027681 	jmpi	2768 <_write_r>

00002704 <__sseek>:
    2704:	defffe04 	addi	sp,sp,-8
    2708:	dc000015 	stw	r16,0(sp)
    270c:	2821883a 	mov	r16,r5
    2710:	2940038f 	ldh	r5,14(r5)
    2714:	dfc00115 	stw	ra,4(sp)
    2718:	0002a540 	call	2a54 <_lseek_r>
    271c:	00ffffc4 	movi	r3,-1
    2720:	10c00826 	beq	r2,r3,2744 <__sseek+0x40>
    2724:	80c0030b 	ldhu	r3,12(r16)
    2728:	80801415 	stw	r2,80(r16)
    272c:	18c40014 	ori	r3,r3,4096
    2730:	80c0030d 	sth	r3,12(r16)
    2734:	dfc00117 	ldw	ra,4(sp)
    2738:	dc000017 	ldw	r16,0(sp)
    273c:	dec00204 	addi	sp,sp,8
    2740:	f800283a 	ret
    2744:	80c0030b 	ldhu	r3,12(r16)
    2748:	18fbffcc 	andi	r3,r3,61439
    274c:	80c0030d 	sth	r3,12(r16)
    2750:	dfc00117 	ldw	ra,4(sp)
    2754:	dc000017 	ldw	r16,0(sp)
    2758:	dec00204 	addi	sp,sp,8
    275c:	f800283a 	ret

00002760 <__sclose>:
    2760:	2940038f 	ldh	r5,14(r5)
    2764:	00027d41 	jmpi	27d4 <_close_r>

00002768 <_write_r>:
    2768:	defffd04 	addi	sp,sp,-12
    276c:	dc400115 	stw	r17,4(sp)
    2770:	dc000015 	stw	r16,0(sp)
    2774:	2023883a 	mov	r17,r4
    2778:	04000074 	movhi	r16,1
    277c:	8439b404 	addi	r16,r16,-6448
    2780:	2809883a 	mov	r4,r5
    2784:	300b883a 	mov	r5,r6
    2788:	380d883a 	mov	r6,r7
    278c:	dfc00215 	stw	ra,8(sp)
    2790:	80000015 	stw	zero,0(r16)
    2794:	00034180 	call	3418 <write>
    2798:	00ffffc4 	movi	r3,-1
    279c:	10c00526 	beq	r2,r3,27b4 <_write_r+0x4c>
    27a0:	dfc00217 	ldw	ra,8(sp)
    27a4:	dc400117 	ldw	r17,4(sp)
    27a8:	dc000017 	ldw	r16,0(sp)
    27ac:	dec00304 	addi	sp,sp,12
    27b0:	f800283a 	ret
    27b4:	80c00017 	ldw	r3,0(r16)
    27b8:	183ff926 	beq	r3,zero,27a0 <_write_r+0x38>
    27bc:	88c00015 	stw	r3,0(r17)
    27c0:	dfc00217 	ldw	ra,8(sp)
    27c4:	dc400117 	ldw	r17,4(sp)
    27c8:	dc000017 	ldw	r16,0(sp)
    27cc:	dec00304 	addi	sp,sp,12
    27d0:	f800283a 	ret

000027d4 <_close_r>:
    27d4:	defffd04 	addi	sp,sp,-12
    27d8:	dc400115 	stw	r17,4(sp)
    27dc:	dc000015 	stw	r16,0(sp)
    27e0:	2023883a 	mov	r17,r4
    27e4:	04000074 	movhi	r16,1
    27e8:	8439b404 	addi	r16,r16,-6448
    27ec:	2809883a 	mov	r4,r5
    27f0:	dfc00215 	stw	ra,8(sp)
    27f4:	80000015 	stw	zero,0(r16)
    27f8:	0002b7c0 	call	2b7c <close>
    27fc:	00ffffc4 	movi	r3,-1
    2800:	10c00526 	beq	r2,r3,2818 <_close_r+0x44>
    2804:	dfc00217 	ldw	ra,8(sp)
    2808:	dc400117 	ldw	r17,4(sp)
    280c:	dc000017 	ldw	r16,0(sp)
    2810:	dec00304 	addi	sp,sp,12
    2814:	f800283a 	ret
    2818:	80c00017 	ldw	r3,0(r16)
    281c:	183ff926 	beq	r3,zero,2804 <_close_r+0x30>
    2820:	88c00015 	stw	r3,0(r17)
    2824:	dfc00217 	ldw	ra,8(sp)
    2828:	dc400117 	ldw	r17,4(sp)
    282c:	dc000017 	ldw	r16,0(sp)
    2830:	dec00304 	addi	sp,sp,12
    2834:	f800283a 	ret

00002838 <_fclose_r>:
    2838:	defffc04 	addi	sp,sp,-16
    283c:	dc400115 	stw	r17,4(sp)
    2840:	dc000015 	stw	r16,0(sp)
    2844:	dfc00315 	stw	ra,12(sp)
    2848:	dc800215 	stw	r18,8(sp)
    284c:	2821883a 	mov	r16,r5
    2850:	2023883a 	mov	r17,r4
    2854:	28003426 	beq	r5,zero,2928 <_fclose_r+0xf0>
    2858:	0001df80 	call	1df8 <__sfp_lock_acquire>
    285c:	88000226 	beq	r17,zero,2868 <_fclose_r+0x30>
    2860:	88800e17 	ldw	r2,56(r17)
    2864:	10003826 	beq	r2,zero,2948 <_fclose_r+0x110>
    2868:	8080030f 	ldh	r2,12(r16)
    286c:	10002526 	beq	r2,zero,2904 <_fclose_r+0xcc>
    2870:	8809883a 	mov	r4,r17
    2874:	800b883a 	mov	r5,r16
    2878:	00019480 	call	1948 <_fflush_r>
    287c:	1025883a 	mov	r18,r2
    2880:	80800b17 	ldw	r2,44(r16)
    2884:	10000426 	beq	r2,zero,2898 <_fclose_r+0x60>
    2888:	81400717 	ldw	r5,28(r16)
    288c:	8809883a 	mov	r4,r17
    2890:	103ee83a 	callr	r2
    2894:	10003516 	blt	r2,zero,296c <_fclose_r+0x134>
    2898:	8080030b 	ldhu	r2,12(r16)
    289c:	1080200c 	andi	r2,r2,128
    28a0:	10bfffcc 	andi	r2,r2,65535
    28a4:	10a0001c 	xori	r2,r2,32768
    28a8:	10a00004 	addi	r2,r2,-32768
    28ac:	10002b1e 	bne	r2,zero,295c <_fclose_r+0x124>
    28b0:	81400c17 	ldw	r5,48(r16)
    28b4:	28000526 	beq	r5,zero,28cc <_fclose_r+0x94>
    28b8:	80801004 	addi	r2,r16,64
    28bc:	28800226 	beq	r5,r2,28c8 <_fclose_r+0x90>
    28c0:	8809883a 	mov	r4,r17
    28c4:	0001f740 	call	1f74 <_free_r>
    28c8:	80000c15 	stw	zero,48(r16)
    28cc:	81401117 	ldw	r5,68(r16)
    28d0:	28000326 	beq	r5,zero,28e0 <_fclose_r+0xa8>
    28d4:	8809883a 	mov	r4,r17
    28d8:	0001f740 	call	1f74 <_free_r>
    28dc:	80001115 	stw	zero,68(r16)
    28e0:	8000030d 	sth	zero,12(r16)
    28e4:	0001dfc0 	call	1dfc <__sfp_lock_release>
    28e8:	9005883a 	mov	r2,r18
    28ec:	dfc00317 	ldw	ra,12(sp)
    28f0:	dc800217 	ldw	r18,8(sp)
    28f4:	dc400117 	ldw	r17,4(sp)
    28f8:	dc000017 	ldw	r16,0(sp)
    28fc:	dec00404 	addi	sp,sp,16
    2900:	f800283a 	ret
    2904:	0001dfc0 	call	1dfc <__sfp_lock_release>
    2908:	0025883a 	mov	r18,zero
    290c:	9005883a 	mov	r2,r18
    2910:	dfc00317 	ldw	ra,12(sp)
    2914:	dc800217 	ldw	r18,8(sp)
    2918:	dc400117 	ldw	r17,4(sp)
    291c:	dc000017 	ldw	r16,0(sp)
    2920:	dec00404 	addi	sp,sp,16
    2924:	f800283a 	ret
    2928:	0025883a 	mov	r18,zero
    292c:	9005883a 	mov	r2,r18
    2930:	dfc00317 	ldw	ra,12(sp)
    2934:	dc800217 	ldw	r18,8(sp)
    2938:	dc400117 	ldw	r17,4(sp)
    293c:	dc000017 	ldw	r16,0(sp)
    2940:	dec00404 	addi	sp,sp,16
    2944:	f800283a 	ret
    2948:	8809883a 	mov	r4,r17
    294c:	0001bf00 	call	1bf0 <__sinit>
    2950:	8080030f 	ldh	r2,12(r16)
    2954:	103fc61e 	bne	r2,zero,2870 <_fclose_r+0x38>
    2958:	003fea06 	br	2904 <_fclose_r+0xcc>
    295c:	81400417 	ldw	r5,16(r16)
    2960:	8809883a 	mov	r4,r17
    2964:	0001f740 	call	1f74 <_free_r>
    2968:	003fd106 	br	28b0 <_fclose_r+0x78>
    296c:	04bfffc4 	movi	r18,-1
    2970:	003fc906 	br	2898 <_fclose_r+0x60>

00002974 <fclose>:
    2974:	00800074 	movhi	r2,1
    2978:	10b1b804 	addi	r2,r2,-14624
    297c:	200b883a 	mov	r5,r4
    2980:	11000017 	ldw	r4,0(r2)
    2984:	00028381 	jmpi	2838 <_fclose_r>

00002988 <_fstat_r>:
    2988:	defffd04 	addi	sp,sp,-12
    298c:	dc400115 	stw	r17,4(sp)
    2990:	dc000015 	stw	r16,0(sp)
    2994:	2023883a 	mov	r17,r4
    2998:	04000074 	movhi	r16,1
    299c:	8439b404 	addi	r16,r16,-6448
    29a0:	2809883a 	mov	r4,r5
    29a4:	300b883a 	mov	r5,r6
    29a8:	dfc00215 	stw	ra,8(sp)
    29ac:	80000015 	stw	zero,0(r16)
    29b0:	0002cc00 	call	2cc0 <fstat>
    29b4:	00ffffc4 	movi	r3,-1
    29b8:	10c00526 	beq	r2,r3,29d0 <_fstat_r+0x48>
    29bc:	dfc00217 	ldw	ra,8(sp)
    29c0:	dc400117 	ldw	r17,4(sp)
    29c4:	dc000017 	ldw	r16,0(sp)
    29c8:	dec00304 	addi	sp,sp,12
    29cc:	f800283a 	ret
    29d0:	80c00017 	ldw	r3,0(r16)
    29d4:	183ff926 	beq	r3,zero,29bc <_fstat_r+0x34>
    29d8:	88c00015 	stw	r3,0(r17)
    29dc:	dfc00217 	ldw	ra,8(sp)
    29e0:	dc400117 	ldw	r17,4(sp)
    29e4:	dc000017 	ldw	r16,0(sp)
    29e8:	dec00304 	addi	sp,sp,12
    29ec:	f800283a 	ret

000029f0 <_isatty_r>:
    29f0:	defffd04 	addi	sp,sp,-12
    29f4:	dc400115 	stw	r17,4(sp)
    29f8:	dc000015 	stw	r16,0(sp)
    29fc:	2023883a 	mov	r17,r4
    2a00:	04000074 	movhi	r16,1
    2a04:	8439b404 	addi	r16,r16,-6448
    2a08:	2809883a 	mov	r4,r5
    2a0c:	dfc00215 	stw	ra,8(sp)
    2a10:	80000015 	stw	zero,0(r16)
    2a14:	0002dbc0 	call	2dbc <isatty>
    2a18:	00ffffc4 	movi	r3,-1
    2a1c:	10c00526 	beq	r2,r3,2a34 <_isatty_r+0x44>
    2a20:	dfc00217 	ldw	ra,8(sp)
    2a24:	dc400117 	ldw	r17,4(sp)
    2a28:	dc000017 	ldw	r16,0(sp)
    2a2c:	dec00304 	addi	sp,sp,12
    2a30:	f800283a 	ret
    2a34:	80c00017 	ldw	r3,0(r16)
    2a38:	183ff926 	beq	r3,zero,2a20 <_isatty_r+0x30>
    2a3c:	88c00015 	stw	r3,0(r17)
    2a40:	dfc00217 	ldw	ra,8(sp)
    2a44:	dc400117 	ldw	r17,4(sp)
    2a48:	dc000017 	ldw	r16,0(sp)
    2a4c:	dec00304 	addi	sp,sp,12
    2a50:	f800283a 	ret

00002a54 <_lseek_r>:
    2a54:	defffd04 	addi	sp,sp,-12
    2a58:	dc400115 	stw	r17,4(sp)
    2a5c:	dc000015 	stw	r16,0(sp)
    2a60:	2023883a 	mov	r17,r4
    2a64:	04000074 	movhi	r16,1
    2a68:	8439b404 	addi	r16,r16,-6448
    2a6c:	2809883a 	mov	r4,r5
    2a70:	300b883a 	mov	r5,r6
    2a74:	380d883a 	mov	r6,r7
    2a78:	dfc00215 	stw	ra,8(sp)
    2a7c:	80000015 	stw	zero,0(r16)
    2a80:	0002f980 	call	2f98 <lseek>
    2a84:	00ffffc4 	movi	r3,-1
    2a88:	10c00526 	beq	r2,r3,2aa0 <_lseek_r+0x4c>
    2a8c:	dfc00217 	ldw	ra,8(sp)
    2a90:	dc400117 	ldw	r17,4(sp)
    2a94:	dc000017 	ldw	r16,0(sp)
    2a98:	dec00304 	addi	sp,sp,12
    2a9c:	f800283a 	ret
    2aa0:	80c00017 	ldw	r3,0(r16)
    2aa4:	183ff926 	beq	r3,zero,2a8c <_lseek_r+0x38>
    2aa8:	88c00015 	stw	r3,0(r17)
    2aac:	dfc00217 	ldw	ra,8(sp)
    2ab0:	dc400117 	ldw	r17,4(sp)
    2ab4:	dc000017 	ldw	r16,0(sp)
    2ab8:	dec00304 	addi	sp,sp,12
    2abc:	f800283a 	ret

00002ac0 <_read_r>:
    2ac0:	defffd04 	addi	sp,sp,-12
    2ac4:	dc400115 	stw	r17,4(sp)
    2ac8:	dc000015 	stw	r16,0(sp)
    2acc:	2023883a 	mov	r17,r4
    2ad0:	04000074 	movhi	r16,1
    2ad4:	8439b404 	addi	r16,r16,-6448
    2ad8:	2809883a 	mov	r4,r5
    2adc:	300b883a 	mov	r5,r6
    2ae0:	380d883a 	mov	r6,r7
    2ae4:	dfc00215 	stw	ra,8(sp)
    2ae8:	80000015 	stw	zero,0(r16)
    2aec:	00031700 	call	3170 <read>
    2af0:	00ffffc4 	movi	r3,-1
    2af4:	10c00526 	beq	r2,r3,2b0c <_read_r+0x4c>
    2af8:	dfc00217 	ldw	ra,8(sp)
    2afc:	dc400117 	ldw	r17,4(sp)
    2b00:	dc000017 	ldw	r16,0(sp)
    2b04:	dec00304 	addi	sp,sp,12
    2b08:	f800283a 	ret
    2b0c:	80c00017 	ldw	r3,0(r16)
    2b10:	183ff926 	beq	r3,zero,2af8 <_read_r+0x38>
    2b14:	88c00015 	stw	r3,0(r17)
    2b18:	dfc00217 	ldw	ra,8(sp)
    2b1c:	dc400117 	ldw	r17,4(sp)
    2b20:	dc000017 	ldw	r16,0(sp)
    2b24:	dec00304 	addi	sp,sp,12
    2b28:	f800283a 	ret

00002b2c <alt_get_errno>:
#undef errno

extern int errno;

static ALT_INLINE int* alt_get_errno(void)
{
    2b2c:	defffe04 	addi	sp,sp,-8
    2b30:	dfc00115 	stw	ra,4(sp)
    2b34:	df000015 	stw	fp,0(sp)
    2b38:	d839883a 	mov	fp,sp
  return ((alt_errno) ? alt_errno() : &errno);
    2b3c:	00800074 	movhi	r2,1
    2b40:	10b1c004 	addi	r2,r2,-14592
    2b44:	10800017 	ldw	r2,0(r2)
    2b48:	10000526 	beq	r2,zero,2b60 <alt_get_errno+0x34>
    2b4c:	00800074 	movhi	r2,1
    2b50:	10b1c004 	addi	r2,r2,-14592
    2b54:	10800017 	ldw	r2,0(r2)
    2b58:	103ee83a 	callr	r2
    2b5c:	00000206 	br	2b68 <alt_get_errno+0x3c>
    2b60:	00800074 	movhi	r2,1
    2b64:	10b9b404 	addi	r2,r2,-6448
}
    2b68:	e037883a 	mov	sp,fp
    2b6c:	dfc00117 	ldw	ra,4(sp)
    2b70:	df000017 	ldw	fp,0(sp)
    2b74:	dec00204 	addi	sp,sp,8
    2b78:	f800283a 	ret

00002b7c <close>:
 *
 * ALT_CLOSE is mapped onto the close() system call in alt_syscall.h
 */
 
int ALT_CLOSE (int fildes)
{
    2b7c:	defffb04 	addi	sp,sp,-20
    2b80:	dfc00415 	stw	ra,16(sp)
    2b84:	df000315 	stw	fp,12(sp)
    2b88:	df000304 	addi	fp,sp,12
    2b8c:	e13fff15 	stw	r4,-4(fp)
   * A common error case is that when the file descriptor was created, the call
   * to open() failed resulting in a negative file descriptor. This is trapped
   * below so that we don't try and process an invalid file descriptor.
   */

  fd = (fildes < 0) ? NULL : &alt_fd_list[fildes];
    2b90:	e0bfff17 	ldw	r2,-4(fp)
    2b94:	10000616 	blt	r2,zero,2bb0 <close+0x34>
    2b98:	e0bfff17 	ldw	r2,-4(fp)
    2b9c:	10c00324 	muli	r3,r2,12
    2ba0:	00800074 	movhi	r2,1
    2ba4:	10abef04 	addi	r2,r2,-20548
    2ba8:	1885883a 	add	r2,r3,r2
    2bac:	00000106 	br	2bb4 <close+0x38>
    2bb0:	0005883a 	mov	r2,zero
    2bb4:	e0bffd15 	stw	r2,-12(fp)

  if (fd)
    2bb8:	e0bffd17 	ldw	r2,-12(fp)
    2bbc:	10001826 	beq	r2,zero,2c20 <close+0xa4>
    /*
     * If the associated file system/device has a close function, call it so 
     * that any necessary cleanup code can run.
     */

    rval = (fd->dev->close) ? fd->dev->close(fd) : 0;
    2bc0:	e0bffd17 	ldw	r2,-12(fp)
    2bc4:	10800017 	ldw	r2,0(r2)
    2bc8:	10800417 	ldw	r2,16(r2)
    2bcc:	10000626 	beq	r2,zero,2be8 <close+0x6c>
    2bd0:	e0bffd17 	ldw	r2,-12(fp)
    2bd4:	10800017 	ldw	r2,0(r2)
    2bd8:	10800417 	ldw	r2,16(r2)
    2bdc:	e13ffd17 	ldw	r4,-12(fp)
    2be0:	103ee83a 	callr	r2
    2be4:	00000106 	br	2bec <close+0x70>
    2be8:	0005883a 	mov	r2,zero
    2bec:	e0bffe15 	stw	r2,-8(fp)

    /* Free the file descriptor structure and return. */

    alt_release_fd (fildes);
    2bf0:	e13fff17 	ldw	r4,-4(fp)
    2bf4:	00032600 	call	3260 <alt_release_fd>
    if (rval < 0)
    2bf8:	e0bffe17 	ldw	r2,-8(fp)
    2bfc:	1000060e 	bge	r2,zero,2c18 <close+0x9c>
    {
      ALT_ERRNO = -rval;
    2c00:	0002b2c0 	call	2b2c <alt_get_errno>
    2c04:	e0fffe17 	ldw	r3,-8(fp)
    2c08:	00c7c83a 	sub	r3,zero,r3
    2c0c:	10c00015 	stw	r3,0(r2)
      return -1;
    2c10:	00bfffc4 	movi	r2,-1
    2c14:	00000606 	br	2c30 <close+0xb4>
    }
    return 0;
    2c18:	0005883a 	mov	r2,zero
    2c1c:	00000406 	br	2c30 <close+0xb4>
  }
  else
  {
    ALT_ERRNO = EBADFD;
    2c20:	0002b2c0 	call	2b2c <alt_get_errno>
    2c24:	00c01444 	movi	r3,81
    2c28:	10c00015 	stw	r3,0(r2)
    return -1;
    2c2c:	00bfffc4 	movi	r2,-1
  }
}
    2c30:	e037883a 	mov	sp,fp
    2c34:	dfc00117 	ldw	ra,4(sp)
    2c38:	df000017 	ldw	fp,0(sp)
    2c3c:	dec00204 	addi	sp,sp,8
    2c40:	f800283a 	ret

00002c44 <alt_dev_null_write>:
 * by the alt_dev_null device. It simple discards all data passed to it, and
 * indicates that the data has been successfully transmitted.
 */

static int alt_dev_null_write (alt_fd* fd, const char* ptr, int len)
{
    2c44:	defffc04 	addi	sp,sp,-16
    2c48:	df000315 	stw	fp,12(sp)
    2c4c:	df000304 	addi	fp,sp,12
    2c50:	e13ffd15 	stw	r4,-12(fp)
    2c54:	e17ffe15 	stw	r5,-8(fp)
    2c58:	e1bfff15 	stw	r6,-4(fp)
  return len;
    2c5c:	e0bfff17 	ldw	r2,-4(fp)
}
    2c60:	e037883a 	mov	sp,fp
    2c64:	df000017 	ldw	fp,0(sp)
    2c68:	dec00104 	addi	sp,sp,4
    2c6c:	f800283a 	ret

00002c70 <alt_get_errno>:
#undef errno

extern int errno;

static ALT_INLINE int* alt_get_errno(void)
{
    2c70:	defffe04 	addi	sp,sp,-8
    2c74:	dfc00115 	stw	ra,4(sp)
    2c78:	df000015 	stw	fp,0(sp)
    2c7c:	d839883a 	mov	fp,sp
  return ((alt_errno) ? alt_errno() : &errno);
    2c80:	00800074 	movhi	r2,1
    2c84:	10b1c004 	addi	r2,r2,-14592
    2c88:	10800017 	ldw	r2,0(r2)
    2c8c:	10000526 	beq	r2,zero,2ca4 <alt_get_errno+0x34>
    2c90:	00800074 	movhi	r2,1
    2c94:	10b1c004 	addi	r2,r2,-14592
    2c98:	10800017 	ldw	r2,0(r2)
    2c9c:	103ee83a 	callr	r2
    2ca0:	00000206 	br	2cac <alt_get_errno+0x3c>
    2ca4:	00800074 	movhi	r2,1
    2ca8:	10b9b404 	addi	r2,r2,-6448
}
    2cac:	e037883a 	mov	sp,fp
    2cb0:	dfc00117 	ldw	ra,4(sp)
    2cb4:	df000017 	ldw	fp,0(sp)
    2cb8:	dec00204 	addi	sp,sp,8
    2cbc:	f800283a 	ret

00002cc0 <fstat>:
}

#else /* !ALT_USE_DIRECT_DRIVERS */

int ALT_FSTAT (int file, struct stat *st)
{
    2cc0:	defffb04 	addi	sp,sp,-20
    2cc4:	dfc00415 	stw	ra,16(sp)
    2cc8:	df000315 	stw	fp,12(sp)
    2ccc:	df000304 	addi	fp,sp,12
    2cd0:	e13ffe15 	stw	r4,-8(fp)
    2cd4:	e17fff15 	stw	r5,-4(fp)
   * A common error case is that when the file descriptor was created, the call
   * to open() failed resulting in a negative file descriptor. This is trapped
   * below so that we don't try and process an invalid file descriptor.
   */

  fd = (file < 0) ? NULL : &alt_fd_list[file];
    2cd8:	e0bffe17 	ldw	r2,-8(fp)
    2cdc:	10000616 	blt	r2,zero,2cf8 <fstat+0x38>
    2ce0:	e0bffe17 	ldw	r2,-8(fp)
    2ce4:	10c00324 	muli	r3,r2,12
    2ce8:	00800074 	movhi	r2,1
    2cec:	10abef04 	addi	r2,r2,-20548
    2cf0:	1885883a 	add	r2,r3,r2
    2cf4:	00000106 	br	2cfc <fstat+0x3c>
    2cf8:	0005883a 	mov	r2,zero
    2cfc:	e0bffd15 	stw	r2,-12(fp)
  
  if (fd)
    2d00:	e0bffd17 	ldw	r2,-12(fp)
    2d04:	10001026 	beq	r2,zero,2d48 <fstat+0x88>
  {
    /* Call the drivers fstat() function to fill out the "st" structure. */

    if (fd->dev->fstat)
    2d08:	e0bffd17 	ldw	r2,-12(fp)
    2d0c:	10800017 	ldw	r2,0(r2)
    2d10:	10800817 	ldw	r2,32(r2)
    2d14:	10000726 	beq	r2,zero,2d34 <fstat+0x74>
    {
      return fd->dev->fstat(fd, st);
    2d18:	e0bffd17 	ldw	r2,-12(fp)
    2d1c:	10800017 	ldw	r2,0(r2)
    2d20:	10800817 	ldw	r2,32(r2)
    2d24:	e13ffd17 	ldw	r4,-12(fp)
    2d28:	e17fff17 	ldw	r5,-4(fp)
    2d2c:	103ee83a 	callr	r2
    2d30:	00000906 	br	2d58 <fstat+0x98>
     * device.
     */
 
    else
    {
      st->st_mode = _IFCHR;
    2d34:	e0bfff17 	ldw	r2,-4(fp)
    2d38:	00c80004 	movi	r3,8192
    2d3c:	10c00115 	stw	r3,4(r2)
      return 0;
    2d40:	0005883a 	mov	r2,zero
    2d44:	00000406 	br	2d58 <fstat+0x98>
    }
  }
  else
  {
    ALT_ERRNO = EBADFD;
    2d48:	0002c700 	call	2c70 <alt_get_errno>
    2d4c:	00c01444 	movi	r3,81
    2d50:	10c00015 	stw	r3,0(r2)
    return -1;
    2d54:	00bfffc4 	movi	r2,-1
  }
}
    2d58:	e037883a 	mov	sp,fp
    2d5c:	dfc00117 	ldw	ra,4(sp)
    2d60:	df000017 	ldw	fp,0(sp)
    2d64:	dec00204 	addi	sp,sp,8
    2d68:	f800283a 	ret

00002d6c <alt_get_errno>:
#undef errno

extern int errno;

static ALT_INLINE int* alt_get_errno(void)
{
    2d6c:	defffe04 	addi	sp,sp,-8
    2d70:	dfc00115 	stw	ra,4(sp)
    2d74:	df000015 	stw	fp,0(sp)
    2d78:	d839883a 	mov	fp,sp
  return ((alt_errno) ? alt_errno() : &errno);
    2d7c:	00800074 	movhi	r2,1
    2d80:	10b1c004 	addi	r2,r2,-14592
    2d84:	10800017 	ldw	r2,0(r2)
    2d88:	10000526 	beq	r2,zero,2da0 <alt_get_errno+0x34>
    2d8c:	00800074 	movhi	r2,1
    2d90:	10b1c004 	addi	r2,r2,-14592
    2d94:	10800017 	ldw	r2,0(r2)
    2d98:	103ee83a 	callr	r2
    2d9c:	00000206 	br	2da8 <alt_get_errno+0x3c>
    2da0:	00800074 	movhi	r2,1
    2da4:	10b9b404 	addi	r2,r2,-6448
}
    2da8:	e037883a 	mov	sp,fp
    2dac:	dfc00117 	ldw	ra,4(sp)
    2db0:	df000017 	ldw	fp,0(sp)
    2db4:	dec00204 	addi	sp,sp,8
    2db8:	f800283a 	ret

00002dbc <isatty>:
 *
 * ALT_ISATTY is mapped onto the isatty() system call in alt_syscall.h
 */
 
int ALT_ISATTY (int file)
{
    2dbc:	deffed04 	addi	sp,sp,-76
    2dc0:	dfc01215 	stw	ra,72(sp)
    2dc4:	df001115 	stw	fp,68(sp)
    2dc8:	df001104 	addi	fp,sp,68
    2dcc:	e13fff15 	stw	r4,-4(fp)
   * A common error case is that when the file descriptor was created, the call
   * to open() failed resulting in a negative file descriptor. This is trapped
   * below so that we don't try and process an invalid file descriptor.
   */

  fd = (file < 0) ? NULL : &alt_fd_list[file];
    2dd0:	e0bfff17 	ldw	r2,-4(fp)
    2dd4:	10000616 	blt	r2,zero,2df0 <isatty+0x34>
    2dd8:	e0bfff17 	ldw	r2,-4(fp)
    2ddc:	10c00324 	muli	r3,r2,12
    2de0:	00800074 	movhi	r2,1
    2de4:	10abef04 	addi	r2,r2,-20548
    2de8:	1885883a 	add	r2,r3,r2
    2dec:	00000106 	br	2df4 <isatty+0x38>
    2df0:	0005883a 	mov	r2,zero
    2df4:	e0bfef15 	stw	r2,-68(fp)
  
  if (fd)
    2df8:	e0bfef17 	ldw	r2,-68(fp)
    2dfc:	10000e26 	beq	r2,zero,2e38 <isatty+0x7c>
    /*
     * If a device driver does not provide an fstat() function, then it is 
     * treated as a terminal device by default.
     */

    if (!fd->dev->fstat)
    2e00:	e0bfef17 	ldw	r2,-68(fp)
    2e04:	10800017 	ldw	r2,0(r2)
    2e08:	10800817 	ldw	r2,32(r2)
    2e0c:	1000021e 	bne	r2,zero,2e18 <isatty+0x5c>
    {
      return 1;
    2e10:	00800044 	movi	r2,1
    2e14:	00000c06 	br	2e48 <isatty+0x8c>
     * this is called so that the device can identify itself.
     */ 

    else
    {
      fstat (file, &stat);
    2e18:	e0bff004 	addi	r2,fp,-64
    2e1c:	e13fff17 	ldw	r4,-4(fp)
    2e20:	100b883a 	mov	r5,r2
    2e24:	0002cc00 	call	2cc0 <fstat>
      return (stat.st_mode == _IFCHR) ? 1 : 0;
    2e28:	e0bff117 	ldw	r2,-60(fp)
    2e2c:	10880020 	cmpeqi	r2,r2,8192
    2e30:	10803fcc 	andi	r2,r2,255
    2e34:	00000406 	br	2e48 <isatty+0x8c>
    }
  }
  else
  {
    ALT_ERRNO = EBADFD;
    2e38:	0002d6c0 	call	2d6c <alt_get_errno>
    2e3c:	00c01444 	movi	r3,81
    2e40:	10c00015 	stw	r3,0(r2)
    return 0;
    2e44:	0005883a 	mov	r2,zero
  }
}
    2e48:	e037883a 	mov	sp,fp
    2e4c:	dfc00117 	ldw	ra,4(sp)
    2e50:	df000017 	ldw	fp,0(sp)
    2e54:	dec00204 	addi	sp,sp,8
    2e58:	f800283a 	ret

00002e5c <alt_load_section>:
 */

static void ALT_INLINE alt_load_section (alt_u32* from, 
                                         alt_u32* to, 
                                         alt_u32* end)
{
    2e5c:	defffc04 	addi	sp,sp,-16
    2e60:	df000315 	stw	fp,12(sp)
    2e64:	df000304 	addi	fp,sp,12
    2e68:	e13ffd15 	stw	r4,-12(fp)
    2e6c:	e17ffe15 	stw	r5,-8(fp)
    2e70:	e1bfff15 	stw	r6,-4(fp)
  if (to != from)
    2e74:	e0fffe17 	ldw	r3,-8(fp)
    2e78:	e0bffd17 	ldw	r2,-12(fp)
    2e7c:	18800e26 	beq	r3,r2,2eb8 <alt_load_section+0x5c>
  {
    while( to != end )
    2e80:	00000a06 	br	2eac <alt_load_section+0x50>
    {
      *to++ = *from++;
    2e84:	e0bffd17 	ldw	r2,-12(fp)
    2e88:	10c00017 	ldw	r3,0(r2)
    2e8c:	e0bffe17 	ldw	r2,-8(fp)
    2e90:	10c00015 	stw	r3,0(r2)
    2e94:	e0bffe17 	ldw	r2,-8(fp)
    2e98:	10800104 	addi	r2,r2,4
    2e9c:	e0bffe15 	stw	r2,-8(fp)
    2ea0:	e0bffd17 	ldw	r2,-12(fp)
    2ea4:	10800104 	addi	r2,r2,4
    2ea8:	e0bffd15 	stw	r2,-12(fp)
                                         alt_u32* to, 
                                         alt_u32* end)
{
  if (to != from)
  {
    while( to != end )
    2eac:	e0fffe17 	ldw	r3,-8(fp)
    2eb0:	e0bfff17 	ldw	r2,-4(fp)
    2eb4:	18bff31e 	bne	r3,r2,2e84 <alt_load_section+0x28>
    {
      *to++ = *from++;
    }
  }
}
    2eb8:	e037883a 	mov	sp,fp
    2ebc:	df000017 	ldw	fp,0(sp)
    2ec0:	dec00104 	addi	sp,sp,4
    2ec4:	f800283a 	ret

00002ec8 <alt_load>:
 * there is no bootloader, so this application is responsible for loading to
 * RAM any sections that are required.
 */  

void alt_load (void)
{
    2ec8:	defffe04 	addi	sp,sp,-8
    2ecc:	dfc00115 	stw	ra,4(sp)
    2ed0:	df000015 	stw	fp,0(sp)
    2ed4:	d839883a 	mov	fp,sp
  /* 
   * Copy the .rwdata section. 
   */

  alt_load_section (&__flash_rwdata_start, 
    2ed8:	01000074 	movhi	r4,1
    2edc:	2131ca04 	addi	r4,r4,-14552
    2ee0:	01400074 	movhi	r5,1
    2ee4:	2969e304 	addi	r5,r5,-22644
    2ee8:	01800074 	movhi	r6,1
    2eec:	31b1ca04 	addi	r6,r6,-14552
    2ef0:	0002e5c0 	call	2e5c <alt_load_section>

  /*
   * Copy the exception handler.
   */

  alt_load_section (&__flash_exceptions_start, 
    2ef4:	01000034 	movhi	r4,0
    2ef8:	21000804 	addi	r4,r4,32
    2efc:	01400034 	movhi	r5,0
    2f00:	29400804 	addi	r5,r5,32
    2f04:	01800034 	movhi	r6,0
    2f08:	31800804 	addi	r6,r6,32
    2f0c:	0002e5c0 	call	2e5c <alt_load_section>

  /*
   * Copy the .rodata section.
   */

  alt_load_section (&__flash_rodata_start, 
    2f10:	01000074 	movhi	r4,1
    2f14:	21291004 	addi	r4,r4,-23488
    2f18:	01400074 	movhi	r5,1
    2f1c:	29691004 	addi	r5,r5,-23488
    2f20:	01800074 	movhi	r6,1
    2f24:	31a9e304 	addi	r6,r6,-22644
    2f28:	0002e5c0 	call	2e5c <alt_load_section>
  
  /*
   * Now ensure that the caches are in synch.
   */
  
  alt_dcache_flush_all();
    2f2c:	0008b3c0 	call	8b3c <alt_dcache_flush_all>
  alt_icache_flush_all();
    2f30:	0008e480 	call	8e48 <alt_icache_flush_all>
}
    2f34:	e037883a 	mov	sp,fp
    2f38:	dfc00117 	ldw	ra,4(sp)
    2f3c:	df000017 	ldw	fp,0(sp)
    2f40:	dec00204 	addi	sp,sp,8
    2f44:	f800283a 	ret

00002f48 <alt_get_errno>:
#undef errno

extern int errno;

static ALT_INLINE int* alt_get_errno(void)
{
    2f48:	defffe04 	addi	sp,sp,-8
    2f4c:	dfc00115 	stw	ra,4(sp)
    2f50:	df000015 	stw	fp,0(sp)
    2f54:	d839883a 	mov	fp,sp
  return ((alt_errno) ? alt_errno() : &errno);
    2f58:	00800074 	movhi	r2,1
    2f5c:	10b1c004 	addi	r2,r2,-14592
    2f60:	10800017 	ldw	r2,0(r2)
    2f64:	10000526 	beq	r2,zero,2f7c <alt_get_errno+0x34>
    2f68:	00800074 	movhi	r2,1
    2f6c:	10b1c004 	addi	r2,r2,-14592
    2f70:	10800017 	ldw	r2,0(r2)
    2f74:	103ee83a 	callr	r2
    2f78:	00000206 	br	2f84 <alt_get_errno+0x3c>
    2f7c:	00800074 	movhi	r2,1
    2f80:	10b9b404 	addi	r2,r2,-6448
}
    2f84:	e037883a 	mov	sp,fp
    2f88:	dfc00117 	ldw	ra,4(sp)
    2f8c:	df000017 	ldw	fp,0(sp)
    2f90:	dec00204 	addi	sp,sp,8
    2f94:	f800283a 	ret

00002f98 <lseek>:
 * ALT_LSEEK is mapped onto the lseek() system call in alt_syscall.h
 *
 */

off_t ALT_LSEEK (int file, off_t ptr, int dir)
{
    2f98:	defff904 	addi	sp,sp,-28
    2f9c:	dfc00615 	stw	ra,24(sp)
    2fa0:	df000515 	stw	fp,20(sp)
    2fa4:	df000504 	addi	fp,sp,20
    2fa8:	e13ffd15 	stw	r4,-12(fp)
    2fac:	e17ffe15 	stw	r5,-8(fp)
    2fb0:	e1bfff15 	stw	r6,-4(fp)
  alt_fd* fd;
  off_t   rc = 0; 
    2fb4:	e03ffb15 	stw	zero,-20(fp)
   * A common error case is that when the file descriptor was created, the call
   * to open() failed resulting in a negative file descriptor. This is trapped
   * below so that we don't try and process an invalid file descriptor.
   */

  fd = (file < 0) ? NULL : &alt_fd_list[file];
    2fb8:	e0bffd17 	ldw	r2,-12(fp)
    2fbc:	10000616 	blt	r2,zero,2fd8 <lseek+0x40>
    2fc0:	e0bffd17 	ldw	r2,-12(fp)
    2fc4:	10c00324 	muli	r3,r2,12
    2fc8:	00800074 	movhi	r2,1
    2fcc:	10abef04 	addi	r2,r2,-20548
    2fd0:	1885883a 	add	r2,r3,r2
    2fd4:	00000106 	br	2fdc <lseek+0x44>
    2fd8:	0005883a 	mov	r2,zero
    2fdc:	e0bffc15 	stw	r2,-16(fp)
  
  if (fd) 
    2fe0:	e0bffc17 	ldw	r2,-16(fp)
    2fe4:	10001026 	beq	r2,zero,3028 <lseek+0x90>
    /*
     * If the device driver provides an implementation of the lseek() function,
     * then call that to process the request.
     */
 
    if (fd->dev->lseek)
    2fe8:	e0bffc17 	ldw	r2,-16(fp)
    2fec:	10800017 	ldw	r2,0(r2)
    2ff0:	10800717 	ldw	r2,28(r2)
    2ff4:	10000926 	beq	r2,zero,301c <lseek+0x84>
    {
      rc = fd->dev->lseek(fd, ptr, dir);
    2ff8:	e0bffc17 	ldw	r2,-16(fp)
    2ffc:	10800017 	ldw	r2,0(r2)
    3000:	10800717 	ldw	r2,28(r2)
    3004:	e13ffc17 	ldw	r4,-16(fp)
    3008:	e17ffe17 	ldw	r5,-8(fp)
    300c:	e1bfff17 	ldw	r6,-4(fp)
    3010:	103ee83a 	callr	r2
    3014:	e0bffb15 	stw	r2,-20(fp)
    3018:	00000506 	br	3030 <lseek+0x98>
     * Otherwise return an error.
     */

    else
    {
      rc = -ENOTSUP;
    301c:	00bfde84 	movi	r2,-134
    3020:	e0bffb15 	stw	r2,-20(fp)
    3024:	00000206 	br	3030 <lseek+0x98>
    }
  }
  else  
  {
    rc = -EBADFD;
    3028:	00bfebc4 	movi	r2,-81
    302c:	e0bffb15 	stw	r2,-20(fp)
  }

  if (rc < 0)
    3030:	e0bffb17 	ldw	r2,-20(fp)
    3034:	1000060e 	bge	r2,zero,3050 <lseek+0xb8>
  {
    ALT_ERRNO = -rc;
    3038:	0002f480 	call	2f48 <alt_get_errno>
    303c:	e0fffb17 	ldw	r3,-20(fp)
    3040:	00c7c83a 	sub	r3,zero,r3
    3044:	10c00015 	stw	r3,0(r2)
    rc = -1;
    3048:	00bfffc4 	movi	r2,-1
    304c:	e0bffb15 	stw	r2,-20(fp)
  }

  return rc;
    3050:	e0bffb17 	ldw	r2,-20(fp)
}
    3054:	e037883a 	mov	sp,fp
    3058:	dfc00117 	ldw	ra,4(sp)
    305c:	df000017 	ldw	fp,0(sp)
    3060:	dec00204 	addi	sp,sp,8
    3064:	f800283a 	ret

00003068 <alt_main>:
 * devices/filesystems/components in the system; and call the entry point for
 * the users application, i.e. main().
 */

void alt_main (void)
{
    3068:	defffd04 	addi	sp,sp,-12
    306c:	dfc00215 	stw	ra,8(sp)
    3070:	df000115 	stw	fp,4(sp)
    3074:	df000104 	addi	fp,sp,4
#endif

  /* ALT LOG - please see HAL/sys/alt_log_printf.h for details */
  ALT_LOG_PRINT_BOOT("[alt_main.c] Entering alt_main, calling alt_irq_init.\r\n");
  /* Initialize the interrupt controller. */
  alt_irq_init (NULL);
    3078:	0009883a 	mov	r4,zero
    307c:	000353c0 	call	353c <alt_irq_init>

  /* Initialize the operating system */
  ALT_LOG_PRINT_BOOT("[alt_main.c] Done alt_irq_init, calling alt_os_init.\r\n");
  ALT_OS_INIT();
    3080:	0001883a 	nop
  ALT_LOG_PRINT_BOOT("[alt_main.c] Done OS Init, calling alt_sem_create.\r\n");
  ALT_SEM_CREATE (&alt_fd_list_lock, 1);

  /* Initialize the device drivers/software components. */
  ALT_LOG_PRINT_BOOT("[alt_main.c] Calling alt_sys_init.\r\n");
  alt_sys_init();
    3084:	000357c0 	call	357c <alt_sys_init>
   * devices be present (not equal to /dev/null) and if direct drivers
   * aren't being used.
   */

    ALT_LOG_PRINT_BOOT("[alt_main.c] Redirecting IO.\r\n");
    alt_io_redirect(ALT_STDOUT, ALT_STDIN, ALT_STDERR);
    3088:	01000074 	movhi	r4,1
    308c:	21291a04 	addi	r4,r4,-23448
    3090:	01400074 	movhi	r5,1
    3094:	29691a04 	addi	r5,r5,-23448
    3098:	01800074 	movhi	r6,1
    309c:	31a91a04 	addi	r6,r6,-23448
    30a0:	0008f380 	call	8f38 <alt_io_redirect>
  /* 
   * Call the C++ constructors 
   */

  ALT_LOG_PRINT_BOOT("[alt_main.c] Calling C++ constructors.\r\n");
  _do_ctors ();
    30a4:	0008c480 	call	8c48 <_do_ctors>
   * redefined as _exit()). This is in the interest of reducing code footprint,
   * in that the atexit() overhead is removed when it's not needed.
   */

  ALT_LOG_PRINT_BOOT("[alt_main.c] Calling atexit.\r\n");
  atexit (_do_dtors);
    30a8:	01000074 	movhi	r4,1
    30ac:	21232904 	addi	r4,r4,-29532
    30b0:	000a06c0 	call	a06c <atexit>
  ALT_LOG_PRINT_BOOT("[alt_main.c] Calling main.\r\n");

#ifdef ALT_NO_EXIT
  main (alt_argc, alt_argv, alt_envp);
#else
  result = main (alt_argc, alt_argv, alt_envp);
    30b4:	d127fe17 	ldw	r4,-24584(gp)
    30b8:	d0e7ff17 	ldw	r3,-24580(gp)
    30bc:	d0a80017 	ldw	r2,-24576(gp)
    30c0:	180b883a 	mov	r5,r3
    30c4:	100d883a 	mov	r6,r2
    30c8:	000009c0 	call	9c <main>
    30cc:	e0bfff15 	stw	r2,-4(fp)
  close(STDOUT_FILENO);
    30d0:	01000044 	movi	r4,1
    30d4:	0002b7c0 	call	2b7c <close>
  exit (result);
    30d8:	e13fff17 	ldw	r4,-4(fp)
    30dc:	000a0800 	call	a080 <exit>

000030e0 <__malloc_lock>:
 * configuration is single threaded, so there is nothing to do here. Note that 
 * this requires that malloc is never called by an interrupt service routine.
 */

void __malloc_lock ( struct _reent *_r )
{
    30e0:	defffe04 	addi	sp,sp,-8
    30e4:	df000115 	stw	fp,4(sp)
    30e8:	df000104 	addi	fp,sp,4
    30ec:	e13fff15 	stw	r4,-4(fp)
}
    30f0:	e037883a 	mov	sp,fp
    30f4:	df000017 	ldw	fp,0(sp)
    30f8:	dec00104 	addi	sp,sp,4
    30fc:	f800283a 	ret

00003100 <__malloc_unlock>:
/*
 *
 */

void __malloc_unlock ( struct _reent *_r )
{
    3100:	defffe04 	addi	sp,sp,-8
    3104:	df000115 	stw	fp,4(sp)
    3108:	df000104 	addi	fp,sp,4
    310c:	e13fff15 	stw	r4,-4(fp)
}
    3110:	e037883a 	mov	sp,fp
    3114:	df000017 	ldw	fp,0(sp)
    3118:	dec00104 	addi	sp,sp,4
    311c:	f800283a 	ret

00003120 <alt_get_errno>:
#undef errno

extern int errno;

static ALT_INLINE int* alt_get_errno(void)
{
    3120:	defffe04 	addi	sp,sp,-8
    3124:	dfc00115 	stw	ra,4(sp)
    3128:	df000015 	stw	fp,0(sp)
    312c:	d839883a 	mov	fp,sp
  return ((alt_errno) ? alt_errno() : &errno);
    3130:	00800074 	movhi	r2,1
    3134:	10b1c004 	addi	r2,r2,-14592
    3138:	10800017 	ldw	r2,0(r2)
    313c:	10000526 	beq	r2,zero,3154 <alt_get_errno+0x34>
    3140:	00800074 	movhi	r2,1
    3144:	10b1c004 	addi	r2,r2,-14592
    3148:	10800017 	ldw	r2,0(r2)
    314c:	103ee83a 	callr	r2
    3150:	00000206 	br	315c <alt_get_errno+0x3c>
    3154:	00800074 	movhi	r2,1
    3158:	10b9b404 	addi	r2,r2,-6448
}
    315c:	e037883a 	mov	sp,fp
    3160:	dfc00117 	ldw	ra,4(sp)
    3164:	df000017 	ldw	fp,0(sp)
    3168:	dec00204 	addi	sp,sp,8
    316c:	f800283a 	ret

00003170 <read>:
}

#else /* !ALT_USE_DIRECT_DRIVERS */

int ALT_READ (int file, void *ptr, size_t len)
{
    3170:	defff904 	addi	sp,sp,-28
    3174:	dfc00615 	stw	ra,24(sp)
    3178:	df000515 	stw	fp,20(sp)
    317c:	df000504 	addi	fp,sp,20
    3180:	e13ffd15 	stw	r4,-12(fp)
    3184:	e17ffe15 	stw	r5,-8(fp)
    3188:	e1bfff15 	stw	r6,-4(fp)
   * A common error case is that when the file descriptor was created, the call
   * to open() failed resulting in a negative file descriptor. This is trapped
   * below so that we don't try and process an invalid file descriptor.
   */

  fd = (file < 0) ? NULL : &alt_fd_list[file];
    318c:	e0bffd17 	ldw	r2,-12(fp)
    3190:	10000616 	blt	r2,zero,31ac <read+0x3c>
    3194:	e0bffd17 	ldw	r2,-12(fp)
    3198:	10c00324 	muli	r3,r2,12
    319c:	00800074 	movhi	r2,1
    31a0:	10abef04 	addi	r2,r2,-20548
    31a4:	1885883a 	add	r2,r3,r2
    31a8:	00000106 	br	31b0 <read+0x40>
    31ac:	0005883a 	mov	r2,zero
    31b0:	e0bffb15 	stw	r2,-20(fp)
  
  if (fd)
    31b4:	e0bffb17 	ldw	r2,-20(fp)
    31b8:	10002026 	beq	r2,zero,323c <read+0xcc>
     * If the file has not been opened with read access, or if the driver does
     * not provide an implementation of read(), generate an error. Otherwise
     * call the drivers read() function to process the request.
     */

    if (((fd->fd_flags & O_ACCMODE) != O_WRONLY) && 
    31bc:	e0bffb17 	ldw	r2,-20(fp)
    31c0:	10800217 	ldw	r2,8(r2)
    31c4:	108000cc 	andi	r2,r2,3
    31c8:	10800060 	cmpeqi	r2,r2,1
    31cc:	1000171e 	bne	r2,zero,322c <read+0xbc>
        (fd->dev->read))
    31d0:	e0bffb17 	ldw	r2,-20(fp)
    31d4:	10800017 	ldw	r2,0(r2)
    31d8:	10800517 	ldw	r2,20(r2)
     * If the file has not been opened with read access, or if the driver does
     * not provide an implementation of read(), generate an error. Otherwise
     * call the drivers read() function to process the request.
     */

    if (((fd->fd_flags & O_ACCMODE) != O_WRONLY) && 
    31dc:	10001326 	beq	r2,zero,322c <read+0xbc>
        (fd->dev->read))
      {
        if ((rval = fd->dev->read(fd, ptr, len)) < 0)
    31e0:	e0bffb17 	ldw	r2,-20(fp)
    31e4:	10800017 	ldw	r2,0(r2)
    31e8:	10c00517 	ldw	r3,20(r2)
    31ec:	e0bfff17 	ldw	r2,-4(fp)
    31f0:	e13ffb17 	ldw	r4,-20(fp)
    31f4:	e17ffe17 	ldw	r5,-8(fp)
    31f8:	100d883a 	mov	r6,r2
    31fc:	183ee83a 	callr	r3
    3200:	e0bffc15 	stw	r2,-16(fp)
    3204:	e0bffc17 	ldw	r2,-16(fp)
    3208:	1000060e 	bge	r2,zero,3224 <read+0xb4>
        {
          ALT_ERRNO = -rval;
    320c:	00031200 	call	3120 <alt_get_errno>
    3210:	e0fffc17 	ldw	r3,-16(fp)
    3214:	00c7c83a 	sub	r3,zero,r3
    3218:	10c00015 	stw	r3,0(r2)
          return -1;
    321c:	00bfffc4 	movi	r2,-1
    3220:	00000a06 	br	324c <read+0xdc>
        }
        return rval;
    3224:	e0bffc17 	ldw	r2,-16(fp)
    3228:	00000806 	br	324c <read+0xdc>
      }
      else
      {
        ALT_ERRNO = EACCES;
    322c:	00031200 	call	3120 <alt_get_errno>
    3230:	00c00344 	movi	r3,13
    3234:	10c00015 	stw	r3,0(r2)
    3238:	00000306 	br	3248 <read+0xd8>
      }
    }
  else
  {
    ALT_ERRNO = EBADFD;
    323c:	00031200 	call	3120 <alt_get_errno>
    3240:	00c01444 	movi	r3,81
    3244:	10c00015 	stw	r3,0(r2)
  }
  return -1;
    3248:	00bfffc4 	movi	r2,-1
}
    324c:	e037883a 	mov	sp,fp
    3250:	dfc00117 	ldw	ra,4(sp)
    3254:	df000017 	ldw	fp,0(sp)
    3258:	dec00204 	addi	sp,sp,8
    325c:	f800283a 	ret

00003260 <alt_release_fd>:
 * File descriptors correcponding to standard in, standard out and standard 
 * error cannont be released backed to the pool. They are always reserved.
 */

void alt_release_fd (int fd)
{
    3260:	defffe04 	addi	sp,sp,-8
    3264:	df000115 	stw	fp,4(sp)
    3268:	df000104 	addi	fp,sp,4
    326c:	e13fff15 	stw	r4,-4(fp)
  if (fd > 2)
    3270:	e0bfff17 	ldw	r2,-4(fp)
    3274:	108000d0 	cmplti	r2,r2,3
    3278:	10000d1e 	bne	r2,zero,32b0 <alt_release_fd+0x50>
  {
    alt_fd_list[fd].fd_flags = 0;
    327c:	00c00074 	movhi	r3,1
    3280:	18ebef04 	addi	r3,r3,-20548
    3284:	e0bfff17 	ldw	r2,-4(fp)
    3288:	10800324 	muli	r2,r2,12
    328c:	1885883a 	add	r2,r3,r2
    3290:	10800204 	addi	r2,r2,8
    3294:	10000015 	stw	zero,0(r2)
    alt_fd_list[fd].dev      = 0;
    3298:	00c00074 	movhi	r3,1
    329c:	18ebef04 	addi	r3,r3,-20548
    32a0:	e0bfff17 	ldw	r2,-4(fp)
    32a4:	10800324 	muli	r2,r2,12
    32a8:	1885883a 	add	r2,r3,r2
    32ac:	10000015 	stw	zero,0(r2)
  }
}
    32b0:	e037883a 	mov	sp,fp
    32b4:	df000017 	ldw	fp,0(sp)
    32b8:	dec00104 	addi	sp,sp,4
    32bc:	f800283a 	ret

000032c0 <sbrk>:
#endif
 
caddr_t ALT_SBRK (int incr) __attribute__ ((no_instrument_function ));

caddr_t ALT_SBRK (int incr)
{ 
    32c0:	defff704 	addi	sp,sp,-36
    32c4:	df000815 	stw	fp,32(sp)
    32c8:	df000804 	addi	fp,sp,32
    32cc:	e13fff15 	stw	r4,-4(fp)
static ALT_INLINE alt_irq_context ALT_ALWAYS_INLINE 
       alt_irq_disable_all (void)
{
  alt_irq_context context;

  NIOS2_READ_STATUS (context);
    32d0:	0005303a 	rdctl	r2,status
    32d4:	e0bffa15 	stw	r2,-24(fp)

  NIOS2_WRITE_STATUS (context & ~NIOS2_STATUS_PIE_MSK);
    32d8:	e0fffa17 	ldw	r3,-24(fp)
    32dc:	00bfff84 	movi	r2,-2
    32e0:	1884703a 	and	r2,r3,r2
    32e4:	1001703a 	wrctl	status,r2
  
  return context;
    32e8:	e0bffa17 	ldw	r2,-24(fp)
  alt_irq_context context;
  char *prev_heap_end; 

  context = alt_irq_disable_all();
    32ec:	e0bff815 	stw	r2,-32(fp)

  /* Always return data aligned on a word boundary */
  heap_end = (char *)(((unsigned int)heap_end + 3) & ~3);
    32f0:	d0a00a17 	ldw	r2,-32728(gp)
    32f4:	10c000c4 	addi	r3,r2,3
    32f8:	00bfff04 	movi	r2,-4
    32fc:	1884703a 	and	r2,r3,r2
    3300:	d0a00a15 	stw	r2,-32728(gp)
  if (((heap_end + incr) - __alt_heap_start) > ALT_MAX_HEAP_BYTES) {
    alt_irq_enable_all(context);
    return (caddr_t)-1;
  }
#else
  if ((heap_end + incr) > __alt_heap_limit) {
    3304:	d0e00a17 	ldw	r3,-32728(gp)
    3308:	e0bfff17 	ldw	r2,-4(fp)
    330c:	1885883a 	add	r2,r3,r2
    3310:	00c08034 	movhi	r3,512
    3314:	18c00004 	addi	r3,r3,0
    3318:	1880112e 	bgeu	r3,r2,3360 <sbrk+0xa0>
    331c:	e0bff817 	ldw	r2,-32(fp)
    3320:	e0bffb15 	stw	r2,-20(fp)
{
#if (NIOS2_NUM_OF_SHADOW_REG_SETS > 0) || (defined NIOS2_EIC_PRESENT) || \
    (defined NIOS2_MMU_PRESENT) || (defined NIOS2_MPU_PRESENT)
  alt_irq_context status;
  
  NIOS2_READ_STATUS (status);
    3324:	0005303a 	rdctl	r2,status
    3328:	e0bffc15 	stw	r2,-16(fp)
  
  status &= ~NIOS2_STATUS_PIE_MSK;
    332c:	e0fffc17 	ldw	r3,-16(fp)
    3330:	00bfff84 	movi	r2,-2
    3334:	1884703a 	and	r2,r3,r2
    3338:	e0bffc15 	stw	r2,-16(fp)
  status |= (context & NIOS2_STATUS_PIE_MSK);
    333c:	e0bffb17 	ldw	r2,-20(fp)
    3340:	1080004c 	andi	r2,r2,1
    3344:	e0fffc17 	ldw	r3,-16(fp)
    3348:	1884b03a 	or	r2,r3,r2
    334c:	e0bffc15 	stw	r2,-16(fp)
  
  NIOS2_WRITE_STATUS (status);
    3350:	e0bffc17 	ldw	r2,-16(fp)
    3354:	1001703a 	wrctl	status,r2
    alt_irq_enable_all(context);
    return (caddr_t)-1;
    3358:	00bfffc4 	movi	r2,-1
    335c:	00001606 	br	33b8 <sbrk+0xf8>
  }
#endif

  prev_heap_end = heap_end; 
    3360:	d0a00a17 	ldw	r2,-32728(gp)
    3364:	e0bff915 	stw	r2,-28(fp)
  heap_end += incr; 
    3368:	d0e00a17 	ldw	r3,-32728(gp)
    336c:	e0bfff17 	ldw	r2,-4(fp)
    3370:	1885883a 	add	r2,r3,r2
    3374:	d0a00a15 	stw	r2,-32728(gp)
    3378:	e0bff817 	ldw	r2,-32(fp)
    337c:	e0bffd15 	stw	r2,-12(fp)
{
#if (NIOS2_NUM_OF_SHADOW_REG_SETS > 0) || (defined NIOS2_EIC_PRESENT) || \
    (defined NIOS2_MMU_PRESENT) || (defined NIOS2_MPU_PRESENT)
  alt_irq_context status;
  
  NIOS2_READ_STATUS (status);
    3380:	0005303a 	rdctl	r2,status
    3384:	e0bffe15 	stw	r2,-8(fp)
  
  status &= ~NIOS2_STATUS_PIE_MSK;
    3388:	e0fffe17 	ldw	r3,-8(fp)
    338c:	00bfff84 	movi	r2,-2
    3390:	1884703a 	and	r2,r3,r2
    3394:	e0bffe15 	stw	r2,-8(fp)
  status |= (context & NIOS2_STATUS_PIE_MSK);
    3398:	e0bffd17 	ldw	r2,-12(fp)
    339c:	1080004c 	andi	r2,r2,1
    33a0:	e0fffe17 	ldw	r3,-8(fp)
    33a4:	1884b03a 	or	r2,r3,r2
    33a8:	e0bffe15 	stw	r2,-8(fp)
  
  NIOS2_WRITE_STATUS (status);
    33ac:	e0bffe17 	ldw	r2,-8(fp)
    33b0:	1001703a 	wrctl	status,r2

#endif

  alt_irq_enable_all(context);

  return (caddr_t) prev_heap_end; 
    33b4:	e0bff917 	ldw	r2,-28(fp)
} 
    33b8:	e037883a 	mov	sp,fp
    33bc:	df000017 	ldw	fp,0(sp)
    33c0:	dec00104 	addi	sp,sp,4
    33c4:	f800283a 	ret

000033c8 <alt_get_errno>:
#undef errno

extern int errno;

static ALT_INLINE int* alt_get_errno(void)
{
    33c8:	defffe04 	addi	sp,sp,-8
    33cc:	dfc00115 	stw	ra,4(sp)
    33d0:	df000015 	stw	fp,0(sp)
    33d4:	d839883a 	mov	fp,sp
  return ((alt_errno) ? alt_errno() : &errno);
    33d8:	00800074 	movhi	r2,1
    33dc:	10b1c004 	addi	r2,r2,-14592
    33e0:	10800017 	ldw	r2,0(r2)
    33e4:	10000526 	beq	r2,zero,33fc <alt_get_errno+0x34>
    33e8:	00800074 	movhi	r2,1
    33ec:	10b1c004 	addi	r2,r2,-14592
    33f0:	10800017 	ldw	r2,0(r2)
    33f4:	103ee83a 	callr	r2
    33f8:	00000206 	br	3404 <alt_get_errno+0x3c>
    33fc:	00800074 	movhi	r2,1
    3400:	10b9b404 	addi	r2,r2,-6448
}
    3404:	e037883a 	mov	sp,fp
    3408:	dfc00117 	ldw	ra,4(sp)
    340c:	df000017 	ldw	fp,0(sp)
    3410:	dec00204 	addi	sp,sp,8
    3414:	f800283a 	ret

00003418 <write>:
}

#else /* !ALT_USE_DIRECT_DRIVERS */

int ALT_WRITE (int file, const void *ptr, size_t len)
{
    3418:	defff904 	addi	sp,sp,-28
    341c:	dfc00615 	stw	ra,24(sp)
    3420:	df000515 	stw	fp,20(sp)
    3424:	df000504 	addi	fp,sp,20
    3428:	e13ffd15 	stw	r4,-12(fp)
    342c:	e17ffe15 	stw	r5,-8(fp)
    3430:	e1bfff15 	stw	r6,-4(fp)
   * A common error case is that when the file descriptor was created, the call
   * to open() failed resulting in a negative file descriptor. This is trapped
   * below so that we don't try and process an invalid file descriptor.
   */

  fd = (file < 0) ? NULL : &alt_fd_list[file];
    3434:	e0bffd17 	ldw	r2,-12(fp)
    3438:	10000616 	blt	r2,zero,3454 <write+0x3c>
    343c:	e0bffd17 	ldw	r2,-12(fp)
    3440:	10c00324 	muli	r3,r2,12
    3444:	00800074 	movhi	r2,1
    3448:	10abef04 	addi	r2,r2,-20548
    344c:	1885883a 	add	r2,r3,r2
    3450:	00000106 	br	3458 <write+0x40>
    3454:	0005883a 	mov	r2,zero
    3458:	e0bffb15 	stw	r2,-20(fp)
  
  if (fd)
    345c:	e0bffb17 	ldw	r2,-20(fp)
    3460:	10001f26 	beq	r2,zero,34e0 <write+0xc8>
     * If the file has not been opened with write access, or if the driver does
     * not provide an implementation of write(), generate an error. Otherwise
     * call the drivers write() function to process the request.
     */

    if (((fd->fd_flags & O_ACCMODE) != O_RDONLY) && fd->dev->write)
    3464:	e0bffb17 	ldw	r2,-20(fp)
    3468:	10800217 	ldw	r2,8(r2)
    346c:	108000cc 	andi	r2,r2,3
    3470:	10001726 	beq	r2,zero,34d0 <write+0xb8>
    3474:	e0bffb17 	ldw	r2,-20(fp)
    3478:	10800017 	ldw	r2,0(r2)
    347c:	10800617 	ldw	r2,24(r2)
    3480:	10001326 	beq	r2,zero,34d0 <write+0xb8>
    {
      
      /* ALT_LOG - see altera_hal/HAL/inc/sys/alt_log_printf.h */
      ALT_LOG_WRITE_FUNCTION(ptr,len);

      if ((rval = fd->dev->write(fd, ptr, len)) < 0)
    3484:	e0bffb17 	ldw	r2,-20(fp)
    3488:	10800017 	ldw	r2,0(r2)
    348c:	10c00617 	ldw	r3,24(r2)
    3490:	e0bfff17 	ldw	r2,-4(fp)
    3494:	e13ffb17 	ldw	r4,-20(fp)
    3498:	e17ffe17 	ldw	r5,-8(fp)
    349c:	100d883a 	mov	r6,r2
    34a0:	183ee83a 	callr	r3
    34a4:	e0bffc15 	stw	r2,-16(fp)
    34a8:	e0bffc17 	ldw	r2,-16(fp)
    34ac:	1000060e 	bge	r2,zero,34c8 <write+0xb0>
      {
        ALT_ERRNO = -rval;
    34b0:	00033c80 	call	33c8 <alt_get_errno>
    34b4:	e0fffc17 	ldw	r3,-16(fp)
    34b8:	00c7c83a 	sub	r3,zero,r3
    34bc:	10c00015 	stw	r3,0(r2)
        return -1;
    34c0:	00bfffc4 	movi	r2,-1
    34c4:	00000a06 	br	34f0 <write+0xd8>
      }
      return rval;
    34c8:	e0bffc17 	ldw	r2,-16(fp)
    34cc:	00000806 	br	34f0 <write+0xd8>
    }
    else
    {
      ALT_ERRNO = EACCES;
    34d0:	00033c80 	call	33c8 <alt_get_errno>
    34d4:	00c00344 	movi	r3,13
    34d8:	10c00015 	stw	r3,0(r2)
    34dc:	00000306 	br	34ec <write+0xd4>
    }
  }
  else  
  {
    ALT_ERRNO = EBADFD;
    34e0:	00033c80 	call	33c8 <alt_get_errno>
    34e4:	00c01444 	movi	r3,81
    34e8:	10c00015 	stw	r3,0(r2)
  }
  return -1;
    34ec:	00bfffc4 	movi	r2,-1
}
    34f0:	e037883a 	mov	sp,fp
    34f4:	dfc00117 	ldw	ra,4(sp)
    34f8:	df000017 	ldw	fp,0(sp)
    34fc:	dec00204 	addi	sp,sp,8
    3500:	f800283a 	ret

00003504 <alt_dev_reg>:
 */

extern int alt_fs_reg  (alt_dev* dev); 

static ALT_INLINE int alt_dev_reg (alt_dev* dev)
{
    3504:	defffd04 	addi	sp,sp,-12
    3508:	dfc00215 	stw	ra,8(sp)
    350c:	df000115 	stw	fp,4(sp)
    3510:	df000104 	addi	fp,sp,4
    3514:	e13fff15 	stw	r4,-4(fp)
  extern alt_llist alt_dev_list;

  return alt_dev_llist_insert ((alt_dev_llist*) dev, &alt_dev_list);
    3518:	e13fff17 	ldw	r4,-4(fp)
    351c:	01400074 	movhi	r5,1
    3520:	2971bd04 	addi	r5,r5,-14604
    3524:	0008ba80 	call	8ba8 <alt_dev_llist_insert>
}
    3528:	e037883a 	mov	sp,fp
    352c:	dfc00117 	ldw	ra,4(sp)
    3530:	df000017 	ldw	fp,0(sp)
    3534:	dec00204 	addi	sp,sp,8
    3538:	f800283a 	ret

0000353c <alt_irq_init>:
 * The "base" parameter is ignored and only
 * present for backwards-compatibility.
 */

void alt_irq_init ( const void* base )
{
    353c:	defffd04 	addi	sp,sp,-12
    3540:	dfc00215 	stw	ra,8(sp)
    3544:	df000115 	stw	fp,4(sp)
    3548:	df000104 	addi	fp,sp,4
    354c:	e13fff15 	stw	r4,-4(fp)
    ALTERA_VIC_IRQ_INIT ( VIC_0, vic_0);
    3550:	01000074 	movhi	r4,1
    3554:	212c4f04 	addi	r4,r4,-20164
    3558:	00087180 	call	8718 <alt_vic_irq_init>
 * alt_irq_cpu_enable_interrupts() enables the CPU to start taking interrupts.
 */
static ALT_INLINE void ALT_ALWAYS_INLINE 
       alt_irq_cpu_enable_interrupts ()
{
    NIOS2_WRITE_STATUS(NIOS2_STATUS_PIE_MSK
    355c:	00802034 	movhi	r2,128
    3560:	10800044 	addi	r2,r2,1
    3564:	1001703a 	wrctl	status,r2
    alt_irq_cpu_enable_interrupts();
}
    3568:	e037883a 	mov	sp,fp
    356c:	dfc00117 	ldw	ra,4(sp)
    3570:	df000017 	ldw	fp,0(sp)
    3574:	dec00204 	addi	sp,sp,8
    3578:	f800283a 	ret

0000357c <alt_sys_init>:
 * Initialize the non-interrupt controller devices.
 * Called after alt_irq_init().
 */

void alt_sys_init( void )
{
    357c:	defffe04 	addi	sp,sp,-8
    3580:	dfc00115 	stw	ra,4(sp)
    3584:	df000015 	stw	fp,0(sp)
    3588:	d839883a 	mov	fp,sp
    ALTERA_AVALON_TIMER_INIT ( SYS_CLK_TIMER, sys_clk_timer);
    358c:	01020034 	movhi	r4,2048
    3590:	21005804 	addi	r4,r4,352
    3594:	000b883a 	mov	r5,zero
    3598:	000d883a 	mov	r6,zero
    359c:	01c0fa04 	movi	r7,1000
    35a0:	0007ac40 	call	7ac4 <alt_avalon_timer_sc_init>
    ALTERA_AVALON_TIMER_INIT ( TIMER_5, timer_5);
    ALTERA_AVALON_TIMER_INIT ( TIMER_6, timer_6);
    ALTERA_AVALON_TIMER_INIT ( TIMER_7, timer_7);
    ALTERA_AVALON_TIMER_INIT ( TIMER_8, timer_8);
    ALTERA_AVALON_TIMER_INIT ( TIMER_9, timer_9);
    ALTERA_AVALON_CFI_FLASH_INIT ( CFI_FLASH, cfi_flash);
    35a4:	01000074 	movhi	r4,1
    35a8:	212c7604 	addi	r4,r4,-20008
    35ac:	00036c40 	call	36c4 <alt_flash_cfi_init>
    ALTERA_AVALON_JTAG_UART_INIT ( JTAG_UART, jtag_uart);
    35b0:	01000074 	movhi	r4,1
    35b4:	212cb604 	addi	r4,r4,-19752
    35b8:	000b883a 	mov	r5,zero
    35bc:	01800044 	movi	r6,1
    35c0:	00054b40 	call	54b4 <altera_avalon_jtag_uart_init>
    35c4:	01000074 	movhi	r4,1
    35c8:	212cac04 	addi	r4,r4,-19792
    35cc:	00035040 	call	3504 <alt_dev_reg>
    ALTERA_AVALON_LCD_16207_INIT ( LCD, lcd);
    35d0:	01000074 	movhi	r4,1
    35d4:	2130ce04 	addi	r4,r4,-15560
    35d8:	0006b600 	call	6b60 <altera_avalon_lcd_16207_init>
    35dc:	01000074 	movhi	r4,1
    35e0:	2130c404 	addi	r4,r4,-15600
    35e4:	00035040 	call	3504 <alt_dev_reg>
    ALTERA_AVALON_SGDMA_INIT ( SGDMA_RX, sgdma_rx);
    35e8:	01000074 	movhi	r4,1
    35ec:	21310c04 	addi	r4,r4,-15312
    35f0:	000b883a 	mov	r5,zero
    35f4:	01800304 	movi	r6,12
    35f8:	00079800 	call	7980 <alt_avalon_sgdma_init>
    ALTERA_AVALON_SGDMA_INIT ( SGDMA_TX, sgdma_tx);
    35fc:	01000074 	movhi	r4,1
    3600:	21311804 	addi	r4,r4,-15264
    3604:	000b883a 	mov	r5,zero
    3608:	01800344 	movi	r6,13
    360c:	00079800 	call	7980 <alt_avalon_sgdma_init>
    ALTERA_AVALON_SYSID_QSYS_INIT ( SYSID, sysid);
    3610:	0001883a 	nop
    ALTERA_AVALON_UART_INIT ( RS232, rs232);
    3614:	01000074 	movhi	r4,1
    3618:	21312e04 	addi	r4,r4,-15176
    361c:	000b883a 	mov	r5,zero
    3620:	018001c4 	movi	r6,7
    3624:	0007c5c0 	call	7c5c <altera_avalon_uart_init>
    3628:	01000074 	movhi	r4,1
    362c:	21312404 	addi	r4,r4,-15216
    3630:	00035040 	call	3504 <alt_dev_reg>
    ALTERA_AVALON_UART_INIT ( UART_0, uart_0);
    3634:	01000074 	movhi	r4,1
    3638:	21315f04 	addi	r4,r4,-14980
    363c:	000b883a 	mov	r5,zero
    3640:	018000c4 	movi	r6,3
    3644:	0007c5c0 	call	7c5c <altera_avalon_uart_init>
    3648:	01000074 	movhi	r4,1
    364c:	21315504 	addi	r4,r4,-15020
    3650:	00035040 	call	3504 <alt_dev_reg>
    ALTERA_AVALON_UART_INIT ( UART_1, uart_1);
    3654:	01000074 	movhi	r4,1
    3658:	21319004 	addi	r4,r4,-14784
    365c:	000b883a 	mov	r5,zero
    3660:	01800104 	movi	r6,4
    3664:	0007c5c0 	call	7c5c <altera_avalon_uart_init>
    3668:	01000074 	movhi	r4,1
    366c:	21318604 	addi	r4,r4,-14824
    3670:	00035040 	call	3504 <alt_dev_reg>
    ALTERA_ETH_TSE_INIT ( TSE_MAC, tse_mac);
    3674:	0001883a 	nop
}
    3678:	e037883a 	mov	sp,fp
    367c:	dfc00117 	ldw	ra,4(sp)
    3680:	df000017 	ldw	fp,0(sp)
    3684:	dec00204 	addi	sp,sp,8
    3688:	f800283a 	ret

0000368c <alt_flash_device_register>:

typedef struct alt_flash_dev alt_flash_dev; 
typedef alt_flash_dev alt_flash_fd;

static ALT_INLINE int alt_flash_device_register( alt_flash_fd* fd)
{
    368c:	defffd04 	addi	sp,sp,-12
    3690:	dfc00215 	stw	ra,8(sp)
    3694:	df000115 	stw	fp,4(sp)
    3698:	df000104 	addi	fp,sp,4
    369c:	e13fff15 	stw	r4,-4(fp)
  extern alt_llist alt_flash_dev_list;

  return alt_dev_llist_insert ((alt_dev_llist*) fd, &alt_flash_dev_list);
    36a0:	e13fff17 	ldw	r4,-4(fp)
    36a4:	01400074 	movhi	r5,1
    36a8:	2971c504 	addi	r5,r5,-14572
    36ac:	0008ba80 	call	8ba8 <alt_dev_llist_insert>
}
    36b0:	e037883a 	mov	sp,fp
    36b4:	dfc00117 	ldw	ra,4(sp)
    36b8:	df000017 	ldw	fp,0(sp)
    36bc:	dec00204 	addi	sp,sp,8
    36c0:	f800283a 	ret

000036c4 <alt_flash_cfi_init>:
 * Read the CFI table and fill out the alt_flash_cfi_dev structure with all the 
 * information we need to program the flash.
 * 
 */
int alt_flash_cfi_init( alt_flash_cfi_dev* flash  )
{
    36c4:	defffc04 	addi	sp,sp,-16
    36c8:	dfc00315 	stw	ra,12(sp)
    36cc:	df000215 	stw	fp,8(sp)
    36d0:	df000204 	addi	fp,sp,8
    36d4:	e13fff15 	stw	r4,-4(fp)
  int ret_code = 0;
    36d8:	e03ffe15 	stw	zero,-8(fp)
 
  ret_code = alt_read_cfi_width( flash );
    36dc:	e13fff17 	ldw	r4,-4(fp)
    36e0:	0004b0c0 	call	4b0c <alt_read_cfi_width>
    36e4:	e0bffe15 	stw	r2,-8(fp)
  
  if (!ret_code)
    36e8:	e0bffe17 	ldw	r2,-8(fp)
    36ec:	1000031e 	bne	r2,zero,36fc <alt_flash_cfi_init+0x38>
    ret_code = alt_set_flash_width_func( flash );
    36f0:	e13fff17 	ldw	r4,-4(fp)
    36f4:	00042640 	call	4264 <alt_set_flash_width_func>
    36f8:	e0bffe15 	stw	r2,-8(fp)
  
  if (!ret_code)
    36fc:	e0bffe17 	ldw	r2,-8(fp)
    3700:	1000031e 	bne	r2,zero,3710 <alt_flash_cfi_init+0x4c>
    ret_code = alt_read_cfi_table( flash );
    3704:	e13fff17 	ldw	r4,-4(fp)
    3708:	00045440 	call	4544 <alt_read_cfi_table>
    370c:	e0bffe15 	stw	r2,-8(fp)

  if (!ret_code) 
    3710:	e0bffe17 	ldw	r2,-8(fp)
    3714:	1000031e 	bne	r2,zero,3724 <alt_flash_cfi_init+0x60>
    ret_code = alt_set_flash_algorithm_func( flash);
    3718:	e13fff17 	ldw	r4,-4(fp)
    371c:	00044280 	call	4428 <alt_set_flash_algorithm_func>
    3720:	e0bffe15 	stw	r2,-8(fp)

  /*
  *  Register this device as a valid flash device type
  */ 
  if (!ret_code)
    3724:	e0bffe17 	ldw	r2,-8(fp)
    3728:	1000041e 	bne	r2,zero,373c <alt_flash_cfi_init+0x78>
    ret_code = alt_flash_device_register(&(flash->dev));
    372c:	e0bfff17 	ldw	r2,-4(fp)
    3730:	1009883a 	mov	r4,r2
    3734:	000368c0 	call	368c <alt_flash_device_register>
    3738:	e0bffe15 	stw	r2,-8(fp)
 
  return ret_code;
    373c:	e0bffe17 	ldw	r2,-8(fp)
}
    3740:	e037883a 	mov	sp,fp
    3744:	dfc00117 	ldw	ra,4(sp)
    3748:	df000017 	ldw	fp,0(sp)
    374c:	dec00204 	addi	sp,sp,8
    3750:	f800283a 	ret

00003754 <alt_flash_cfi_write>:
 * large buffer to tie up in our programming library, when not all users will 
 * want that functionality.
 */
 int alt_flash_cfi_write( alt_flash_dev* flash_info, int offset, 
                          const void* src_addr, int length )
 {
    3754:	defff104 	addi	sp,sp,-60
    3758:	dfc00e15 	stw	ra,56(sp)
    375c:	df000d15 	stw	fp,52(sp)
    3760:	df000d04 	addi	fp,sp,52
    3764:	e13ffc15 	stw	r4,-16(fp)
    3768:	e17ffd15 	stw	r5,-12(fp)
    376c:	e1bffe15 	stw	r6,-8(fp)
    3770:	e1ffff15 	stw	r7,-4(fp)
  int         ret_code = 0;
    3774:	e03ff415 	stw	zero,-48(fp)
  int         i,j;
  int         data_to_write;
  int         full_length = length;
    3778:	e0bfff17 	ldw	r2,-4(fp)
    377c:	e0bff815 	stw	r2,-32(fp)
  int         current_offset;
  int         start_offset = offset;
    3780:	e0bffd17 	ldw	r2,-12(fp)
    3784:	e0bff915 	stw	r2,-28(fp)
  alt_flash_cfi_dev* flash = (alt_flash_cfi_dev*)flash_info;
    3788:	e0bffc17 	ldw	r2,-16(fp)
    378c:	e0bffa15 	stw	r2,-24(fp)

  /*
   * First and foremost which sectors are affected?
   */   
  for(i=0;i<flash->dev.number_of_regions;i++)
    3790:	e03ff515 	stw	zero,-44(fp)
    3794:	00008806 	br	39b8 <alt_flash_cfi_write+0x264>
  {
    /* Is it in this erase block region?*/
    if((offset >= flash->dev.region_info[i].offset) &&
    3798:	e0fffa17 	ldw	r3,-24(fp)
    379c:	e0bff517 	ldw	r2,-44(fp)
    37a0:	1004913a 	slli	r2,r2,4
    37a4:	1885883a 	add	r2,r3,r2
    37a8:	10800d04 	addi	r2,r2,52
    37ac:	10800017 	ldw	r2,0(r2)
    37b0:	e0fffd17 	ldw	r3,-12(fp)
    37b4:	18807d16 	blt	r3,r2,39ac <alt_flash_cfi_write+0x258>
      (offset < (flash->dev.region_info[i].offset + 
    37b8:	e0fffa17 	ldw	r3,-24(fp)
    37bc:	e0bff517 	ldw	r2,-44(fp)
    37c0:	1004913a 	slli	r2,r2,4
    37c4:	1885883a 	add	r2,r3,r2
    37c8:	10800d04 	addi	r2,r2,52
    37cc:	10c00017 	ldw	r3,0(r2)
      flash->dev.region_info[i].region_size)))
    37d0:	e13ffa17 	ldw	r4,-24(fp)
    37d4:	e0bff517 	ldw	r2,-44(fp)
    37d8:	1004913a 	slli	r2,r2,4
    37dc:	2085883a 	add	r2,r4,r2
    37e0:	10800e04 	addi	r2,r2,56
    37e4:	10800017 	ldw	r2,0(r2)
   */   
  for(i=0;i<flash->dev.number_of_regions;i++)
  {
    /* Is it in this erase block region?*/
    if((offset >= flash->dev.region_info[i].offset) &&
      (offset < (flash->dev.region_info[i].offset + 
    37e8:	1885883a 	add	r2,r3,r2
   * First and foremost which sectors are affected?
   */   
  for(i=0;i<flash->dev.number_of_regions;i++)
  {
    /* Is it in this erase block region?*/
    if((offset >= flash->dev.region_info[i].offset) &&
    37ec:	e0fffd17 	ldw	r3,-12(fp)
    37f0:	18806e0e 	bge	r3,r2,39ac <alt_flash_cfi_write+0x258>
      (offset < (flash->dev.region_info[i].offset + 
      flash->dev.region_info[i].region_size)))
    {
      current_offset = flash->dev.region_info[i].offset;
    37f4:	e0fffa17 	ldw	r3,-24(fp)
    37f8:	e0bff517 	ldw	r2,-44(fp)
    37fc:	1004913a 	slli	r2,r2,4
    3800:	1885883a 	add	r2,r3,r2
    3804:	10800d04 	addi	r2,r2,52
    3808:	10800017 	ldw	r2,0(r2)
    380c:	e0bff715 	stw	r2,-36(fp)

      for(j=0;j<flash->dev.region_info[i].number_of_blocks;j++)
    3810:	e03ff615 	stw	zero,-40(fp)
    3814:	00005d06 	br	398c <alt_flash_cfi_write+0x238>
      {
        if ((offset >= current_offset ) && 
    3818:	e0fffd17 	ldw	r3,-12(fp)
    381c:	e0bff717 	ldw	r2,-36(fp)
    3820:	18804e16 	blt	r3,r2,395c <alt_flash_cfi_write+0x208>
            (offset < (current_offset + 
            flash->dev.region_info[i].block_size)))
    3824:	e0fffa17 	ldw	r3,-24(fp)
    3828:	e0bff517 	ldw	r2,-44(fp)
    382c:	10800104 	addi	r2,r2,4
    3830:	1004913a 	slli	r2,r2,4
    3834:	1885883a 	add	r2,r3,r2
    3838:	10c00017 	ldw	r3,0(r2)
      current_offset = flash->dev.region_info[i].offset;

      for(j=0;j<flash->dev.region_info[i].number_of_blocks;j++)
      {
        if ((offset >= current_offset ) && 
            (offset < (current_offset + 
    383c:	e0bff717 	ldw	r2,-36(fp)
    3840:	1885883a 	add	r2,r3,r2
    {
      current_offset = flash->dev.region_info[i].offset;

      for(j=0;j<flash->dev.region_info[i].number_of_blocks;j++)
      {
        if ((offset >= current_offset ) && 
    3844:	e0fffd17 	ldw	r3,-12(fp)
    3848:	1880440e 	bge	r3,r2,395c <alt_flash_cfi_write+0x208>
        {
          /*
           * Check if the contents of the block are different
           * from the data we wish to put there
           */
          data_to_write = ( current_offset + flash->dev.region_info[i].block_size 
    384c:	e0fffa17 	ldw	r3,-24(fp)
    3850:	e0bff517 	ldw	r2,-44(fp)
    3854:	10800104 	addi	r2,r2,4
    3858:	1004913a 	slli	r2,r2,4
    385c:	1885883a 	add	r2,r3,r2
    3860:	10c00017 	ldw	r3,0(r2)
    3864:	e0bff717 	ldw	r2,-36(fp)
    3868:	1887883a 	add	r3,r3,r2
    386c:	e0bffd17 	ldw	r2,-12(fp)
    3870:	1885c83a 	sub	r2,r3,r2
    3874:	e0bffb15 	stw	r2,-20(fp)
                            - offset); 
          data_to_write = MIN(data_to_write, length);
    3878:	e0fffb17 	ldw	r3,-20(fp)
    387c:	e0bfff17 	ldw	r2,-4(fp)
    3880:	1880010e 	bge	r3,r2,3888 <alt_flash_cfi_write+0x134>
    3884:	1805883a 	mov	r2,r3
    3888:	e0bffb15 	stw	r2,-20(fp)
          if(memcmp(src_addr, 
                    (alt_u8*)flash->dev.base_addr+offset,
    388c:	e0bffa17 	ldw	r2,-24(fp)
    3890:	10c00a17 	ldw	r3,40(r2)
           * from the data we wish to put there
           */
          data_to_write = ( current_offset + flash->dev.region_info[i].block_size 
                            - offset); 
          data_to_write = MIN(data_to_write, length);
          if(memcmp(src_addr, 
    3894:	e0bffd17 	ldw	r2,-12(fp)
    3898:	1887883a 	add	r3,r3,r2
    389c:	e0bffb17 	ldw	r2,-20(fp)
    38a0:	e13ffe17 	ldw	r4,-8(fp)
    38a4:	180b883a 	mov	r5,r3
    38a8:	100d883a 	mov	r6,r2
    38ac:	000a0b80 	call	a0b8 <memcmp>
    38b0:	10001426 	beq	r2,zero,3904 <alt_flash_cfi_write+0x1b0>
                    (alt_u8*)flash->dev.base_addr+offset,
                    data_to_write))
          {
            ret_code = (*flash->dev.erase_block)( &flash->dev, current_offset);
    38b4:	e0bffa17 	ldw	r2,-24(fp)
    38b8:	10c00817 	ldw	r3,32(r2)
    38bc:	e0bffa17 	ldw	r2,-24(fp)
    38c0:	1009883a 	mov	r4,r2
    38c4:	e17ff717 	ldw	r5,-36(fp)
    38c8:	183ee83a 	callr	r3
    38cc:	e0bff415 	stw	r2,-48(fp)

            if (!ret_code)
    38d0:	e0bff417 	ldw	r2,-48(fp)
    38d4:	10000b1e 	bne	r2,zero,3904 <alt_flash_cfi_write+0x1b0>
            {
              ret_code = (*flash->dev.write_block)( 
    38d8:	e0bffa17 	ldw	r2,-24(fp)
    38dc:	10c00917 	ldw	r3,36(r2)
    38e0:	e0bffa17 	ldw	r2,-24(fp)
    38e4:	e13ffb17 	ldw	r4,-20(fp)
    38e8:	d9000015 	stw	r4,0(sp)
    38ec:	1009883a 	mov	r4,r2
    38f0:	e17ff717 	ldw	r5,-36(fp)
    38f4:	e1bffd17 	ldw	r6,-12(fp)
    38f8:	e1fffe17 	ldw	r7,-8(fp)
    38fc:	183ee83a 	callr	r3
    3900:	e0bff415 	stw	r2,-48(fp)
                                                  data_to_write);
            }
          }    
    
          /* Was this the last block? */    
          if ((length == data_to_write) || ret_code)
    3904:	e0ffff17 	ldw	r3,-4(fp)
    3908:	e0bffb17 	ldw	r2,-20(fp)
    390c:	18802e26 	beq	r3,r2,39c8 <alt_flash_cfi_write+0x274>
    3910:	e0bff417 	ldw	r2,-48(fp)
    3914:	10002c1e 	bne	r2,zero,39c8 <alt_flash_cfi_write+0x274>
          {
            goto finished;
          }
          
          length -= data_to_write;
    3918:	e0ffff17 	ldw	r3,-4(fp)
    391c:	e0bffb17 	ldw	r2,-20(fp)
    3920:	1885c83a 	sub	r2,r3,r2
    3924:	e0bfff15 	stw	r2,-4(fp)
          offset = current_offset + flash->dev.region_info[i].block_size;
    3928:	e0fffa17 	ldw	r3,-24(fp)
    392c:	e0bff517 	ldw	r2,-44(fp)
    3930:	10800104 	addi	r2,r2,4
    3934:	1004913a 	slli	r2,r2,4
    3938:	1885883a 	add	r2,r3,r2
    393c:	10c00017 	ldw	r3,0(r2)
    3940:	e0bff717 	ldw	r2,-36(fp)
    3944:	1885883a 	add	r2,r3,r2
    3948:	e0bffd15 	stw	r2,-12(fp)
          src_addr = (alt_u8*)src_addr + data_to_write;
    394c:	e0bffb17 	ldw	r2,-20(fp)
    3950:	e0fffe17 	ldw	r3,-8(fp)
    3954:	1885883a 	add	r2,r3,r2
    3958:	e0bffe15 	stw	r2,-8(fp)
        }
        current_offset += flash->dev.region_info[i].block_size;
    395c:	e0fffa17 	ldw	r3,-24(fp)
    3960:	e0bff517 	ldw	r2,-44(fp)
    3964:	10800104 	addi	r2,r2,4
    3968:	1004913a 	slli	r2,r2,4
    396c:	1885883a 	add	r2,r3,r2
    3970:	10800017 	ldw	r2,0(r2)
    3974:	e0fff717 	ldw	r3,-36(fp)
    3978:	1885883a 	add	r2,r3,r2
    397c:	e0bff715 	stw	r2,-36(fp)
      (offset < (flash->dev.region_info[i].offset + 
      flash->dev.region_info[i].region_size)))
    {
      current_offset = flash->dev.region_info[i].offset;

      for(j=0;j<flash->dev.region_info[i].number_of_blocks;j++)
    3980:	e0bff617 	ldw	r2,-40(fp)
    3984:	10800044 	addi	r2,r2,1
    3988:	e0bff615 	stw	r2,-40(fp)
    398c:	e0fffa17 	ldw	r3,-24(fp)
    3990:	e0bff517 	ldw	r2,-44(fp)
    3994:	1004913a 	slli	r2,r2,4
    3998:	1885883a 	add	r2,r3,r2
    399c:	10800f04 	addi	r2,r2,60
    39a0:	10800017 	ldw	r2,0(r2)
    39a4:	e0fff617 	ldw	r3,-40(fp)
    39a8:	18bf9b16 	blt	r3,r2,3818 <alt_flash_cfi_write+0xc4>
  alt_flash_cfi_dev* flash = (alt_flash_cfi_dev*)flash_info;

  /*
   * First and foremost which sectors are affected?
   */   
  for(i=0;i<flash->dev.number_of_regions;i++)
    39ac:	e0bff517 	ldw	r2,-44(fp)
    39b0:	10800044 	addi	r2,r2,1
    39b4:	e0bff515 	stw	r2,-44(fp)
    39b8:	e0bffa17 	ldw	r2,-24(fp)
    39bc:	10800c17 	ldw	r2,48(r2)
    39c0:	e0fff517 	ldw	r3,-44(fp)
    39c4:	18bf7416 	blt	r3,r2,3798 <alt_flash_cfi_write+0x44>
      }     
    } 
  }
finished:    

  alt_dcache_flush((alt_u8*)flash->dev.base_addr+start_offset, full_length);
    39c8:	e0bffa17 	ldw	r2,-24(fp)
    39cc:	10c00a17 	ldw	r3,40(r2)
    39d0:	e0bff917 	ldw	r2,-28(fp)
    39d4:	1887883a 	add	r3,r3,r2
    39d8:	e0bff817 	ldw	r2,-32(fp)
    39dc:	1809883a 	mov	r4,r3
    39e0:	100b883a 	mov	r5,r2
    39e4:	0008b180 	call	8b18 <alt_dcache_flush>
  return ret_code;
    39e8:	e0bff417 	ldw	r2,-48(fp)
}
    39ec:	e037883a 	mov	sp,fp
    39f0:	dfc00117 	ldw	ra,4(sp)
    39f4:	df000017 	ldw	fp,0(sp)
    39f8:	dec00204 	addi	sp,sp,8
    39fc:	f800283a 	ret

00003a00 <alt_flash_cfi_get_info>:
 * 
 *  Pass the table of erase blocks to the user
 */
int alt_flash_cfi_get_info( alt_flash_fd* fd, flash_region** info, 
                            int* number_of_regions)
{
    3a00:	defffa04 	addi	sp,sp,-24
    3a04:	df000515 	stw	fp,20(sp)
    3a08:	df000504 	addi	fp,sp,20
    3a0c:	e13ffd15 	stw	r4,-12(fp)
    3a10:	e17ffe15 	stw	r5,-8(fp)
    3a14:	e1bfff15 	stw	r6,-4(fp)
  int ret_code = 0;
    3a18:	e03ffb15 	stw	zero,-20(fp)
  alt_flash_dev* flash = (alt_flash_dev*)fd;
    3a1c:	e0bffd17 	ldw	r2,-12(fp)
    3a20:	e0bffc15 	stw	r2,-16(fp)

  *number_of_regions = flash->number_of_regions;
    3a24:	e0bffc17 	ldw	r2,-16(fp)
    3a28:	10c00c17 	ldw	r3,48(r2)
    3a2c:	e0bfff17 	ldw	r2,-4(fp)
    3a30:	10c00015 	stw	r3,0(r2)

  if (!flash->number_of_regions)
    3a34:	e0bffc17 	ldw	r2,-16(fp)
    3a38:	10800c17 	ldw	r2,48(r2)
    3a3c:	1000031e 	bne	r2,zero,3a4c <alt_flash_cfi_get_info+0x4c>
  {
    ret_code = -EIO;
    3a40:	00bffec4 	movi	r2,-5
    3a44:	e0bffb15 	stw	r2,-20(fp)
    3a48:	00000b06 	br	3a78 <alt_flash_cfi_get_info+0x78>
  }
  else if (flash->number_of_regions > ALT_MAX_NUMBER_OF_FLASH_REGIONS)
    3a4c:	e0bffc17 	ldw	r2,-16(fp)
    3a50:	10800c17 	ldw	r2,48(r2)
    3a54:	10800250 	cmplti	r2,r2,9
    3a58:	1000031e 	bne	r2,zero,3a68 <alt_flash_cfi_get_info+0x68>
  {
    ret_code = -ENOMEM;
    3a5c:	00bffd04 	movi	r2,-12
    3a60:	e0bffb15 	stw	r2,-20(fp)
    3a64:	00000406 	br	3a78 <alt_flash_cfi_get_info+0x78>
  }
  else
  {
    *info = &flash->region_info[0];
    3a68:	e0bffc17 	ldw	r2,-16(fp)
    3a6c:	10c00d04 	addi	r3,r2,52
    3a70:	e0bffe17 	ldw	r2,-8(fp)
    3a74:	10c00015 	stw	r3,0(r2)
  }

  return ret_code;
    3a78:	e0bffb17 	ldw	r2,-20(fp)
}
    3a7c:	e037883a 	mov	sp,fp
    3a80:	df000017 	ldw	fp,0(sp)
    3a84:	dec00104 	addi	sp,sp,4
    3a88:	f800283a 	ret

00003a8c <alt_flash_cfi_read>:
 *  Read from an area in flash, you could use memcopy yourself
 *  for these flash types, but we're trying to be generic and future proof
 */
int alt_flash_cfi_read( alt_flash_dev* flash_info, int offset, 
                        void* dest_addr, int length )
{
    3a8c:	defff904 	addi	sp,sp,-28
    3a90:	dfc00615 	stw	ra,24(sp)
    3a94:	df000515 	stw	fp,20(sp)
    3a98:	df000504 	addi	fp,sp,20
    3a9c:	e13ffc15 	stw	r4,-16(fp)
    3aa0:	e17ffd15 	stw	r5,-12(fp)
    3aa4:	e1bffe15 	stw	r6,-8(fp)
    3aa8:	e1ffff15 	stw	r7,-4(fp)
  alt_flash_cfi_dev* flash = (alt_flash_cfi_dev*)flash_info;
    3aac:	e0bffc17 	ldw	r2,-16(fp)
    3ab0:	e0bffb15 	stw	r2,-20(fp)
  memcpy(dest_addr, (alt_u8*)flash->dev.base_addr+offset, length);
    3ab4:	e0bffb17 	ldw	r2,-20(fp)
    3ab8:	10c00a17 	ldw	r3,40(r2)
    3abc:	e0bffd17 	ldw	r2,-12(fp)
    3ac0:	1887883a 	add	r3,r3,r2
    3ac4:	e0bfff17 	ldw	r2,-4(fp)
    3ac8:	e13ffe17 	ldw	r4,-8(fp)
    3acc:	180b883a 	mov	r5,r3
    3ad0:	100d883a 	mov	r6,r2
    3ad4:	0000f540 	call	f54 <memcpy>
  return 0;
    3ad8:	0005883a 	mov	r2,zero
}
    3adc:	e037883a 	mov	sp,fp
    3ae0:	dfc00117 	ldw	ra,4(sp)
    3ae4:	df000017 	ldw	fp,0(sp)
    3ae8:	dec00204 	addi	sp,sp,8
    3aec:	f800283a 	ret

00003af0 <alt_write_value_to_flash>:
* It writes the largest word size that the flash can support
* so if it's an 8 bit flash it writes bytes
* 16 bit half word etc.
*/
void alt_write_value_to_flash(alt_flash_cfi_dev* flash, int offset, const alt_u8* src_addr)
{
    3af0:	defffa04 	addi	sp,sp,-24
    3af4:	df000515 	stw	fp,20(sp)
    3af8:	df000504 	addi	fp,sp,20
    3afc:	e13ffd15 	stw	r4,-12(fp)
    3b00:	e17ffe15 	stw	r5,-8(fp)
    3b04:	e1bfff15 	stw	r6,-4(fp)
  alt_u16 half_word_value;
  alt_u32 word_value;

  if (flash->mode_width == 1)
    3b08:	e0bffd17 	ldw	r2,-12(fp)
    3b0c:	10802e17 	ldw	r2,184(r2)
    3b10:	10800058 	cmpnei	r2,r2,1
    3b14:	1000091e 	bne	r2,zero,3b3c <alt_write_value_to_flash+0x4c>
  {
    IOWR_8DIRECT(flash->dev.base_addr, offset, *src_addr);
    3b18:	e0bffd17 	ldw	r2,-12(fp)
    3b1c:	10c00a17 	ldw	r3,40(r2)
    3b20:	e0bffe17 	ldw	r2,-8(fp)
    3b24:	1885883a 	add	r2,r3,r2
    3b28:	e0ffff17 	ldw	r3,-4(fp)
    3b2c:	18c00003 	ldbu	r3,0(r3)
    3b30:	18c03fcc 	andi	r3,r3,255
    3b34:	10c00025 	stbio	r3,0(r2)
    word_value |= ((alt_u32)(*(src_addr + 2)) << 16);
    word_value |= ((alt_u32)(*(src_addr + 3)) << 24);
    IOWR_32DIRECT(flash->dev.base_addr, offset, word_value);
  }

  return;
    3b38:	00003e06 	br	3c34 <alt_write_value_to_flash+0x144>

  if (flash->mode_width == 1)
  {
    IOWR_8DIRECT(flash->dev.base_addr, offset, *src_addr);
  }
  else if (flash->mode_width == 2)
    3b3c:	e0bffd17 	ldw	r2,-12(fp)
    3b40:	10802e17 	ldw	r2,184(r2)
    3b44:	10800098 	cmpnei	r2,r2,2
    3b48:	1000141e 	bne	r2,zero,3b9c <alt_write_value_to_flash+0xac>
  {
    half_word_value = (alt_u16)(*src_addr);
    3b4c:	e0bfff17 	ldw	r2,-4(fp)
    3b50:	10800003 	ldbu	r2,0(r2)
    3b54:	10803fcc 	andi	r2,r2,255
    3b58:	e0bffb0d 	sth	r2,-20(fp)
    half_word_value |= (alt_u16)(*(src_addr + 1)) << 8;
    3b5c:	e0bfff17 	ldw	r2,-4(fp)
    3b60:	10800044 	addi	r2,r2,1
    3b64:	10800003 	ldbu	r2,0(r2)
    3b68:	10803fcc 	andi	r2,r2,255
    3b6c:	1004923a 	slli	r2,r2,8
    3b70:	1007883a 	mov	r3,r2
    3b74:	e0bffb0b 	ldhu	r2,-20(fp)
    3b78:	1884b03a 	or	r2,r3,r2
    3b7c:	e0bffb0d 	sth	r2,-20(fp)
    IOWR_16DIRECT(flash->dev.base_addr, offset, half_word_value);
    3b80:	e0bffd17 	ldw	r2,-12(fp)
    3b84:	10c00a17 	ldw	r3,40(r2)
    3b88:	e0bffe17 	ldw	r2,-8(fp)
    3b8c:	1885883a 	add	r2,r3,r2
    3b90:	e0fffb0b 	ldhu	r3,-20(fp)
    3b94:	10c0002d 	sthio	r3,0(r2)
    word_value |= ((alt_u32)(*(src_addr + 2)) << 16);
    word_value |= ((alt_u32)(*(src_addr + 3)) << 24);
    IOWR_32DIRECT(flash->dev.base_addr, offset, word_value);
  }

  return;
    3b98:	00002606 	br	3c34 <alt_write_value_to_flash+0x144>
  {
    half_word_value = (alt_u16)(*src_addr);
    half_word_value |= (alt_u16)(*(src_addr + 1)) << 8;
    IOWR_16DIRECT(flash->dev.base_addr, offset, half_word_value);
  }
  else if (flash->mode_width == 4)
    3b9c:	e0bffd17 	ldw	r2,-12(fp)
    3ba0:	10802e17 	ldw	r2,184(r2)
    3ba4:	10800118 	cmpnei	r2,r2,4
    3ba8:	1000221e 	bne	r2,zero,3c34 <alt_write_value_to_flash+0x144>
  {
    word_value = (alt_u32)(*src_addr);
    3bac:	e0bfff17 	ldw	r2,-4(fp)
    3bb0:	10800003 	ldbu	r2,0(r2)
    3bb4:	10803fcc 	andi	r2,r2,255
    3bb8:	e0bffc15 	stw	r2,-16(fp)
    word_value |= ((alt_u32)(*(src_addr + 1)) << 8);
    3bbc:	e0bfff17 	ldw	r2,-4(fp)
    3bc0:	10800044 	addi	r2,r2,1
    3bc4:	10800003 	ldbu	r2,0(r2)
    3bc8:	10803fcc 	andi	r2,r2,255
    3bcc:	1004923a 	slli	r2,r2,8
    3bd0:	e0fffc17 	ldw	r3,-16(fp)
    3bd4:	1884b03a 	or	r2,r3,r2
    3bd8:	e0bffc15 	stw	r2,-16(fp)
    word_value |= ((alt_u32)(*(src_addr + 2)) << 16);
    3bdc:	e0bfff17 	ldw	r2,-4(fp)
    3be0:	10800084 	addi	r2,r2,2
    3be4:	10800003 	ldbu	r2,0(r2)
    3be8:	10803fcc 	andi	r2,r2,255
    3bec:	1004943a 	slli	r2,r2,16
    3bf0:	e0fffc17 	ldw	r3,-16(fp)
    3bf4:	1884b03a 	or	r2,r3,r2
    3bf8:	e0bffc15 	stw	r2,-16(fp)
    word_value |= ((alt_u32)(*(src_addr + 3)) << 24);
    3bfc:	e0bfff17 	ldw	r2,-4(fp)
    3c00:	108000c4 	addi	r2,r2,3
    3c04:	10800003 	ldbu	r2,0(r2)
    3c08:	10803fcc 	andi	r2,r2,255
    3c0c:	1004963a 	slli	r2,r2,24
    3c10:	e0fffc17 	ldw	r3,-16(fp)
    3c14:	1884b03a 	or	r2,r3,r2
    3c18:	e0bffc15 	stw	r2,-16(fp)
    IOWR_32DIRECT(flash->dev.base_addr, offset, word_value);
    3c1c:	e0bffd17 	ldw	r2,-12(fp)
    3c20:	10c00a17 	ldw	r3,40(r2)
    3c24:	e0bffe17 	ldw	r2,-8(fp)
    3c28:	1885883a 	add	r2,r3,r2
    3c2c:	e0fffc17 	ldw	r3,-16(fp)
    3c30:	10c00035 	stwio	r3,0(r2)
  }

  return;
    3c34:	0001883a 	nop
}
    3c38:	e037883a 	mov	sp,fp
    3c3c:	df000017 	ldw	fp,0(sp)
    3c40:	dec00104 	addi	sp,sp,4
    3c44:	f800283a 	ret

00003c48 <alt_flash_program_block>:
*/
int alt_flash_program_block(  alt_flash_cfi_dev* flash, const int offset, 
                        const alt_u8* src_addr, 
                        const int length,
                        alt_program_word_fn program_word_func)
{
    3c48:	defff304 	addi	sp,sp,-52
    3c4c:	dfc00c15 	stw	ra,48(sp)
    3c50:	df000b15 	stw	fp,44(sp)
    3c54:	df000b04 	addi	fp,sp,44
    3c58:	e13ffc15 	stw	r4,-16(fp)
    3c5c:	e17ffd15 	stw	r5,-12(fp)
    3c60:	e1bffe15 	stw	r6,-8(fp)
    3c64:	e1ffff15 	stw	r7,-4(fp)
  int     ret_code = 0;
    3c68:	e03ff515 	stw	zero,-44(fp)

  /*
   * First take care of any writes which are on none native boundaries
   * as far as the flash is concerned.
   */
  bytes_to_preserve = ((int)((alt_u8*)flash->dev.base_addr + offset) % 
    3c6c:	e0bffc17 	ldw	r2,-16(fp)
    3c70:	10c00a17 	ldw	r3,40(r2)
    3c74:	e0bffd17 	ldw	r2,-12(fp)
    3c78:	1885883a 	add	r2,r3,r2
                      flash->mode_width);
    3c7c:	e0fffc17 	ldw	r3,-16(fp)
    3c80:	18c02e17 	ldw	r3,184(r3)

  /*
   * First take care of any writes which are on none native boundaries
   * as far as the flash is concerned.
   */
  bytes_to_preserve = ((int)((alt_u8*)flash->dev.base_addr + offset) % 
    3c84:	10c9283a 	div	r4,r2,r3
    3c88:	20c7383a 	mul	r3,r4,r3
    3c8c:	10c5c83a 	sub	r2,r2,r3
    3c90:	e0bff815 	stw	r2,-32(fp)
                      flash->mode_width);
  if ( bytes_to_preserve != 0)
    3c94:	e0bff817 	ldw	r2,-32(fp)
    3c98:	10003b26 	beq	r2,zero,3d88 <alt_flash_program_block+0x140>
  {
    unaligned_bytes = flash->mode_width - bytes_to_preserve;
    3c9c:	e0bffc17 	ldw	r2,-16(fp)
    3ca0:	10c02e17 	ldw	r3,184(r2)
    3ca4:	e0bff817 	ldw	r2,-32(fp)
    3ca8:	1885c83a 	sub	r2,r3,r2
    3cac:	e0bff915 	stw	r2,-28(fp)
    /*
     * Read the bytes we wish to preserve out of flash
     */
    for (i=0;i<bytes_to_preserve;i++)
    3cb0:	e03ff615 	stw	zero,-40(fp)
    3cb4:	00001206 	br	3d00 <alt_flash_program_block+0xb8>
    {
      unaligned[i] = IORD_8DIRECT(flash->dev.base_addr, 
    3cb8:	e0bffc17 	ldw	r2,-16(fp)
    3cbc:	10c00a17 	ldw	r3,40(r2)
    3cc0:	e13ffd17 	ldw	r4,-12(fp)
    3cc4:	e0bff817 	ldw	r2,-32(fp)
    3cc8:	2089c83a 	sub	r4,r4,r2
    3ccc:	e0bff617 	ldw	r2,-40(fp)
    3cd0:	2085883a 	add	r2,r4,r2
    3cd4:	1885883a 	add	r2,r3,r2
    3cd8:	10800023 	ldbuio	r2,0(r2)
    3cdc:	10803fcc 	andi	r2,r2,255
    3ce0:	1007883a 	mov	r3,r2
    3ce4:	e13ffb04 	addi	r4,fp,-20
    3ce8:	e0bff617 	ldw	r2,-40(fp)
    3cec:	2085883a 	add	r2,r4,r2
    3cf0:	10c00005 	stb	r3,0(r2)
  {
    unaligned_bytes = flash->mode_width - bytes_to_preserve;
    /*
     * Read the bytes we wish to preserve out of flash
     */
    for (i=0;i<bytes_to_preserve;i++)
    3cf4:	e0bff617 	ldw	r2,-40(fp)
    3cf8:	10800044 	addi	r2,r2,1
    3cfc:	e0bff615 	stw	r2,-40(fp)
    3d00:	e0fff617 	ldw	r3,-40(fp)
    3d04:	e0bff817 	ldw	r2,-32(fp)
    3d08:	18bfeb16 	blt	r3,r2,3cb8 <alt_flash_program_block+0x70>
    {
      unaligned[i] = IORD_8DIRECT(flash->dev.base_addr, 
                                offset-bytes_to_preserve+i);
    }

    for (i=0;i<unaligned_bytes;i++)
    3d0c:	e03ff615 	stw	zero,-40(fp)
    3d10:	00000d06 	br	3d48 <alt_flash_program_block+0x100>
    {
      unaligned[bytes_to_preserve + i] = *(alt_u8*)(src_addr + i);
    3d14:	e0fff817 	ldw	r3,-32(fp)
    3d18:	e0bff617 	ldw	r2,-40(fp)
    3d1c:	1885883a 	add	r2,r3,r2
    3d20:	e0fff617 	ldw	r3,-40(fp)
    3d24:	e13ffe17 	ldw	r4,-8(fp)
    3d28:	20c7883a 	add	r3,r4,r3
    3d2c:	18c00003 	ldbu	r3,0(r3)
    3d30:	e13ffb04 	addi	r4,fp,-20
    3d34:	2085883a 	add	r2,r4,r2
    3d38:	10c00005 	stb	r3,0(r2)
    {
      unaligned[i] = IORD_8DIRECT(flash->dev.base_addr, 
                                offset-bytes_to_preserve+i);
    }

    for (i=0;i<unaligned_bytes;i++)
    3d3c:	e0bff617 	ldw	r2,-40(fp)
    3d40:	10800044 	addi	r2,r2,1
    3d44:	e0bff615 	stw	r2,-40(fp)
    3d48:	e0fff617 	ldw	r3,-40(fp)
    3d4c:	e0bff917 	ldw	r2,-28(fp)
    3d50:	18bff016 	blt	r3,r2,3d14 <alt_flash_program_block+0xcc>
    {
      unaligned[bytes_to_preserve + i] = *(alt_u8*)(src_addr + i);
    }
    
    ret_code = (*program_word_func)(flash, offset-bytes_to_preserve, unaligned);
    3d54:	e0fffd17 	ldw	r3,-12(fp)
    3d58:	e0bff817 	ldw	r2,-32(fp)
    3d5c:	1887c83a 	sub	r3,r3,r2
    3d60:	e0bffb04 	addi	r2,fp,-20
    3d64:	e1c00217 	ldw	r7,8(fp)
    3d68:	e13ffc17 	ldw	r4,-16(fp)
    3d6c:	180b883a 	mov	r5,r3
    3d70:	100d883a 	mov	r6,r2
    3d74:	383ee83a 	callr	r7
    3d78:	e0bff515 	stw	r2,-44(fp)
    i = unaligned_bytes;
    3d7c:	e0bff917 	ldw	r2,-28(fp)
    3d80:	e0bff615 	stw	r2,-40(fp)
    3d84:	00000106 	br	3d8c <alt_flash_program_block+0x144>
  }
  else
  {
    i = 0;
    3d88:	e03ff615 	stw	zero,-40(fp)
  }

  unaligned_end_bytes = (offset+length) % flash->mode_width;
    3d8c:	e0fffd17 	ldw	r3,-12(fp)
    3d90:	e0bfff17 	ldw	r2,-4(fp)
    3d94:	1885883a 	add	r2,r3,r2
    3d98:	e0fffc17 	ldw	r3,-16(fp)
    3d9c:	18c02e17 	ldw	r3,184(r3)
    3da0:	10c9283a 	div	r4,r2,r3
    3da4:	20c7383a 	mul	r3,r4,r3
    3da8:	10c5c83a 	sub	r2,r2,r3
    3dac:	e0bffa15 	stw	r2,-24(fp)
  while ((ret_code == 0) && (i < (length-unaligned_end_bytes)))
    3db0:	00001106 	br	3df8 <alt_flash_program_block+0x1b0>
  {
    ret_code = (*program_word_func)(flash, offset+i, src_addr+i);
    3db4:	e0fffd17 	ldw	r3,-12(fp)
    3db8:	e0bff617 	ldw	r2,-40(fp)
    3dbc:	1887883a 	add	r3,r3,r2
    3dc0:	e0bff617 	ldw	r2,-40(fp)
    3dc4:	e13ffe17 	ldw	r4,-8(fp)
    3dc8:	2085883a 	add	r2,r4,r2
    3dcc:	e1c00217 	ldw	r7,8(fp)
    3dd0:	e13ffc17 	ldw	r4,-16(fp)
    3dd4:	180b883a 	mov	r5,r3
    3dd8:	100d883a 	mov	r6,r2
    3ddc:	383ee83a 	callr	r7
    3de0:	e0bff515 	stw	r2,-44(fp)
    i += flash->mode_width;     
    3de4:	e0bffc17 	ldw	r2,-16(fp)
    3de8:	10802e17 	ldw	r2,184(r2)
    3dec:	e0fff617 	ldw	r3,-40(fp)
    3df0:	1885883a 	add	r2,r3,r2
    3df4:	e0bff615 	stw	r2,-40(fp)
  {
    i = 0;
  }

  unaligned_end_bytes = (offset+length) % flash->mode_width;
  while ((ret_code == 0) && (i < (length-unaligned_end_bytes)))
    3df8:	e0bff517 	ldw	r2,-44(fp)
    3dfc:	1000051e 	bne	r2,zero,3e14 <alt_flash_program_block+0x1cc>
    3e00:	e0ffff17 	ldw	r3,-4(fp)
    3e04:	e0bffa17 	ldw	r2,-24(fp)
    3e08:	1885c83a 	sub	r2,r3,r2
    3e0c:	e0fff617 	ldw	r3,-40(fp)
    3e10:	18bfe816 	blt	r3,r2,3db4 <alt_flash_program_block+0x16c>

  /*
   * Now take care of any writes at the end of the buffer which are on none 
   * native boundaries as far as the flash is concerned.
   */
  if (unaligned_end_bytes && !ret_code)
    3e14:	e0bffa17 	ldw	r2,-24(fp)
    3e18:	10003b26 	beq	r2,zero,3f08 <alt_flash_program_block+0x2c0>
    3e1c:	e0bff517 	ldw	r2,-44(fp)
    3e20:	1000391e 	bne	r2,zero,3f08 <alt_flash_program_block+0x2c0>
  {
    bytes_to_preserve = flash->mode_width - unaligned_end_bytes;
    3e24:	e0bffc17 	ldw	r2,-16(fp)
    3e28:	10c02e17 	ldw	r3,184(r2)
    3e2c:	e0bffa17 	ldw	r2,-24(fp)
    3e30:	1885c83a 	sub	r2,r3,r2
    3e34:	e0bff815 	stw	r2,-32(fp)
    
    for (j=0;j<unaligned_end_bytes;j++)
    3e38:	e03ff715 	stw	zero,-36(fp)
    3e3c:	00000d06 	br	3e74 <alt_flash_program_block+0x22c>
    {
      unaligned[j] = *(alt_u8*)(src_addr+i+j);
    3e40:	e0fff617 	ldw	r3,-40(fp)
    3e44:	e0bff717 	ldw	r2,-36(fp)
    3e48:	1885883a 	add	r2,r3,r2
    3e4c:	e0fffe17 	ldw	r3,-8(fp)
    3e50:	1885883a 	add	r2,r3,r2
    3e54:	10c00003 	ldbu	r3,0(r2)
    3e58:	e13ffb04 	addi	r4,fp,-20
    3e5c:	e0bff717 	ldw	r2,-36(fp)
    3e60:	2085883a 	add	r2,r4,r2
    3e64:	10c00005 	stb	r3,0(r2)
   */
  if (unaligned_end_bytes && !ret_code)
  {
    bytes_to_preserve = flash->mode_width - unaligned_end_bytes;
    
    for (j=0;j<unaligned_end_bytes;j++)
    3e68:	e0bff717 	ldw	r2,-36(fp)
    3e6c:	10800044 	addi	r2,r2,1
    3e70:	e0bff715 	stw	r2,-36(fp)
    3e74:	e0fff717 	ldw	r3,-36(fp)
    3e78:	e0bffa17 	ldw	r2,-24(fp)
    3e7c:	18bff016 	blt	r3,r2,3e40 <alt_flash_program_block+0x1f8>
    {
      unaligned[j] = *(alt_u8*)(src_addr+i+j);
    }
    
    for (j=0;j<bytes_to_preserve;j++)
    3e80:	e03ff715 	stw	zero,-36(fp)
    3e84:	00001306 	br	3ed4 <alt_flash_program_block+0x28c>
    {
      unaligned[unaligned_end_bytes+j] = IORD_8DIRECT(flash->dev.base_addr, 
    3e88:	e0fffa17 	ldw	r3,-24(fp)
    3e8c:	e0bff717 	ldw	r2,-36(fp)
    3e90:	1885883a 	add	r2,r3,r2
    3e94:	e0fffc17 	ldw	r3,-16(fp)
    3e98:	19000a17 	ldw	r4,40(r3)
    3e9c:	e17ffd17 	ldw	r5,-12(fp)
    3ea0:	e0ffff17 	ldw	r3,-4(fp)
    3ea4:	28cb883a 	add	r5,r5,r3
    3ea8:	e0fff717 	ldw	r3,-36(fp)
    3eac:	28c7883a 	add	r3,r5,r3
    3eb0:	20c7883a 	add	r3,r4,r3
    3eb4:	18c00023 	ldbuio	r3,0(r3)
    3eb8:	18c03fcc 	andi	r3,r3,255
    3ebc:	e13ffb04 	addi	r4,fp,-20
    3ec0:	2085883a 	add	r2,r4,r2
    3ec4:	10c00005 	stb	r3,0(r2)
    for (j=0;j<unaligned_end_bytes;j++)
    {
      unaligned[j] = *(alt_u8*)(src_addr+i+j);
    }
    
    for (j=0;j<bytes_to_preserve;j++)
    3ec8:	e0bff717 	ldw	r2,-36(fp)
    3ecc:	10800044 	addi	r2,r2,1
    3ed0:	e0bff715 	stw	r2,-36(fp)
    3ed4:	e0fff717 	ldw	r3,-36(fp)
    3ed8:	e0bff817 	ldw	r2,-32(fp)
    3edc:	18bfea16 	blt	r3,r2,3e88 <alt_flash_program_block+0x240>
    {
      unaligned[unaligned_end_bytes+j] = IORD_8DIRECT(flash->dev.base_addr, 
                                                      offset+length+j);
    }

    ret_code = (*program_word_func)(flash, offset+i, unaligned);      
    3ee0:	e0fffd17 	ldw	r3,-12(fp)
    3ee4:	e0bff617 	ldw	r2,-40(fp)
    3ee8:	1887883a 	add	r3,r3,r2
    3eec:	e0bffb04 	addi	r2,fp,-20
    3ef0:	e1c00217 	ldw	r7,8(fp)
    3ef4:	e13ffc17 	ldw	r4,-16(fp)
    3ef8:	180b883a 	mov	r5,r3
    3efc:	100d883a 	mov	r6,r2
    3f00:	383ee83a 	callr	r7
    3f04:	e0bff515 	stw	r2,-44(fp)
  }

  return ret_code;
    3f08:	e0bff517 	ldw	r2,-44(fp)
}
    3f0c:	e037883a 	mov	sp,fp
    3f10:	dfc00117 	ldw	ra,4(sp)
    3f14:	df000017 	ldw	fp,0(sp)
    3f18:	dec00204 	addi	sp,sp,8
    3f1c:	f800283a 	ret

00003f20 <alt_read_query_entry_8bit>:

/*
 *  Read an 8 bit value from the CFI query table in flash
 */
alt_u8 alt_read_query_entry_8bit( alt_flash_cfi_dev* flash, int address)
{
    3f20:	defffd04 	addi	sp,sp,-12
    3f24:	df000215 	stw	fp,8(sp)
    3f28:	df000204 	addi	fp,sp,8
    3f2c:	e13ffe15 	stw	r4,-8(fp)
    3f30:	e17fff15 	stw	r5,-4(fp)
  return IORD_8DIRECT((alt_u8*)flash->dev.base_addr, address);
    3f34:	e0bffe17 	ldw	r2,-8(fp)
    3f38:	10c00a17 	ldw	r3,40(r2)
    3f3c:	e0bfff17 	ldw	r2,-4(fp)
    3f40:	1885883a 	add	r2,r3,r2
    3f44:	10800023 	ldbuio	r2,0(r2)
    3f48:	10803fcc 	andi	r2,r2,255
}
    3f4c:	e037883a 	mov	sp,fp
    3f50:	df000017 	ldw	fp,0(sp)
    3f54:	dec00104 	addi	sp,sp,4
    3f58:	f800283a 	ret

00003f5c <alt_read_query_entry_16bit>:

alt_u8 alt_read_query_entry_16bit( alt_flash_cfi_dev* flash, int address)
{
    3f5c:	defffd04 	addi	sp,sp,-12
    3f60:	df000215 	stw	fp,8(sp)
    3f64:	df000204 	addi	fp,sp,8
    3f68:	e13ffe15 	stw	r4,-8(fp)
    3f6c:	e17fff15 	stw	r5,-4(fp)
  return (IORD_16DIRECT((alt_u8*)flash->dev.base_addr, address*2) & 0xff);
    3f70:	e0bffe17 	ldw	r2,-8(fp)
    3f74:	10c00a17 	ldw	r3,40(r2)
    3f78:	e0bfff17 	ldw	r2,-4(fp)
    3f7c:	1085883a 	add	r2,r2,r2
    3f80:	1885883a 	add	r2,r3,r2
    3f84:	1080002b 	ldhuio	r2,0(r2)
    3f88:	10bfffcc 	andi	r2,r2,65535
}
    3f8c:	e037883a 	mov	sp,fp
    3f90:	df000017 	ldw	fp,0(sp)
    3f94:	dec00104 	addi	sp,sp,4
    3f98:	f800283a 	ret

00003f9c <alt_read_query_entry_32bit>:

alt_u8 alt_read_query_entry_32bit( alt_flash_cfi_dev* flash, int address)
{
    3f9c:	defffd04 	addi	sp,sp,-12
    3fa0:	df000215 	stw	fp,8(sp)
    3fa4:	df000204 	addi	fp,sp,8
    3fa8:	e13ffe15 	stw	r4,-8(fp)
    3fac:	e17fff15 	stw	r5,-4(fp)
  return (IORD_32DIRECT((alt_u8*)flash->dev.base_addr, address*4) & 0xff);
    3fb0:	e0bffe17 	ldw	r2,-8(fp)
    3fb4:	10c00a17 	ldw	r3,40(r2)
    3fb8:	e0bfff17 	ldw	r2,-4(fp)
    3fbc:	1085883a 	add	r2,r2,r2
    3fc0:	1085883a 	add	r2,r2,r2
    3fc4:	1885883a 	add	r2,r3,r2
    3fc8:	10800037 	ldwio	r2,0(r2)
}
    3fcc:	e037883a 	mov	sp,fp
    3fd0:	df000017 	ldw	fp,0(sp)
    3fd4:	dec00104 	addi	sp,sp,4
    3fd8:	f800283a 	ret

00003fdc <alt_write_flash_command_8bit_device_8bit_mode>:

/*
 * Write an 8 bit command to a flash
 */
void alt_write_flash_command_8bit_device_8bit_mode( void* base_addr, int offset, alt_u8 value)
{
    3fdc:	defffc04 	addi	sp,sp,-16
    3fe0:	df000315 	stw	fp,12(sp)
    3fe4:	df000304 	addi	fp,sp,12
    3fe8:	e13ffd15 	stw	r4,-12(fp)
    3fec:	e17ffe15 	stw	r5,-8(fp)
    3ff0:	3005883a 	mov	r2,r6
    3ff4:	e0bfff05 	stb	r2,-4(fp)
  IOWR_8DIRECT(base_addr, offset, value);
    3ff8:	e0bffe17 	ldw	r2,-8(fp)
    3ffc:	e0fffd17 	ldw	r3,-12(fp)
    4000:	1885883a 	add	r2,r3,r2
    4004:	e0ffff03 	ldbu	r3,-4(fp)
    4008:	10c00025 	stbio	r3,0(r2)
  return;
    400c:	0001883a 	nop
}
    4010:	e037883a 	mov	sp,fp
    4014:	df000017 	ldw	fp,0(sp)
    4018:	dec00104 	addi	sp,sp,4
    401c:	f800283a 	ret

00004020 <alt_write_flash_command_16bit_device_8bit_mode>:

void alt_write_flash_command_16bit_device_8bit_mode( void* base_addr, int offset, alt_u8 value)
{
    4020:	defffc04 	addi	sp,sp,-16
    4024:	df000315 	stw	fp,12(sp)
    4028:	df000304 	addi	fp,sp,12
    402c:	e13ffd15 	stw	r4,-12(fp)
    4030:	e17ffe15 	stw	r5,-8(fp)
    4034:	3005883a 	mov	r2,r6
    4038:	e0bfff05 	stb	r2,-4(fp)
  if (offset % 2)
    403c:	e0bffe17 	ldw	r2,-8(fp)
    4040:	1080004c 	andi	r2,r2,1
    4044:	10000726 	beq	r2,zero,4064 <alt_write_flash_command_16bit_device_8bit_mode+0x44>
  {
    IOWR_8DIRECT(base_addr, offset*2, value);
    4048:	e0bffe17 	ldw	r2,-8(fp)
    404c:	1085883a 	add	r2,r2,r2
    4050:	e0fffd17 	ldw	r3,-12(fp)
    4054:	1885883a 	add	r2,r3,r2
    4058:	e0ffff03 	ldbu	r3,-4(fp)
    405c:	10c00025 	stbio	r3,0(r2)
  }
  else
  {
    IOWR_8DIRECT(base_addr, (offset*2)+1, value);
  }
  return;
    4060:	00000706 	br	4080 <alt_write_flash_command_16bit_device_8bit_mode+0x60>
  {
    IOWR_8DIRECT(base_addr, offset*2, value);
  }
  else
  {
    IOWR_8DIRECT(base_addr, (offset*2)+1, value);
    4064:	e0bffe17 	ldw	r2,-8(fp)
    4068:	1085883a 	add	r2,r2,r2
    406c:	10800044 	addi	r2,r2,1
    4070:	e0fffd17 	ldw	r3,-12(fp)
    4074:	1885883a 	add	r2,r3,r2
    4078:	e0ffff03 	ldbu	r3,-4(fp)
    407c:	10c00025 	stbio	r3,0(r2)
  }
  return;
    4080:	0001883a 	nop
}
    4084:	e037883a 	mov	sp,fp
    4088:	df000017 	ldw	fp,0(sp)
    408c:	dec00104 	addi	sp,sp,4
    4090:	f800283a 	ret

00004094 <alt_write_flash_command_32bit_device_8bit_mode>:

void alt_write_flash_command_32bit_device_8bit_mode( void* base_addr, int offset, alt_u8 value)
{
    4094:	defffc04 	addi	sp,sp,-16
    4098:	df000315 	stw	fp,12(sp)
    409c:	df000304 	addi	fp,sp,12
    40a0:	e13ffd15 	stw	r4,-12(fp)
    40a4:	e17ffe15 	stw	r5,-8(fp)
    40a8:	3005883a 	mov	r2,r6
    40ac:	e0bfff05 	stb	r2,-4(fp)
  IOWR_8DIRECT(base_addr, offset*4, value);
    40b0:	e0bffe17 	ldw	r2,-8(fp)
    40b4:	1085883a 	add	r2,r2,r2
    40b8:	1085883a 	add	r2,r2,r2
    40bc:	e0fffd17 	ldw	r3,-12(fp)
    40c0:	1885883a 	add	r2,r3,r2
    40c4:	e0ffff03 	ldbu	r3,-4(fp)
    40c8:	10c00025 	stbio	r3,0(r2)
  return;
    40cc:	0001883a 	nop
}
    40d0:	e037883a 	mov	sp,fp
    40d4:	df000017 	ldw	fp,0(sp)
    40d8:	dec00104 	addi	sp,sp,4
    40dc:	f800283a 	ret

000040e0 <alt_write_flash_command_16bit_device_16bit_mode>:

void alt_write_flash_command_16bit_device_16bit_mode( void* base_addr, int offset, alt_u8 value)
{
    40e0:	defffc04 	addi	sp,sp,-16
    40e4:	df000315 	stw	fp,12(sp)
    40e8:	df000304 	addi	fp,sp,12
    40ec:	e13ffd15 	stw	r4,-12(fp)
    40f0:	e17ffe15 	stw	r5,-8(fp)
    40f4:	3005883a 	mov	r2,r6
    40f8:	e0bfff05 	stb	r2,-4(fp)
  IOWR_16DIRECT(base_addr, offset*2, ((alt_u16)value)& 0x00ff);
    40fc:	e0bffe17 	ldw	r2,-8(fp)
    4100:	1085883a 	add	r2,r2,r2
    4104:	e0fffd17 	ldw	r3,-12(fp)
    4108:	1885883a 	add	r2,r3,r2
    410c:	e0ffff03 	ldbu	r3,-4(fp)
    4110:	10c0002d 	sthio	r3,0(r2)
  return;
    4114:	0001883a 	nop
}
    4118:	e037883a 	mov	sp,fp
    411c:	df000017 	ldw	fp,0(sp)
    4120:	dec00104 	addi	sp,sp,4
    4124:	f800283a 	ret

00004128 <alt_write_flash_command_32bit_device_16bit_mode>:

void alt_write_flash_command_32bit_device_16bit_mode( void* base_addr, int offset, alt_u8 value)
{
    4128:	defffc04 	addi	sp,sp,-16
    412c:	df000315 	stw	fp,12(sp)
    4130:	df000304 	addi	fp,sp,12
    4134:	e13ffd15 	stw	r4,-12(fp)
    4138:	e17ffe15 	stw	r5,-8(fp)
    413c:	3005883a 	mov	r2,r6
    4140:	e0bfff05 	stb	r2,-4(fp)
  IOWR_16DIRECT(base_addr, offset*4, ((alt_u16)value)& 0x00ff);
    4144:	e0bffe17 	ldw	r2,-8(fp)
    4148:	1085883a 	add	r2,r2,r2
    414c:	1085883a 	add	r2,r2,r2
    4150:	e0fffd17 	ldw	r3,-12(fp)
    4154:	1885883a 	add	r2,r3,r2
    4158:	e0ffff03 	ldbu	r3,-4(fp)
    415c:	10c0002d 	sthio	r3,0(r2)
  return;
    4160:	0001883a 	nop
}
    4164:	e037883a 	mov	sp,fp
    4168:	df000017 	ldw	fp,0(sp)
    416c:	dec00104 	addi	sp,sp,4
    4170:	f800283a 	ret

00004174 <alt_write_flash_command_32bit_device_32bit_mode>:

void alt_write_flash_command_32bit_device_32bit_mode( void* base_addr, int offset, alt_u8 value)
{
    4174:	defffc04 	addi	sp,sp,-16
    4178:	df000315 	stw	fp,12(sp)
    417c:	df000304 	addi	fp,sp,12
    4180:	e13ffd15 	stw	r4,-12(fp)
    4184:	e17ffe15 	stw	r5,-8(fp)
    4188:	3005883a 	mov	r2,r6
    418c:	e0bfff05 	stb	r2,-4(fp)
  IOWR_32DIRECT(base_addr, offset*4, ((alt_u32)value)& 0x000000ff);
    4190:	e0bffe17 	ldw	r2,-8(fp)
    4194:	1085883a 	add	r2,r2,r2
    4198:	1085883a 	add	r2,r2,r2
    419c:	e0fffd17 	ldw	r3,-12(fp)
    41a0:	1885883a 	add	r2,r3,r2
    41a4:	e0ffff03 	ldbu	r3,-4(fp)
    41a8:	10c00035 	stwio	r3,0(r2)
  return;
    41ac:	0001883a 	nop
}
    41b0:	e037883a 	mov	sp,fp
    41b4:	df000017 	ldw	fp,0(sp)
    41b8:	dec00104 	addi	sp,sp,4
    41bc:	f800283a 	ret

000041c0 <alt_write_native_8bit>:

/*
 * Write the value passed to the flash
 */
void alt_write_native_8bit( void* address, alt_u32 value)
{
    41c0:	defffd04 	addi	sp,sp,-12
    41c4:	df000215 	stw	fp,8(sp)
    41c8:	df000204 	addi	fp,sp,8
    41cc:	e13ffe15 	stw	r4,-8(fp)
    41d0:	e17fff15 	stw	r5,-4(fp)
  IOWR_8DIRECT(address, 0, (alt_u8)(value&0xff));
    41d4:	e0bfff17 	ldw	r2,-4(fp)
    41d8:	10c03fcc 	andi	r3,r2,255
    41dc:	e0bffe17 	ldw	r2,-8(fp)
    41e0:	10c00025 	stbio	r3,0(r2)
  return;
    41e4:	0001883a 	nop
}
    41e8:	e037883a 	mov	sp,fp
    41ec:	df000017 	ldw	fp,0(sp)
    41f0:	dec00104 	addi	sp,sp,4
    41f4:	f800283a 	ret

000041f8 <alt_write_native_16bit>:

void alt_write_native_16bit( void* address, alt_u32 value)
{
    41f8:	defffd04 	addi	sp,sp,-12
    41fc:	df000215 	stw	fp,8(sp)
    4200:	df000204 	addi	fp,sp,8
    4204:	e13ffe15 	stw	r4,-8(fp)
    4208:	e17fff15 	stw	r5,-4(fp)
  IOWR_16DIRECT(address, 0, ((alt_u16)value)& 0xffff);
    420c:	e0bfff17 	ldw	r2,-4(fp)
    4210:	10ffffcc 	andi	r3,r2,65535
    4214:	e0bffe17 	ldw	r2,-8(fp)
    4218:	10c0002d 	sthio	r3,0(r2)
  return;
    421c:	0001883a 	nop
}
    4220:	e037883a 	mov	sp,fp
    4224:	df000017 	ldw	fp,0(sp)
    4228:	dec00104 	addi	sp,sp,4
    422c:	f800283a 	ret

00004230 <alt_write_native_32bit>:

void alt_write_native_32bit( void* address, alt_u32 value)
{
    4230:	defffd04 	addi	sp,sp,-12
    4234:	df000215 	stw	fp,8(sp)
    4238:	df000204 	addi	fp,sp,8
    423c:	e13ffe15 	stw	r4,-8(fp)
    4240:	e17fff15 	stw	r5,-4(fp)
  IOWR_32DIRECT(address, 0, value);
    4244:	e0ffff17 	ldw	r3,-4(fp)
    4248:	e0bffe17 	ldw	r2,-8(fp)
    424c:	10c00035 	stwio	r3,0(r2)
  return;
    4250:	0001883a 	nop
}
    4254:	e037883a 	mov	sp,fp
    4258:	df000017 	ldw	fp,0(sp)
    425c:	dec00104 	addi	sp,sp,4
    4260:	f800283a 	ret

00004264 <alt_set_flash_width_func>:
 * 
 * Setup the function pointers for writing a byte to the flash for the width
 * of the device
 */
int alt_set_flash_width_func( alt_flash_cfi_dev* flash)
{ 
    4264:	defffd04 	addi	sp,sp,-12
    4268:	df000215 	stw	fp,8(sp)
    426c:	df000204 	addi	fp,sp,8
    4270:	e13fff15 	stw	r4,-4(fp)
  int ret_code = 0;
    4274:	e03ffe15 	stw	zero,-8(fp)
  
  switch(flash->mode_width)
    4278:	e0bfff17 	ldw	r2,-4(fp)
    427c:	10802e17 	ldw	r2,184(r2)
    4280:	10c000a0 	cmpeqi	r3,r2,2
    4284:	1800231e 	bne	r3,zero,4314 <alt_set_flash_width_func+0xb0>
    4288:	10c00120 	cmpeqi	r3,r2,4
    428c:	1800371e 	bne	r3,zero,436c <alt_set_flash_width_func+0x108>
    4290:	10800060 	cmpeqi	r2,r2,1
    4294:	10003e26 	beq	r2,zero,4390 <alt_set_flash_width_func+0x12c>
  {
    case 1:
    {
      flash->write_native = alt_write_native_8bit;
    4298:	e0bfff17 	ldw	r2,-4(fp)
    429c:	00c00034 	movhi	r3,0
    42a0:	18d07004 	addi	r3,r3,16832
    42a4:	10c03515 	stw	r3,212(r2)

      if (flash->device_width == 1)
    42a8:	e0bfff17 	ldw	r2,-4(fp)
    42ac:	10802f17 	ldw	r2,188(r2)
    42b0:	10800058 	cmpnei	r2,r2,1
    42b4:	1000051e 	bne	r2,zero,42cc <alt_set_flash_width_func+0x68>
      {
        flash->write_command = alt_write_flash_command_8bit_device_8bit_mode;
    42b8:	e0bfff17 	ldw	r2,-4(fp)
    42bc:	00c00034 	movhi	r3,0
    42c0:	18cff704 	addi	r3,r3,16348
    42c4:	10c03315 	stw	r3,204(r2)
      }
      else if (flash->device_width == 4)
      {
        flash->write_command = alt_write_flash_command_32bit_device_8bit_mode;
      }
      break;
    42c8:	00003406 	br	439c <alt_set_flash_width_func+0x138>

      if (flash->device_width == 1)
      {
        flash->write_command = alt_write_flash_command_8bit_device_8bit_mode;
      }
      else if (flash->device_width == 2)
    42cc:	e0bfff17 	ldw	r2,-4(fp)
    42d0:	10802f17 	ldw	r2,188(r2)
    42d4:	10800098 	cmpnei	r2,r2,2
    42d8:	1000051e 	bne	r2,zero,42f0 <alt_set_flash_width_func+0x8c>
      {
        flash->write_command = alt_write_flash_command_16bit_device_8bit_mode;
    42dc:	e0bfff17 	ldw	r2,-4(fp)
    42e0:	00c00034 	movhi	r3,0
    42e4:	18d00804 	addi	r3,r3,16416
    42e8:	10c03315 	stw	r3,204(r2)
      }
      else if (flash->device_width == 4)
      {
        flash->write_command = alt_write_flash_command_32bit_device_8bit_mode;
      }
      break;
    42ec:	00002b06 	br	439c <alt_set_flash_width_func+0x138>
      }
      else if (flash->device_width == 2)
      {
        flash->write_command = alt_write_flash_command_16bit_device_8bit_mode;
      }
      else if (flash->device_width == 4)
    42f0:	e0bfff17 	ldw	r2,-4(fp)
    42f4:	10802f17 	ldw	r2,188(r2)
    42f8:	10800118 	cmpnei	r2,r2,4
    42fc:	1000271e 	bne	r2,zero,439c <alt_set_flash_width_func+0x138>
      {
        flash->write_command = alt_write_flash_command_32bit_device_8bit_mode;
    4300:	e0bfff17 	ldw	r2,-4(fp)
    4304:	00c00034 	movhi	r3,0
    4308:	18d02504 	addi	r3,r3,16532
    430c:	10c03315 	stw	r3,204(r2)
      }
      break;
    4310:	00002206 	br	439c <alt_set_flash_width_func+0x138>
    }
    case 2:
    {
      flash->write_native = alt_write_native_16bit;
    4314:	e0bfff17 	ldw	r2,-4(fp)
    4318:	00c00034 	movhi	r3,0
    431c:	18d07e04 	addi	r3,r3,16888
    4320:	10c03515 	stw	r3,212(r2)

      if (flash->device_width == 2)
    4324:	e0bfff17 	ldw	r2,-4(fp)
    4328:	10802f17 	ldw	r2,188(r2)
    432c:	10800098 	cmpnei	r2,r2,2
    4330:	1000051e 	bne	r2,zero,4348 <alt_set_flash_width_func+0xe4>
      {
        flash->write_command = alt_write_flash_command_16bit_device_16bit_mode;
    4334:	e0bfff17 	ldw	r2,-4(fp)
    4338:	00c00034 	movhi	r3,0
    433c:	18d03804 	addi	r3,r3,16608
    4340:	10c03315 	stw	r3,204(r2)
      else if (flash->device_width == 4)
      {
        flash->write_command = alt_write_flash_command_32bit_device_16bit_mode;
      }

      break;
    4344:	00001706 	br	43a4 <alt_set_flash_width_func+0x140>

      if (flash->device_width == 2)
      {
        flash->write_command = alt_write_flash_command_16bit_device_16bit_mode;
      }
      else if (flash->device_width == 4)
    4348:	e0bfff17 	ldw	r2,-4(fp)
    434c:	10802f17 	ldw	r2,188(r2)
    4350:	10800118 	cmpnei	r2,r2,4
    4354:	1000131e 	bne	r2,zero,43a4 <alt_set_flash_width_func+0x140>
      {
        flash->write_command = alt_write_flash_command_32bit_device_16bit_mode;
    4358:	e0bfff17 	ldw	r2,-4(fp)
    435c:	00c00034 	movhi	r3,0
    4360:	18d04a04 	addi	r3,r3,16680
    4364:	10c03315 	stw	r3,204(r2)
      }

      break;
    4368:	00000e06 	br	43a4 <alt_set_flash_width_func+0x140>
    }
    case 4:
    {
      flash->write_native = alt_write_native_32bit;
    436c:	e0bfff17 	ldw	r2,-4(fp)
    4370:	00c00034 	movhi	r3,0
    4374:	18d08c04 	addi	r3,r3,16944
    4378:	10c03515 	stw	r3,212(r2)
      flash->write_command = alt_write_flash_command_32bit_device_32bit_mode;
    437c:	e0bfff17 	ldw	r2,-4(fp)
    4380:	00c00034 	movhi	r3,0
    4384:	18d05d04 	addi	r3,r3,16756
    4388:	10c03315 	stw	r3,204(r2)
      break;
    438c:	00000606 	br	43a8 <alt_set_flash_width_func+0x144>
    }
    default:
    {
      ret_code = -EACCES;
    4390:	00bffcc4 	movi	r2,-13
    4394:	e0bffe15 	stw	r2,-8(fp)
    4398:	00000306 	br	43a8 <alt_set_flash_width_func+0x144>
      }
      else if (flash->device_width == 4)
      {
        flash->write_command = alt_write_flash_command_32bit_device_8bit_mode;
      }
      break;
    439c:	0001883a 	nop
    43a0:	00000106 	br	43a8 <alt_set_flash_width_func+0x144>
      else if (flash->device_width == 4)
      {
        flash->write_command = alt_write_flash_command_32bit_device_16bit_mode;
      }

      break;
    43a4:	0001883a 	nop
    {
      ret_code = -EACCES;
    }
  }

  if (!ret_code)
    43a8:	e0bffe17 	ldw	r2,-8(fp)
    43ac:	1000191e 	bne	r2,zero,4414 <alt_set_flash_width_func+0x1b0>
  {
    switch(flash->device_width)
    43b0:	e0bfff17 	ldw	r2,-4(fp)
    43b4:	10802f17 	ldw	r2,188(r2)
    43b8:	10c000a0 	cmpeqi	r3,r2,2
    43bc:	1800091e 	bne	r3,zero,43e4 <alt_set_flash_width_func+0x180>
    43c0:	10c00120 	cmpeqi	r3,r2,4
    43c4:	18000c1e 	bne	r3,zero,43f8 <alt_set_flash_width_func+0x194>
    43c8:	10800060 	cmpeqi	r2,r2,1
    43cc:	10000f26 	beq	r2,zero,440c <alt_set_flash_width_func+0x1a8>
    {
      case 1:
      {
        flash->read_query = alt_read_query_entry_8bit;
    43d0:	e0bfff17 	ldw	r2,-4(fp)
    43d4:	00c00034 	movhi	r3,0
    43d8:	18cfc804 	addi	r3,r3,16160
    43dc:	10c03415 	stw	r3,208(r2)
        break;
    43e0:	00000c06 	br	4414 <alt_set_flash_width_func+0x1b0>
      }
      case 2:
      {
        flash->read_query = alt_read_query_entry_16bit;
    43e4:	e0bfff17 	ldw	r2,-4(fp)
    43e8:	00c00034 	movhi	r3,0
    43ec:	18cfd704 	addi	r3,r3,16220
    43f0:	10c03415 	stw	r3,208(r2)
        break;
    43f4:	00000706 	br	4414 <alt_set_flash_width_func+0x1b0>
      }
      case 4:
      {
        flash->read_query = alt_read_query_entry_32bit;
    43f8:	e0bfff17 	ldw	r2,-4(fp)
    43fc:	00c00034 	movhi	r3,0
    4400:	18cfe704 	addi	r3,r3,16284
    4404:	10c03415 	stw	r3,208(r2)
        break;
    4408:	00000206 	br	4414 <alt_set_flash_width_func+0x1b0>
      }
      default:
      {
        ret_code = -EACCES;
    440c:	00bffcc4 	movi	r2,-13
    4410:	e0bffe15 	stw	r2,-8(fp)
      }
    }
  }

  return ret_code;
    4414:	e0bffe17 	ldw	r2,-8(fp)
}
    4418:	e037883a 	mov	sp,fp
    441c:	df000017 	ldw	fp,0(sp)
    4420:	dec00104 	addi	sp,sp,4
    4424:	f800283a 	ret

00004428 <alt_set_flash_algorithm_func>:
 * 
 * Setup the function pointers to the functions for this algorithm
 * 
 */
int alt_set_flash_algorithm_func( alt_flash_cfi_dev* flash)
{
    4428:	defffd04 	addi	sp,sp,-12
    442c:	df000215 	stw	fp,8(sp)
    4430:	df000204 	addi	fp,sp,8
    4434:	e13fff15 	stw	r4,-4(fp)
  int ret_code = 0;
    4438:	e03ffe15 	stw	zero,-8(fp)
 
  switch(flash->algorithm)
    443c:	e0bfff17 	ldw	r2,-4(fp)
    4440:	10802d17 	ldw	r2,180(r2)
    4444:	10c000a0 	cmpeqi	r3,r2,2
    4448:	1800051e 	bne	r3,zero,4460 <alt_set_flash_algorithm_func+0x38>
    444c:	10c000e0 	cmpeqi	r3,r2,3
    4450:	18000c1e 	bne	r3,zero,4484 <alt_set_flash_algorithm_func+0x5c>
    4454:	10800060 	cmpeqi	r2,r2,1
    4458:	10000a1e 	bne	r2,zero,4484 <alt_set_flash_algorithm_func+0x5c>
    445c:	00001206 	br	44a8 <alt_set_flash_algorithm_func+0x80>
  {
    case CFI_ALG_AMD:
    {
      flash->dev.erase_block = alt_erase_block_amd;
    4460:	e0bfff17 	ldw	r2,-4(fp)
    4464:	00c00074 	movhi	r3,1
    4468:	18e53004 	addi	r3,r3,-27456
    446c:	10c00815 	stw	r3,32(r2)
      flash->dev.write_block = alt_program_amd;
    4470:	e0bfff17 	ldw	r2,-4(fp)
    4474:	00c00074 	movhi	r3,1
    4478:	18e51604 	addi	r3,r3,-27560
    447c:	10c00915 	stw	r3,36(r2)
      break;
    4480:	00000b06 	br	44b0 <alt_set_flash_algorithm_func+0x88>
    }
    case CFI_ALG_INTEL:
    case CFI_ALG_INTEL_STRATA:
    {
      flash->dev.erase_block = alt_erase_block_intel;
    4484:	e0bfff17 	ldw	r2,-4(fp)
    4488:	00c00074 	movhi	r3,1
    448c:	18e64e04 	addi	r3,r3,-26312
    4490:	10c00815 	stw	r3,32(r2)
      flash->dev.write_block = alt_program_intel;
    4494:	e0bfff17 	ldw	r2,-4(fp)
    4498:	00c00074 	movhi	r3,1
    449c:	18e62e04 	addi	r3,r3,-26440
    44a0:	10c00915 	stw	r3,36(r2)
      break;
    44a4:	00000206 	br	44b0 <alt_set_flash_algorithm_func+0x88>
    }
    default:
    {
      ret_code = -EIO;
    44a8:	00bffec4 	movi	r2,-5
    44ac:	e0bffe15 	stw	r2,-8(fp)
    }
  } 
  return ret_code;  
    44b0:	e0bffe17 	ldw	r2,-8(fp)
}
    44b4:	e037883a 	mov	sp,fp
    44b8:	df000017 	ldw	fp,0(sp)
    44bc:	dec00104 	addi	sp,sp,4
    44c0:	f800283a 	ret

000044c4 <alt_read_16bit_query_entry>:
 * read_16bit_query_entry
 * 
 * Read a 16 bit entry from the CFI Query table
 */
static alt_u16 alt_read_16bit_query_entry(alt_flash_cfi_dev* flash, int address)
{
    44c4:	defffb04 	addi	sp,sp,-20
    44c8:	dfc00415 	stw	ra,16(sp)
    44cc:	df000315 	stw	fp,12(sp)
    44d0:	df000304 	addi	fp,sp,12
    44d4:	e13ffe15 	stw	r4,-8(fp)
    44d8:	e17fff15 	stw	r5,-4(fp)
  alt_u16 ret_code;

  ret_code = (*flash->read_query)( flash, address);
    44dc:	e0bffe17 	ldw	r2,-8(fp)
    44e0:	10803417 	ldw	r2,208(r2)
    44e4:	e13ffe17 	ldw	r4,-8(fp)
    44e8:	e17fff17 	ldw	r5,-4(fp)
    44ec:	103ee83a 	callr	r2
    44f0:	10803fcc 	andi	r2,r2,255
    44f4:	e0bffd0d 	sth	r2,-12(fp)
  ret_code |= (((int)(*flash->read_query)(flash, address+1)) << 8);                   
    44f8:	e0bffe17 	ldw	r2,-8(fp)
    44fc:	10c03417 	ldw	r3,208(r2)
    4500:	e0bfff17 	ldw	r2,-4(fp)
    4504:	10800044 	addi	r2,r2,1
    4508:	e13ffe17 	ldw	r4,-8(fp)
    450c:	100b883a 	mov	r5,r2
    4510:	183ee83a 	callr	r3
    4514:	10803fcc 	andi	r2,r2,255
    4518:	1004923a 	slli	r2,r2,8
    451c:	1007883a 	mov	r3,r2
    4520:	e0bffd0b 	ldhu	r2,-12(fp)
    4524:	1884b03a 	or	r2,r3,r2
    4528:	e0bffd0d 	sth	r2,-12(fp)

  return ret_code;
    452c:	e0bffd0b 	ldhu	r2,-12(fp)
}
    4530:	e037883a 	mov	sp,fp
    4534:	dfc00117 	ldw	ra,4(sp)
    4538:	df000017 	ldw	fp,0(sp)
    453c:	dec00204 	addi	sp,sp,8
    4540:	f800283a 	ret

00004544 <alt_read_cfi_table>:
 * read_cfi_table
 * 
 * Read the CFI Table
 */
int alt_read_cfi_table(alt_flash_cfi_dev* flash)
{
    4544:	defff304 	addi	sp,sp,-52
    4548:	dfc00c15 	stw	ra,48(sp)
    454c:	df000b15 	stw	fp,44(sp)
    4550:	df000b04 	addi	fp,sp,44
    4554:	e13fff15 	stw	r4,-4(fp)
  int   i,j;
  int   device_size;
  int   ret_code = 0;
    4558:	e03ff715 	stw	zero,-36(fp)
  int   size = 0;
    455c:	e03ff815 	stw	zero,-32(fp)
  int   swap;
  int   typical_timeout;
  int   max_timeout;
  int   offset = 0;
    4560:	e03ff915 	stw	zero,-28(fp)
   
  /*
  * Check that the Primary Vendor Specific table
  * starts with the letters PRI                                                         
  */
  ret_code = alt_check_primary_table(flash);
    4564:	e13fff17 	ldw	r4,-4(fp)
    4568:	000527c0 	call	527c <alt_check_primary_table>
    456c:	e0bff715 	stw	r2,-36(fp)

  if (!ret_code)
    4570:	e0bff717 	ldw	r2,-36(fp)
    4574:	10015f1e 	bne	r2,zero,4af4 <alt_read_cfi_table+0x5b0>
  {
    flash->algorithm = (*flash->read_query)(flash, 0x13);
    4578:	e0bfff17 	ldw	r2,-4(fp)
    457c:	10803417 	ldw	r2,208(r2)
    4580:	e13fff17 	ldw	r4,-4(fp)
    4584:	014004c4 	movi	r5,19
    4588:	103ee83a 	callr	r2
    458c:	10c03fcc 	andi	r3,r2,255
    4590:	e0bfff17 	ldw	r2,-4(fp)
    4594:	10c02d15 	stw	r3,180(r2)
  
    /* 
     * Let's read the write timeout values from the flash 
     * 
     */
    typical_timeout = (*flash->read_query)( flash, 0x1f);
    4598:	e0bfff17 	ldw	r2,-4(fp)
    459c:	10803417 	ldw	r2,208(r2)
    45a0:	e13fff17 	ldw	r4,-4(fp)
    45a4:	014007c4 	movi	r5,31
    45a8:	103ee83a 	callr	r2
    45ac:	10803fcc 	andi	r2,r2,255
    45b0:	e0bffa15 	stw	r2,-24(fp)
    max_timeout = (*flash->read_query)( flash, 0x23);
    45b4:	e0bfff17 	ldw	r2,-4(fp)
    45b8:	10803417 	ldw	r2,208(r2)
    45bc:	e13fff17 	ldw	r4,-4(fp)
    45c0:	014008c4 	movi	r5,35
    45c4:	103ee83a 	callr	r2
    45c8:	10803fcc 	andi	r2,r2,255
    45cc:	e0bffb15 	stw	r2,-20(fp)
    
    if ((typical_timeout == 0 ) || (max_timeout == 0))
    45d0:	e0bffa17 	ldw	r2,-24(fp)
    45d4:	10000226 	beq	r2,zero,45e0 <alt_read_cfi_table+0x9c>
    45d8:	e0bffb17 	ldw	r2,-20(fp)
    45dc:	1000041e 	bne	r2,zero,45f0 <alt_read_cfi_table+0xac>
    {
      flash->write_timeout = 1000; /* 1ms should be more than enough */
    45e0:	e0bfff17 	ldw	r2,-4(fp)
    45e4:	00c0fa04 	movi	r3,1000
    45e8:	10c03015 	stw	r3,192(r2)
    45ec:	00000706 	br	460c <alt_read_cfi_table+0xc8>
    }
    else
    {
      flash->write_timeout = (1 << typical_timeout) * (1 << max_timeout);
    45f0:	00c00044 	movi	r3,1
    45f4:	e0bffa17 	ldw	r2,-24(fp)
    45f8:	1886983a 	sll	r3,r3,r2
    45fc:	e0bffb17 	ldw	r2,-20(fp)
    4600:	1886983a 	sll	r3,r3,r2
    4604:	e0bfff17 	ldw	r2,-4(fp)
    4608:	10c03015 	stw	r3,192(r2)
    }
   
    /* Let's read the block erase timeout values from the flash */
    typical_timeout = (*flash->read_query)( flash, 0x21);
    460c:	e0bfff17 	ldw	r2,-4(fp)
    4610:	10803417 	ldw	r2,208(r2)
    4614:	e13fff17 	ldw	r4,-4(fp)
    4618:	01400844 	movi	r5,33
    461c:	103ee83a 	callr	r2
    4620:	10803fcc 	andi	r2,r2,255
    4624:	e0bffa15 	stw	r2,-24(fp)
    max_timeout = (*flash->read_query)( flash, 0x25);
    4628:	e0bfff17 	ldw	r2,-4(fp)
    462c:	10803417 	ldw	r2,208(r2)
    4630:	e13fff17 	ldw	r4,-4(fp)
    4634:	01400944 	movi	r5,37
    4638:	103ee83a 	callr	r2
    463c:	10803fcc 	andi	r2,r2,255
    4640:	e0bffb15 	stw	r2,-20(fp)
    
    if ((typical_timeout == 0 ) || (max_timeout == 0))
    4644:	e0bffa17 	ldw	r2,-24(fp)
    4648:	10000226 	beq	r2,zero,4654 <alt_read_cfi_table+0x110>
    464c:	e0bffb17 	ldw	r2,-20(fp)
    4650:	1000051e 	bne	r2,zero,4668 <alt_read_cfi_table+0x124>
    {
      flash->erase_timeout = 20000000; /* 20s should be more than enough */
    4654:	e0bfff17 	ldw	r2,-4(fp)
    4658:	00c04c74 	movhi	r3,305
    465c:	18cb4004 	addi	r3,r3,11520
    4660:	10c03115 	stw	r3,196(r2)
    4664:	00000806 	br	4688 <alt_read_cfi_table+0x144>
    }
    else
    {
      flash->erase_timeout = (1 << typical_timeout) * (1 << max_timeout) * 1000;
    4668:	00c00044 	movi	r3,1
    466c:	e0bffa17 	ldw	r2,-24(fp)
    4670:	1886983a 	sll	r3,r3,r2
    4674:	e0bffb17 	ldw	r2,-20(fp)
    4678:	1884983a 	sll	r2,r3,r2
    467c:	10c0fa24 	muli	r3,r2,1000
    4680:	e0bfff17 	ldw	r2,-4(fp)
    4684:	10c03115 	stw	r3,196(r2)
    }
   
    device_size = 0x1 << (*flash->read_query)( flash, 0x27);
    4688:	e0bfff17 	ldw	r2,-4(fp)
    468c:	10803417 	ldw	r2,208(r2)
    4690:	e13fff17 	ldw	r4,-4(fp)
    4694:	014009c4 	movi	r5,39
    4698:	103ee83a 	callr	r2
    469c:	10803fcc 	andi	r2,r2,255
    46a0:	00c00044 	movi	r3,1
    46a4:	1884983a 	sll	r2,r3,r2
    46a8:	e0bffc15 	stw	r2,-16(fp)
  
    flash->dev.number_of_regions = (*flash->read_query)(flash, 0x2c);
    46ac:	e0bfff17 	ldw	r2,-4(fp)
    46b0:	10803417 	ldw	r2,208(r2)
    46b4:	e13fff17 	ldw	r4,-4(fp)
    46b8:	01400b04 	movi	r5,44
    46bc:	103ee83a 	callr	r2
    46c0:	10c03fcc 	andi	r3,r2,255
    46c4:	e0bfff17 	ldw	r2,-4(fp)
    46c8:	10c00c15 	stw	r3,48(r2)
    
    if (flash->dev.number_of_regions > ALT_MAX_NUMBER_OF_FLASH_REGIONS)
    46cc:	e0bfff17 	ldw	r2,-4(fp)
    46d0:	10800c17 	ldw	r2,48(r2)
    46d4:	10800250 	cmplti	r2,r2,9
    46d8:	1000031e 	bne	r2,zero,46e8 <alt_read_cfi_table+0x1a4>
    {
      ret_code = -ENOMEM;
    46dc:	00bffd04 	movi	r2,-12
    46e0:	e0bff715 	stw	r2,-36(fp)
    46e4:	00006006 	br	4868 <alt_read_cfi_table+0x324>
    }
    else
    {
      for(i=0;i<flash->dev.number_of_regions;i++)
    46e8:	e03ff515 	stw	zero,-44(fp)
    46ec:	00005506 	br	4844 <alt_read_cfi_table+0x300>
      {
        flash->dev.region_info[i].number_of_blocks =  alt_read_16bit_query_entry( 
                                                            flash,
                                                            (0x2D+i*4));
    46f0:	e0bff517 	ldw	r2,-44(fp)
    46f4:	1085883a 	add	r2,r2,r2
    46f8:	1085883a 	add	r2,r2,r2
    }
    else
    {
      for(i=0;i<flash->dev.number_of_regions;i++)
      {
        flash->dev.region_info[i].number_of_blocks =  alt_read_16bit_query_entry( 
    46fc:	10800b44 	addi	r2,r2,45
    4700:	e13fff17 	ldw	r4,-4(fp)
    4704:	100b883a 	mov	r5,r2
    4708:	00044c40 	call	44c4 <alt_read_16bit_query_entry>
    470c:	10ffffcc 	andi	r3,r2,65535
    4710:	e13fff17 	ldw	r4,-4(fp)
    4714:	e0bff517 	ldw	r2,-44(fp)
    4718:	1004913a 	slli	r2,r2,4
    471c:	2085883a 	add	r2,r4,r2
    4720:	10800f04 	addi	r2,r2,60
    4724:	10c00015 	stw	r3,0(r2)
                                                            flash,
                                                            (0x2D+i*4));
        flash->dev.region_info[i].number_of_blocks += 1; 
    4728:	e0ffff17 	ldw	r3,-4(fp)
    472c:	e0bff517 	ldw	r2,-44(fp)
    4730:	1004913a 	slli	r2,r2,4
    4734:	1885883a 	add	r2,r3,r2
    4738:	10800f04 	addi	r2,r2,60
    473c:	10800017 	ldw	r2,0(r2)
    4740:	10c00044 	addi	r3,r2,1
    4744:	e13fff17 	ldw	r4,-4(fp)
    4748:	e0bff517 	ldw	r2,-44(fp)
    474c:	1004913a 	slli	r2,r2,4
    4750:	2085883a 	add	r2,r4,r2
    4754:	10800f04 	addi	r2,r2,60
    4758:	10c00015 	stw	r3,0(r2)
        flash->dev.region_info[i].block_size =  alt_read_16bit_query_entry( flash, 
                                                              (0x2F+i*4));
    475c:	e0bff517 	ldw	r2,-44(fp)
    4760:	1085883a 	add	r2,r2,r2
    4764:	1085883a 	add	r2,r2,r2
      {
        flash->dev.region_info[i].number_of_blocks =  alt_read_16bit_query_entry( 
                                                            flash,
                                                            (0x2D+i*4));
        flash->dev.region_info[i].number_of_blocks += 1; 
        flash->dev.region_info[i].block_size =  alt_read_16bit_query_entry( flash, 
    4768:	10800bc4 	addi	r2,r2,47
    476c:	e13fff17 	ldw	r4,-4(fp)
    4770:	100b883a 	mov	r5,r2
    4774:	00044c40 	call	44c4 <alt_read_16bit_query_entry>
    4778:	10ffffcc 	andi	r3,r2,65535
    477c:	e13fff17 	ldw	r4,-4(fp)
    4780:	e0bff517 	ldw	r2,-44(fp)
    4784:	10800104 	addi	r2,r2,4
    4788:	1004913a 	slli	r2,r2,4
    478c:	2085883a 	add	r2,r4,r2
    4790:	10c00015 	stw	r3,0(r2)
                                                              (0x2F+i*4));
        flash->dev.region_info[i].block_size *= 256;
    4794:	e0ffff17 	ldw	r3,-4(fp)
    4798:	e0bff517 	ldw	r2,-44(fp)
    479c:	10800104 	addi	r2,r2,4
    47a0:	1004913a 	slli	r2,r2,4
    47a4:	1885883a 	add	r2,r3,r2
    47a8:	10800017 	ldw	r2,0(r2)
    47ac:	1006923a 	slli	r3,r2,8
    47b0:	e13fff17 	ldw	r4,-4(fp)
    47b4:	e0bff517 	ldw	r2,-44(fp)
    47b8:	10800104 	addi	r2,r2,4
    47bc:	1004913a 	slli	r2,r2,4
    47c0:	2085883a 	add	r2,r4,r2
    47c4:	10c00015 	stw	r3,0(r2)
        flash->dev.region_info[i].region_size = 
                                    flash->dev.region_info[i].number_of_blocks 
    47c8:	e0ffff17 	ldw	r3,-4(fp)
    47cc:	e0bff517 	ldw	r2,-44(fp)
    47d0:	1004913a 	slli	r2,r2,4
    47d4:	1885883a 	add	r2,r3,r2
    47d8:	10800f04 	addi	r2,r2,60
    47dc:	10c00017 	ldw	r3,0(r2)
                                    * flash->dev.region_info[i].block_size;
    47e0:	e13fff17 	ldw	r4,-4(fp)
    47e4:	e0bff517 	ldw	r2,-44(fp)
    47e8:	10800104 	addi	r2,r2,4
    47ec:	1004913a 	slli	r2,r2,4
    47f0:	2085883a 	add	r2,r4,r2
    47f4:	10800017 	ldw	r2,0(r2)
    47f8:	1887383a 	mul	r3,r3,r2
                                                            (0x2D+i*4));
        flash->dev.region_info[i].number_of_blocks += 1; 
        flash->dev.region_info[i].block_size =  alt_read_16bit_query_entry( flash, 
                                                              (0x2F+i*4));
        flash->dev.region_info[i].block_size *= 256;
        flash->dev.region_info[i].region_size = 
    47fc:	e13fff17 	ldw	r4,-4(fp)
    4800:	e0bff517 	ldw	r2,-44(fp)
    4804:	1004913a 	slli	r2,r2,4
    4808:	2085883a 	add	r2,r4,r2
    480c:	10800e04 	addi	r2,r2,56
    4810:	10c00015 	stw	r3,0(r2)
                                    flash->dev.region_info[i].number_of_blocks 
                                    * flash->dev.region_info[i].block_size;
        size += flash->dev.region_info[i].region_size;
    4814:	e0ffff17 	ldw	r3,-4(fp)
    4818:	e0bff517 	ldw	r2,-44(fp)
    481c:	1004913a 	slli	r2,r2,4
    4820:	1885883a 	add	r2,r3,r2
    4824:	10800e04 	addi	r2,r2,56
    4828:	10800017 	ldw	r2,0(r2)
    482c:	e0fff817 	ldw	r3,-32(fp)
    4830:	1885883a 	add	r2,r3,r2
    4834:	e0bff815 	stw	r2,-32(fp)
    {
      ret_code = -ENOMEM;
    }
    else
    {
      for(i=0;i<flash->dev.number_of_regions;i++)
    4838:	e0bff517 	ldw	r2,-44(fp)
    483c:	10800044 	addi	r2,r2,1
    4840:	e0bff515 	stw	r2,-44(fp)
    4844:	e0bfff17 	ldw	r2,-4(fp)
    4848:	10800c17 	ldw	r2,48(r2)
    484c:	e0fff517 	ldw	r3,-44(fp)
    4850:	18bfa716 	blt	r3,r2,46f0 <alt_read_cfi_table+0x1ac>
                                    flash->dev.region_info[i].number_of_blocks 
                                    * flash->dev.region_info[i].block_size;
        size += flash->dev.region_info[i].region_size;
      }
       
      if (size != device_size)
    4854:	e0fff817 	ldw	r3,-32(fp)
    4858:	e0bffc17 	ldw	r2,-16(fp)
    485c:	18800226 	beq	r3,r2,4868 <alt_read_cfi_table+0x324>
      {
        ret_code = -ENODEV;
    4860:	00bffb44 	movi	r2,-19
    4864:	e0bff715 	stw	r2,-36(fp)
      }
    }
    
    boot_mode = (*flash->read_query)( flash, flash->primary_address + 0xf);
    4868:	e0bfff17 	ldw	r2,-4(fp)
    486c:	10c03417 	ldw	r3,208(r2)
    4870:	e0bfff17 	ldw	r2,-4(fp)
    4874:	10803217 	ldw	r2,200(r2)
    4878:	108003c4 	addi	r2,r2,15
    487c:	e13fff17 	ldw	r4,-4(fp)
    4880:	100b883a 	mov	r5,r2
    4884:	183ee83a 	callr	r3
    4888:	e0bffd05 	stb	r2,-12(fp)
     * Intel Flash parts describe the sections in the order they appear
     * for AMD they just put all the small ones first then the bigger ones
     * So if it's a top boot part we have to reverse the order of the sectors
     * so they're in the correct order
     */
    if ((flash->algorithm == CFI_ALG_AMD) && (boot_mode == TOP_BOOT_DEVICE))
    488c:	e0bfff17 	ldw	r2,-4(fp)
    4890:	10802d17 	ldw	r2,180(r2)
    4894:	10800098 	cmpnei	r2,r2,2
    4898:	1000601e 	bne	r2,zero,4a1c <alt_read_cfi_table+0x4d8>
    489c:	e0bffd03 	ldbu	r2,-12(fp)
    48a0:	108000d8 	cmpnei	r2,r2,3
    48a4:	10005d1e 	bne	r2,zero,4a1c <alt_read_cfi_table+0x4d8>
    {
      for(i=flash->dev.number_of_regions-1, j=0;
    48a8:	e0bfff17 	ldw	r2,-4(fp)
    48ac:	10800c17 	ldw	r2,48(r2)
    48b0:	10bfffc4 	addi	r2,r2,-1
    48b4:	e0bff515 	stw	r2,-44(fp)
    48b8:	e03ff615 	stw	zero,-40(fp)
    48bc:	00005406 	br	4a10 <alt_read_cfi_table+0x4cc>
          j<=i;i--,j++)
      {
        swap = flash->dev.region_info[i].region_size;
    48c0:	e0ffff17 	ldw	r3,-4(fp)
    48c4:	e0bff517 	ldw	r2,-44(fp)
    48c8:	1004913a 	slli	r2,r2,4
    48cc:	1885883a 	add	r2,r3,r2
    48d0:	10800e04 	addi	r2,r2,56
    48d4:	10800017 	ldw	r2,0(r2)
    48d8:	e0bffe15 	stw	r2,-8(fp)
        flash->dev.region_info[i].region_size =  
                                flash->dev.region_info[j].region_size;
    48dc:	e0ffff17 	ldw	r3,-4(fp)
    48e0:	e0bff617 	ldw	r2,-40(fp)
    48e4:	1004913a 	slli	r2,r2,4
    48e8:	1885883a 	add	r2,r3,r2
    48ec:	10800e04 	addi	r2,r2,56
    48f0:	10c00017 	ldw	r3,0(r2)
    {
      for(i=flash->dev.number_of_regions-1, j=0;
          j<=i;i--,j++)
      {
        swap = flash->dev.region_info[i].region_size;
        flash->dev.region_info[i].region_size =  
    48f4:	e13fff17 	ldw	r4,-4(fp)
    48f8:	e0bff517 	ldw	r2,-44(fp)
    48fc:	1004913a 	slli	r2,r2,4
    4900:	2085883a 	add	r2,r4,r2
    4904:	10800e04 	addi	r2,r2,56
    4908:	10c00015 	stw	r3,0(r2)
                                flash->dev.region_info[j].region_size;
        flash->dev.region_info[j].region_size = swap;
    490c:	e0ffff17 	ldw	r3,-4(fp)
    4910:	e0bff617 	ldw	r2,-40(fp)
    4914:	1004913a 	slli	r2,r2,4
    4918:	1885883a 	add	r2,r3,r2
    491c:	10800e04 	addi	r2,r2,56
    4920:	e0fffe17 	ldw	r3,-8(fp)
    4924:	10c00015 	stw	r3,0(r2)

        swap = flash->dev.region_info[i].block_size;
    4928:	e0ffff17 	ldw	r3,-4(fp)
    492c:	e0bff517 	ldw	r2,-44(fp)
    4930:	10800104 	addi	r2,r2,4
    4934:	1004913a 	slli	r2,r2,4
    4938:	1885883a 	add	r2,r3,r2
    493c:	10800017 	ldw	r2,0(r2)
    4940:	e0bffe15 	stw	r2,-8(fp)
        flash->dev.region_info[i].block_size =  
                                flash->dev.region_info[j].block_size;
    4944:	e0ffff17 	ldw	r3,-4(fp)
    4948:	e0bff617 	ldw	r2,-40(fp)
    494c:	10800104 	addi	r2,r2,4
    4950:	1004913a 	slli	r2,r2,4
    4954:	1885883a 	add	r2,r3,r2
    4958:	10c00017 	ldw	r3,0(r2)
        flash->dev.region_info[i].region_size =  
                                flash->dev.region_info[j].region_size;
        flash->dev.region_info[j].region_size = swap;

        swap = flash->dev.region_info[i].block_size;
        flash->dev.region_info[i].block_size =  
    495c:	e13fff17 	ldw	r4,-4(fp)
    4960:	e0bff517 	ldw	r2,-44(fp)
    4964:	10800104 	addi	r2,r2,4
    4968:	1004913a 	slli	r2,r2,4
    496c:	2085883a 	add	r2,r4,r2
    4970:	10c00015 	stw	r3,0(r2)
                                flash->dev.region_info[j].block_size;
        flash->dev.region_info[j].block_size = swap;
    4974:	e0ffff17 	ldw	r3,-4(fp)
    4978:	e0bff617 	ldw	r2,-40(fp)
    497c:	10800104 	addi	r2,r2,4
    4980:	1004913a 	slli	r2,r2,4
    4984:	1885883a 	add	r2,r3,r2
    4988:	e0fffe17 	ldw	r3,-8(fp)
    498c:	10c00015 	stw	r3,0(r2)
 
        swap = flash->dev.region_info[i].number_of_blocks;
    4990:	e0ffff17 	ldw	r3,-4(fp)
    4994:	e0bff517 	ldw	r2,-44(fp)
    4998:	1004913a 	slli	r2,r2,4
    499c:	1885883a 	add	r2,r3,r2
    49a0:	10800f04 	addi	r2,r2,60
    49a4:	10800017 	ldw	r2,0(r2)
    49a8:	e0bffe15 	stw	r2,-8(fp)
        flash->dev.region_info[i].number_of_blocks =  
                                flash->dev.region_info[j].number_of_blocks;
    49ac:	e0ffff17 	ldw	r3,-4(fp)
    49b0:	e0bff617 	ldw	r2,-40(fp)
    49b4:	1004913a 	slli	r2,r2,4
    49b8:	1885883a 	add	r2,r3,r2
    49bc:	10800f04 	addi	r2,r2,60
    49c0:	10c00017 	ldw	r3,0(r2)
        flash->dev.region_info[i].block_size =  
                                flash->dev.region_info[j].block_size;
        flash->dev.region_info[j].block_size = swap;
 
        swap = flash->dev.region_info[i].number_of_blocks;
        flash->dev.region_info[i].number_of_blocks =  
    49c4:	e13fff17 	ldw	r4,-4(fp)
    49c8:	e0bff517 	ldw	r2,-44(fp)
    49cc:	1004913a 	slli	r2,r2,4
    49d0:	2085883a 	add	r2,r4,r2
    49d4:	10800f04 	addi	r2,r2,60
    49d8:	10c00015 	stw	r3,0(r2)
                                flash->dev.region_info[j].number_of_blocks;
        flash->dev.region_info[j].number_of_blocks = swap;
    49dc:	e0ffff17 	ldw	r3,-4(fp)
    49e0:	e0bff617 	ldw	r2,-40(fp)
    49e4:	1004913a 	slli	r2,r2,4
    49e8:	1885883a 	add	r2,r3,r2
    49ec:	10800f04 	addi	r2,r2,60
    49f0:	e0fffe17 	ldw	r3,-8(fp)
    49f4:	10c00015 	stw	r3,0(r2)
     * so they're in the correct order
     */
    if ((flash->algorithm == CFI_ALG_AMD) && (boot_mode == TOP_BOOT_DEVICE))
    {
      for(i=flash->dev.number_of_regions-1, j=0;
          j<=i;i--,j++)
    49f8:	e0bff517 	ldw	r2,-44(fp)
    49fc:	10bfffc4 	addi	r2,r2,-1
    4a00:	e0bff515 	stw	r2,-44(fp)
    4a04:	e0bff617 	ldw	r2,-40(fp)
    4a08:	10800044 	addi	r2,r2,1
    4a0c:	e0bff615 	stw	r2,-40(fp)
     * So if it's a top boot part we have to reverse the order of the sectors
     * so they're in the correct order
     */
    if ((flash->algorithm == CFI_ALG_AMD) && (boot_mode == TOP_BOOT_DEVICE))
    {
      for(i=flash->dev.number_of_regions-1, j=0;
    4a10:	e0bff617 	ldw	r2,-40(fp)
    4a14:	e0fff517 	ldw	r3,-44(fp)
    4a18:	18bfa90e 	bge	r3,r2,48c0 <alt_read_cfi_table+0x37c>
        flash->dev.region_info[j].number_of_blocks = swap;

      } 
    }
    
    for(i=0;i<flash->dev.number_of_regions;i++)
    4a1c:	e03ff515 	stw	zero,-44(fp)
    4a20:	00001306 	br	4a70 <alt_read_cfi_table+0x52c>
    {
      flash->dev.region_info[i].offset = offset;
    4a24:	e0ffff17 	ldw	r3,-4(fp)
    4a28:	e0bff517 	ldw	r2,-44(fp)
    4a2c:	1004913a 	slli	r2,r2,4
    4a30:	1885883a 	add	r2,r3,r2
    4a34:	10800d04 	addi	r2,r2,52
    4a38:	e0fff917 	ldw	r3,-28(fp)
    4a3c:	10c00015 	stw	r3,0(r2)
      offset += flash->dev.region_info[i].region_size;
    4a40:	e0ffff17 	ldw	r3,-4(fp)
    4a44:	e0bff517 	ldw	r2,-44(fp)
    4a48:	1004913a 	slli	r2,r2,4
    4a4c:	1885883a 	add	r2,r3,r2
    4a50:	10800e04 	addi	r2,r2,56
    4a54:	10800017 	ldw	r2,0(r2)
    4a58:	e0fff917 	ldw	r3,-28(fp)
    4a5c:	1885883a 	add	r2,r3,r2
    4a60:	e0bff915 	stw	r2,-28(fp)
        flash->dev.region_info[j].number_of_blocks = swap;

      } 
    }
    
    for(i=0;i<flash->dev.number_of_regions;i++)
    4a64:	e0bff517 	ldw	r2,-44(fp)
    4a68:	10800044 	addi	r2,r2,1
    4a6c:	e0bff515 	stw	r2,-44(fp)
    4a70:	e0bfff17 	ldw	r2,-4(fp)
    4a74:	10800c17 	ldw	r2,48(r2)
    4a78:	e0fff517 	ldw	r3,-44(fp)
    4a7c:	18bfe916 	blt	r3,r2,4a24 <alt_read_cfi_table+0x4e0>
    {
      flash->dev.region_info[i].offset = offset;
      offset += flash->dev.region_info[i].region_size;
    }

    switch(flash->algorithm)
    4a80:	e0bfff17 	ldw	r2,-4(fp)
    4a84:	10802d17 	ldw	r2,180(r2)
    4a88:	10c000a0 	cmpeqi	r3,r2,2
    4a8c:	1800051e 	bne	r3,zero,4aa4 <alt_read_cfi_table+0x560>
    4a90:	10c000e0 	cmpeqi	r3,r2,3
    4a94:	18000c1e 	bne	r3,zero,4ac8 <alt_read_cfi_table+0x584>
    4a98:	10800060 	cmpeqi	r2,r2,1
    4a9c:	10000a1e 	bne	r2,zero,4ac8 <alt_read_cfi_table+0x584>
    4aa0:	00001206 	br	4aec <alt_read_cfi_table+0x5a8>
    {
      case CFI_ALG_AMD:
      {
        (*flash->write_command)(flash->dev.base_addr, 
    4aa4:	e0bfff17 	ldw	r2,-4(fp)
    4aa8:	10c03317 	ldw	r3,204(r2)
    4aac:	e0bfff17 	ldw	r2,-4(fp)
    4ab0:	10800a17 	ldw	r2,40(r2)
    4ab4:	1009883a 	mov	r4,r2
    4ab8:	01401544 	movi	r5,85
    4abc:	01803c04 	movi	r6,240
    4ac0:	183ee83a 	callr	r3
                            0x55, 
                            READ_ARRAY_AMD_MODE);
        break;
    4ac4:	00000b06 	br	4af4 <alt_read_cfi_table+0x5b0>
      }
      case CFI_ALG_INTEL:
      case CFI_ALG_INTEL_STRATA:
      {
        (*flash->write_command)(flash->dev.base_addr, 
    4ac8:	e0bfff17 	ldw	r2,-4(fp)
    4acc:	10c03317 	ldw	r3,204(r2)
    4ad0:	e0bfff17 	ldw	r2,-4(fp)
    4ad4:	10800a17 	ldw	r2,40(r2)
    4ad8:	1009883a 	mov	r4,r2
    4adc:	01401544 	movi	r5,85
    4ae0:	01803fc4 	movi	r6,255
    4ae4:	183ee83a 	callr	r3
                            0x55, 
                            READ_ARRAY_INTEL_MODE);
        break;
    4ae8:	00000206 	br	4af4 <alt_read_cfi_table+0x5b0>
      }
      default:
      {
        ret_code = -EIO;
    4aec:	00bffec4 	movi	r2,-5
    4af0:	e0bff715 	stw	r2,-36(fp)
      }
    } 
  }  

  return ret_code;
    4af4:	e0bff717 	ldw	r2,-36(fp)
}
    4af8:	e037883a 	mov	sp,fp
    4afc:	dfc00117 	ldw	ra,4(sp)
    4b00:	df000017 	ldw	fp,0(sp)
    4b04:	dec00204 	addi	sp,sp,8
    4b08:	f800283a 	ret

00004b0c <alt_read_cfi_width>:
 * 
 * Work out the width of the device we're talking to and sanity check that we  
 * can read the CFI and the Primary Vendor specific Table
 */
int alt_read_cfi_width(alt_flash_cfi_dev* flash)
{
    4b0c:	defff704 	addi	sp,sp,-36
    4b10:	dfc00815 	stw	ra,32(sp)
    4b14:	df000715 	stw	fp,28(sp)
    4b18:	df000704 	addi	fp,sp,28
    4b1c:	e13fff15 	stw	r4,-4(fp)
  int i;
  alt_u8 byte_id[12];
  alt_u16 iface;
  int ret_code = 0;
    4b20:	e03ffa15 	stw	zero,-24(fp)

  /*
  * Check for 8 bit wide flash
  */
  alt_write_flash_command_8bit_device_8bit_mode(flash->dev.base_addr, 0x55, QUERY_MODE);
    4b24:	e0bfff17 	ldw	r2,-4(fp)
    4b28:	10800a17 	ldw	r2,40(r2)
    4b2c:	1009883a 	mov	r4,r2
    4b30:	01401544 	movi	r5,85
    4b34:	01802604 	movi	r6,152
    4b38:	0003fdc0 	call	3fdc <alt_write_flash_command_8bit_device_8bit_mode>

  for(i=0;i<3;i++)
    4b3c:	e03ff915 	stw	zero,-28(fp)
    4b40:	00000f06 	br	4b80 <alt_read_cfi_width+0x74>
  {
    byte_id[i] = IORD_8DIRECT(flash->dev.base_addr, QUERY_ADDR+i);
    4b44:	e0bfff17 	ldw	r2,-4(fp)
    4b48:	10c00a17 	ldw	r3,40(r2)
    4b4c:	e0bff917 	ldw	r2,-28(fp)
    4b50:	10800404 	addi	r2,r2,16
    4b54:	1885883a 	add	r2,r3,r2
    4b58:	10800023 	ldbuio	r2,0(r2)
    4b5c:	10803fcc 	andi	r2,r2,255
    4b60:	1007883a 	mov	r3,r2
    4b64:	e13ffb84 	addi	r4,fp,-18
    4b68:	e0bff917 	ldw	r2,-28(fp)
    4b6c:	2085883a 	add	r2,r4,r2
    4b70:	10c00005 	stb	r3,0(r2)
  /*
  * Check for 8 bit wide flash
  */
  alt_write_flash_command_8bit_device_8bit_mode(flash->dev.base_addr, 0x55, QUERY_MODE);

  for(i=0;i<3;i++)
    4b74:	e0bff917 	ldw	r2,-28(fp)
    4b78:	10800044 	addi	r2,r2,1
    4b7c:	e0bff915 	stw	r2,-28(fp)
    4b80:	e0bff917 	ldw	r2,-28(fp)
    4b84:	108000d0 	cmplti	r2,r2,3
    4b88:	103fee1e 	bne	r2,zero,4b44 <alt_read_cfi_width+0x38>
  {
    byte_id[i] = IORD_8DIRECT(flash->dev.base_addr, QUERY_ADDR+i);
  }

  if ((byte_id[0] == 'Q') &&
    4b8c:	e0bffb83 	ldbu	r2,-18(fp)
    4b90:	10803fcc 	andi	r2,r2,255
    4b94:	10801458 	cmpnei	r2,r2,81
    4b98:	10001d1e 	bne	r2,zero,4c10 <alt_read_cfi_width+0x104>
      (byte_id[1] == 'R') &&
    4b9c:	e0bffbc3 	ldbu	r2,-17(fp)
  for(i=0;i<3;i++)
  {
    byte_id[i] = IORD_8DIRECT(flash->dev.base_addr, QUERY_ADDR+i);
  }

  if ((byte_id[0] == 'Q') &&
    4ba0:	10803fcc 	andi	r2,r2,255
    4ba4:	10801498 	cmpnei	r2,r2,82
    4ba8:	1000191e 	bne	r2,zero,4c10 <alt_read_cfi_width+0x104>
      (byte_id[1] == 'R') &&
      (byte_id[2] == 'Y'))
    4bac:	e0bffc03 	ldbu	r2,-16(fp)
  {
    byte_id[i] = IORD_8DIRECT(flash->dev.base_addr, QUERY_ADDR+i);
  }

  if ((byte_id[0] == 'Q') &&
      (byte_id[1] == 'R') &&
    4bb0:	10803fcc 	andi	r2,r2,255
    4bb4:	10801658 	cmpnei	r2,r2,89
    4bb8:	1000151e 	bne	r2,zero,4c10 <alt_read_cfi_width+0x104>
      (byte_id[2] == 'Y'))
  {
    flash->mode_width = 1;
    4bbc:	e0bfff17 	ldw	r2,-4(fp)
    4bc0:	00c00044 	movi	r3,1
    4bc4:	10c02e15 	stw	r3,184(r2)
    flash->device_width = 1; 
    4bc8:	e0bfff17 	ldw	r2,-4(fp)
    4bcc:	00c00044 	movi	r3,1
    4bd0:	10c02f15 	stw	r3,188(r2)
    iface = IORD_16DIRECT(flash->dev.base_addr, INTERFACE_ADDR);
    4bd4:	e0bfff17 	ldw	r2,-4(fp)
    4bd8:	10800a17 	ldw	r2,40(r2)
    4bdc:	10800a04 	addi	r2,r2,40
    4be0:	1080002b 	ldhuio	r2,0(r2)
    4be4:	10bfffcc 	andi	r2,r2,65535
    4be8:	e0bffb0d 	sth	r2,-20(fp)
    iface += 1;
    4bec:	e0bffb0b 	ldhu	r2,-20(fp)
    4bf0:	10800044 	addi	r2,r2,1
    4bf4:	e0bffb0d 	sth	r2,-20(fp)
    if (!(iface & 0x1))
    4bf8:	e0bffb0b 	ldhu	r2,-20(fp)
    4bfc:	1080004c 	andi	r2,r2,1
    4c00:	1001981e 	bne	r2,zero,5264 <alt_read_cfi_width+0x758>
    {
      ret_code = -ENODEV;
    4c04:	00bffb44 	movi	r2,-19
    4c08:	e0bffa15 	stw	r2,-24(fp)
  {
    flash->mode_width = 1;
    flash->device_width = 1; 
    iface = IORD_16DIRECT(flash->dev.base_addr, INTERFACE_ADDR);
    iface += 1;
    if (!(iface & 0x1))
    4c0c:	00019506 	br	5264 <alt_read_cfi_width+0x758>
  else
  {
    /*
    * Check for 8/16 bit in byte wide mode
    */
    alt_write_flash_command_16bit_device_8bit_mode(flash->dev.base_addr, 0x55, QUERY_MODE);
    4c10:	e0bfff17 	ldw	r2,-4(fp)
    4c14:	10800a17 	ldw	r2,40(r2)
